 nodejieba

 Timestamp is 5d00b022 (Wed Jun 12 15:56:18 2019)

 Preferred load address is 0000000180000000

 Start         Length     Name                   Class
 0001:00000000 000001d0H .text$di                CODE
 0001:000001d0 0004b4a0H .text$mn                CODE
 0001:0004b670 00000020H .text$mn$00             CODE
 0001:0004b690 00001a30H .text$x                 CODE
 0001:0004d0c0 00000200H .text$yd                CODE
 0002:00000000 000002d8H .idata$5                DATA
 0002:000002d8 00000010H .00cfg                  DATA
 0002:000002e8 00000008H .CRT$XCA                DATA
 0002:000002f0 00000038H .CRT$XCC                DATA
 0002:00000328 00000010H .CRT$XCL                DATA
 0002:00000338 00000018H .CRT$XCU                DATA
 0002:00000350 00000008H .CRT$XCZ                DATA
 0002:00000358 00000008H .CRT$XIA                DATA
 0002:00000360 00000028H .CRT$XIC                DATA
 0002:00000388 00000008H .CRT$XIZ                DATA
 0002:00000390 00000008H .CRT$XPA                DATA
 0002:00000398 00000010H .CRT$XPX                DATA
 0002:000003a8 00000008H .CRT$XPXA               DATA
 0002:000003b0 00000008H .CRT$XPZ                DATA
 0002:000003b8 00000008H .CRT$XTA                DATA
 0002:000003c0 00000010H .CRT$XTZ                DATA
 0002:000003c8 00000000H .gfids$y                DATA
 0002:000003d0 00014940H .rdata                  DATA
 0002:00014d10 00000fbcH .rdata$r                DATA
 0002:00015ccc 0000041cH .rdata$zzzdbg           DATA
 0002:000160e8 00000008H .rtc$IAA                DATA
 0002:000160f0 00000008H .rtc$IZZ                DATA
 0002:000160f8 00000008H .rtc$TAA                DATA
 0002:00016100 00000010H .rtc$TZZ                DATA
 0002:00016110 00006590H .xdata                  DATA
 0002:0001c6a0 00000244H .xdata$x                DATA
 0002:0001c8e4 00000020H .didat$2                DATA
 0002:0001c904 00000024H .didat$3                DATA
 0002:0001c928 00000108H .didat$4                DATA
 0002:0001ca30 000008a0H .didat$6                DATA
 0002:0001d2d0 00000110H .didat$7                DATA
 0002:0001d3e0 00000058H .edata                  DATA
 0002:0001d438 00000014H .idata$2                DATA
 0002:0001d44c 00000014H .idata$3                DATA
 0002:0001d460 000002d8H .idata$4                DATA
 0002:0001d738 00000696H .idata$6                DATA
 0003:00000000 00000bb0H .data                   DATA
 0003:00000bb0 000005f0H .data$r                 DATA
 0003:000011a0 00000110H .didat$5                DATA
 0003:000012b0 00001a1cH .bss                    DATA
 0004:00000000 00003c18H .pdata                  DATA
 0005:00000000 00000060H .rsrc$01                DATA
 0005:00000060 00000180H .rsrc$02                DATA

  Address         Publics by Value              Rva+Base               Lib:Object

 0000:00000000       __hybrid_code_map_count    0000000000000000     <absolute>
 0000:00000000       __guard_fids_count         0000000000000000     <absolute>
 0000:00000000       __guard_iat_count          0000000000000000     <absolute>
 0000:00000000       __volatile_metadata        0000000000000000     <absolute>
 0000:00000000       __guard_longjmp_count      0000000000000000     <absolute>
 0000:00000000       __guard_longjmp_table      0000000000000000     <absolute>
 0000:00000000       __guard_iat_table          0000000000000000     <absolute>
 0000:00000000       __hybrid_code_map          0000000000000000     <absolute>
 0000:00000000       ___safe_se_handler_count   0000000000000000     <absolute>
 0000:00000000       __enclave_config           0000000000000000     <absolute>
 0000:00000000       ___safe_se_handler_table   0000000000000000     <absolute>
 0000:00000000       __guard_fids_table         0000000000000000     <absolute>
 0000:00000000       __hybrid_auxiliary_iat     0000000000000000     <absolute>
 0000:00000000       __dynamic_value_reloc_table 0000000000000000     <absolute>
 0000:00000100       __guard_flags              0000000000000100     <absolute>
 0000:00000000       __ImageBase                0000000180000000     <linker-defined>
 0001:000002b0       ?init@@YAXV?$Local@VObject@v8@@@v8@@@Z 00000001800012b0 f   index.obj
 0001:00000e20       ??$New@VFunctionTemplate@v8@@@Nan@@YA?AV?$Local@VFunctionTemplate@v8@@@v8@@P6AXAEBV?$FunctionCallbackInfo@VValue@v8@@@0@@ZV?$Local@VValue@v8@@@2@@Z 0000000180001e20 f i index.obj
 0001:00000fd0       __local_stdio_printf_options 0000000180001fd0 f i nodejieba.obj
 0001:00000fe0       sprintf_s                  0000000180001fe0 f i nodejieba.obj
 0001:00001040       ?what@exception@stdext@@UEBAPEBDXZ 0000000180002040 f i nodejieba.obj
 0001:00001060       ?_Raise@exception@stdext@@QEBAXXZ 0000000180002060 f i nodejieba.obj
 0001:000010a0       ?_Lock@?$basic_streambuf@DU?$char_traits@D@std@@@std@@UEAAXXZ 00000001800020a0 f i nodejieba.obj
 0001:000010a0       ?_Unlock@?$basic_streambuf@DU?$char_traits@D@std@@@std@@UEAAXXZ 00000001800020a0 f i nodejieba.obj
 0001:000010a0       _guard_check_icall_nop     00000001800020a0 f i LIBCMT:guard_support.obj
 0001:000010a0       ?_Doraise@exception@stdext@@MEBAXXZ 00000001800020a0 f i nodejieba.obj
 0001:000010a0       ?imbue@?$basic_streambuf@DU?$char_traits@D@std@@@std@@MEAAXAEBVlocale@2@@Z 00000001800020a0 f i nodejieba.obj
 0001:000010b0       ??_Gexception@stdext@@UEAAPEAXI@Z 00000001800020b0 f i nodejieba.obj
 0001:000010b0       ??_Gruntime_error@std@@UEAAPEAXI@Z 00000001800020b0 f i nodejieba.obj
 0001:000010b0       ??_Eruntime_error@std@@UEAAPEAXI@Z 00000001800020b0 f i * CIL library *:* CIL module *
 0001:000010b0       ??_Eexception@stdext@@UEAAPEAXI@Z 00000001800020b0 f i * CIL library *:* CIL module *
 0001:000010e0       ??0runtime_error@std@@QEAA@PEBD@Z 00000001800020e0 f i nodejieba.obj
 0001:00001100       ??1runtime_error@std@@UEAA@XZ 0000000180002100 f i nodejieba.obj
 0001:00001100       ??1failure@ios_base@std@@UEAA@XZ 0000000180002100 f i nodejieba.obj
 0001:00001110       ??0_Locinfo@std@@QEAA@PEBD@Z 0000000180002110 f i nodejieba.obj
 0001:000011a0       ??1_Locinfo@std@@QEAA@XZ   00000001800021a0 f i nodejieba.obj
 0001:00001250       ??_E_Facet_base@std@@UEAAPEAXI@Z 0000000180002250 f i * CIL library *:* CIL module *
 0001:00001250       ??_G_Facet_base@std@@UEAAPEAXI@Z 0000000180002250 f i nodejieba.obj
 0001:00001280       ?_Incref@facet@locale@std@@UEAAXXZ 0000000180002280 f i nodejieba.obj
 0001:00001290       ?_Decref@facet@locale@std@@UEAAPEAV_Facet_base@3@XZ 0000000180002290 f i nodejieba.obj
 0001:000012a0       ??1facet@locale@std@@MEAA@XZ 00000001800022a0 f i nodejieba.obj
 0001:000012b0       ??1locale@std@@QEAA@XZ     00000001800022b0 f i nodejieba.obj
 0001:000012f0       ?do_max_length@codecvt_base@std@@MEBAHXZ 00000001800022f0 f i nodejieba.obj
 0001:000012f0       DllMain                    00000001800022f0 f i LIBCMT:dll_dllmain_stub.obj
 0001:000012f0       _get_startup_argv_mode     00000001800022f0 f i LIBCMT:argv_mode.obj
 0001:000012f0       ?do_encoding@codecvt_base@std@@MEBAHXZ 00000001800022f0 f i nodejieba.obj
 0001:00001300       ?do_tolower@?$ctype@D@std@@MEBADD@Z 0000000180002300 f i nodejieba.obj
 0001:00001310       ?do_tolower@?$ctype@D@std@@MEBAPEBDPEADPEBD@Z 0000000180002310 f i nodejieba.obj
 0001:00001370       ?do_toupper@?$ctype@D@std@@MEBADD@Z 0000000180002370 f i nodejieba.obj
 0001:00001380       ?do_toupper@?$ctype@D@std@@MEBAPEBDPEADPEBD@Z 0000000180002380 f i nodejieba.obj
 0001:000013e0       ?do_widen@?$ctype@D@std@@MEBADD@Z 00000001800023e0 f i nodejieba.obj
 0001:000013e0       ?do_narrow@?$ctype@D@std@@MEBADDD@Z 00000001800023e0 f i nodejieba.obj
 0001:000013f0       ?do_widen@?$ctype@D@std@@MEBAPEBDPEBD0PEAD@Z 00000001800023f0 f i nodejieba.obj
 0001:00001410       ?do_narrow@?$ctype@D@std@@MEBAPEBDPEBD0DPEAD@Z 0000000180002410 f i nodejieba.obj
 0001:00001430       ??_E?$ctype@D@std@@MEAAPEAXI@Z 0000000180002430 f i * CIL library *:* CIL module *
 0001:00001430       ??_G?$ctype@D@std@@MEAAPEAXI@Z 0000000180002430 f i nodejieba.obj
 0001:000014a0       ?default_error_condition@error_category@std@@UEBA?AVerror_condition@2@H@Z 00000001800024a0 f i nodejieba.obj
 0001:000014b0       ?equivalent@error_category@std@@UEBA_NHAEBVerror_condition@2@@Z 00000001800024b0 f i nodejieba.obj
 0001:000014f0       ?equivalent@error_category@std@@UEBA_NAEBVerror_code@2@H@Z 00000001800024f0 f i nodejieba.obj
 0001:00001510       ?make_error_code@std@@YA?AVerror_code@1@W4io_errc@1@@Z 0000000180002510 f i nodejieba.obj
 0001:00001560       ??0_System_error@std@@IEAA@Verror_code@1@AEBV?$basic_string@DU?$char_traits@D@std@@V?$allocator@D@2@@1@@Z 0000000180002560 f i nodejieba.obj
 0001:00001760       ??_Gfailure@ios_base@std@@UEAAPEAXI@Z 0000000180002760 f i nodejieba.obj
 0001:00001760       ??_E_System_error@std@@UEAAPEAXI@Z 0000000180002760 f i * CIL library *:* CIL module *
 0001:00001760       ??_Efailure@ios_base@std@@UEAAPEAXI@Z 0000000180002760 f i * CIL library *:* CIL module *
 0001:00001760       ??_G_System_error@std@@UEAAPEAXI@Z 0000000180002760 f i nodejieba.obj
 0001:00001790       ?name@_Iostream_error_category@std@@UEBAPEBDXZ 0000000180002790 f i nodejieba.obj
 0001:000017a0       ?message@_Iostream_error_category@std@@UEBA?AV?$basic_string@DU?$char_traits@D@std@@V?$allocator@D@2@@2@H@Z 00000001800027a0 f i nodejieba.obj
 0001:00001820       ??_E_Iostream_error_category@std@@UEAAPEAXI@Z 0000000180002820 f i * CIL library *:* CIL module *
 0001:00001820       ??_G_Iostream_error_category@std@@UEAAPEAXI@Z 0000000180002820 f i nodejieba.obj
 0001:00001850       ??0failure@ios_base@std@@QEAA@PEBDAEBVerror_code@2@@Z 0000000180002850 f i nodejieba.obj
 0001:00001940       ??_Gios_base@std@@UEAAPEAXI@Z 0000000180002940 f i nodejieba.obj
 0001:00001940       ??_Eios_base@std@@UEAAPEAXI@Z 0000000180002940 f i * CIL library *:* CIL module *
 0001:00001990       ??1HandleScope@Nan@@QEAA@XZ 0000000180002990 f i nodejieba.obj
 0001:000019a0       ??0Utf8String@Nan@@QEAA@V?$Local@VValue@v8@@@v8@@@Z 00000001800029a0 f i nodejieba.obj
 0001:00001ad0       ??1Utf8String@Nan@@QEAA@XZ 0000000180002ad0 f i nodejieba.obj
 0001:00001af0       ?WrapVector@@YAXAEAV?$vector@V?$basic_string@DU?$char_traits@D@std@@V?$allocator@D@2@@std@@V?$allocator@V?$basic_string@DU?$char_traits@D@std@@V?$allocator@D@2@@std@@@2@@std@@AEAV?$Local@VArray@v8@@@v8@@@Z 0000000180002af0 f i nodejieba.obj
 0001:00001bd0       ?WrapPairVector@@YAXAEAV?$vector@U?$pair@V?$basic_string@DU?$char_traits@D@std@@V?$allocator@D@2@@std@@N@std@@V?$allocator@U?$pair@V?$basic_string@DU?$char_traits@D@std@@V?$allocator@D@2@@std@@N@std@@@2@@std@@AEAV?$Local@VArray@v8@@@v8@@@Z 0000000180002bd0 f i nodejieba.obj
 0001:00001df0       ??0Logger@limonp@@QEAA@_KPEBDH@Z 0000000180002df0 f i nodejieba.obj
 0001:00001fd0       ??1Logger@limonp@@QEAA@XZ  0000000180002fd0 f i nodejieba.obj
 0001:00002140       ??_D?$basic_ostringstream@DU?$char_traits@D@std@@V?$allocator@D@2@@std@@QEAAXXZ 0000000180003140 f i nodejieba.obj
 0001:000021e0       ?IsSpace@limonp@@YA_NI@Z   00000001800031e0 f i nodejieba.obj
 0001:00002210       ?Split@limonp@@YAXAEBV?$basic_string@DU?$char_traits@D@std@@V?$allocator@D@2@@std@@AEAV?$vector@V?$basic_string@DU?$char_traits@D@std@@V?$allocator@D@2@@std@@V?$allocator@V?$basic_string@DU?$char_traits@D@std@@V?$allocator@D@2@@std@@@2@@3@0_K@Z 0000000180003210 f i nodejieba.obj
 0001:00002530       ?Split@limonp@@YA?AV?$vector@V?$basic_string@DU?$char_traits@D@std@@V?$allocator@D@2@@std@@V?$allocator@V?$basic_string@DU?$char_traits@D@std@@V?$allocator@D@2@@std@@@2@@std@@AEBV?$basic_string@DU?$char_traits@D@std@@V?$allocator@D@2@@3@0_K@Z 0000000180003530 f i nodejieba.obj
 0001:00002580       ?DecodeRuneInString@cppjieba@@YA?AURuneStrLite@1@PEBD_K@Z 0000000180003580 f i nodejieba.obj
 0001:00002670       ?DecodeRunesInString@cppjieba@@YA_NPEBD_KAEAV?$LocalVector@URuneStr@cppjieba@@@limonp@@@Z 0000000180003670 f i nodejieba.obj
 0001:000027e0       ?DecodeRunesInString@cppjieba@@YA_NPEBD_KAEAV?$LocalVector@I@limonp@@@Z 00000001800037e0 f i nodejieba.obj
 0001:00002a90       ??1Word@cppjieba@@QEAA@XZ  0000000180003a90 f i nodejieba.obj
 0001:00002a90       ??1?$basic_string@DU?$char_traits@D@std@@V?$allocator@D@2@@std@@QEAA@XZ 0000000180003a90 f i nodejieba.obj
 0001:00002a90       ??1?$pair@V?$basic_string@DU?$char_traits@D@std@@V?$allocator@D@2@@std@@N@std@@QEAA@XZ 0000000180003a90 f i nodejieba.obj
 0001:00002a90       ?_Tidy_deallocate@?$basic_string@DU?$char_traits@D@std@@V?$allocator@D@2@@std@@QEAAXXZ 0000000180003a90 f i nodejieba.obj
 0001:00002af0       ?GetWordsFromWordRanges@cppjieba@@YAXAEBV?$basic_string@DU?$char_traits@D@std@@V?$allocator@D@2@@std@@AEBV?$vector@UWordRange@cppjieba@@V?$allocator@UWordRange@cppjieba@@@std@@@3@AEAV?$vector@UWord@cppjieba@@V?$allocator@UWord@cppjieba@@@std@@@3@@Z 0000000180003af0 f i nodejieba.obj
 0001:00002d20       ?GetStringsFromWords@cppjieba@@YAXAEBV?$vector@UWord@cppjieba@@V?$allocator@UWord@cppjieba@@@std@@@std@@AEAV?$vector@V?$basic_string@DU?$char_traits@D@std@@V?$allocator@D@2@@std@@V?$allocator@V?$basic_string@DU?$char_traits@D@std@@V?$allocator@D@2@@std@@@2@@3@@Z 0000000180003d20 f i nodejieba.obj
 0001:00002e00       ?Find@Trie@cppjieba@@QEBAXPEBURuneStr@2@0AEAV?$vector@UDag@cppjieba@@V?$allocator@UDag@cppjieba@@@std@@@std@@_K@Z 0000000180003e00 f i nodejieba.obj
 0001:00003110       ?InsertNode@Trie@cppjieba@@QEAAXAEBV?$LocalVector@I@limonp@@PEBUDictUnit@2@@Z 0000000180004110 f i nodejieba.obj
 0001:00003350       ?DeleteNode@Trie@cppjieba@@AEAAXPEAVTrieNode@2@@Z 0000000180004350 f i nodejieba.obj
 0001:000033f0       ??1?$_Hash@V?$_Umap_traits@IPEAVTrieNode@cppjieba@@V?$_Uhash_compare@IU?$hash@I@std@@U?$equal_to@I@2@@std@@V?$allocator@U?$pair@$$CBIPEAVTrieNode@cppjieba@@@std@@@4@$0A@@std@@@std@@QEAA@XZ 00000001800043f0 f i nodejieba.obj
 0001:000033f0       ??1?$_Hash@V?$_Umap_traits@INV?$_Uhash_compare@IU?$hash@I@std@@U?$equal_to@I@2@@std@@V?$allocator@U?$pair@$$CBIN@std@@@2@$0A@@std@@@std@@QEAA@XZ 00000001800043f0 f i nodejieba.obj
 0001:000034b0       ??1DictTrie@cppjieba@@QEAA@XZ 00000001800044b0 f i nodejieba.obj
 0001:000035e0       ?InsertUserWord@DictTrie@cppjieba@@QEAA_NAEBV?$basic_string@DU?$char_traits@D@std@@V?$allocator@D@2@@std@@0@Z 00000001800045e0 f i nodejieba.obj
 0001:00003800       ?Find@DictTrie@cppjieba@@QEBAPEBUDictUnit@2@PEBURuneStr@2@0@Z 0000000180004800 f i nodejieba.obj
 0001:00003900       ?InserUserDictNode@DictTrie@cppjieba@@QEAAXAEBV?$basic_string@DU?$char_traits@D@std@@V?$allocator@D@2@@std@@@Z 0000000180004900 f i nodejieba.obj
 0001:00003c50       ?LoadUserDict@DictTrie@cppjieba@@QEAAXAEBV?$basic_string@DU?$char_traits@D@std@@V?$allocator@D@2@@std@@@Z 0000000180004c50 f i nodejieba.obj
 0001:00003ff0       ?Init@DictTrie@cppjieba@@AEAAXAEBV?$basic_string@DU?$char_traits@D@std@@V?$allocator@D@2@@std@@0W4UserWordWeightOption@12@@Z 0000000180004ff0 f i nodejieba.obj
 0001:000042a0       ?CreateTrie@DictTrie@cppjieba@@AEAAXAEBV?$vector@UDictUnit@cppjieba@@V?$allocator@UDictUnit@cppjieba@@@std@@@std@@@Z 00000001800052a0 f i nodejieba.obj
 0001:00004590       ?MakeNodeInfo@DictTrie@cppjieba@@AEAA_NAEAUDictUnit@2@AEBV?$basic_string@DU?$char_traits@D@std@@V?$allocator@D@2@@std@@N1@Z 0000000180005590 f i nodejieba.obj
 0001:00004680       ?LoadDict@DictTrie@cppjieba@@AEAAXAEBV?$basic_string@DU?$char_traits@D@std@@V?$allocator@D@2@@std@@@Z 0000000180005680 f i nodejieba.obj
 0001:00004bd0       ?WeightCompare@DictTrie@cppjieba@@CA_NAEBUDictUnit@2@0@Z 0000000180005bd0 f i nodejieba.obj
 0001:00004be0       ?SetStaticWordWeights@DictTrie@cppjieba@@AEAAXW4UserWordWeightOption@12@@Z 0000000180005be0 f i nodejieba.obj
 0001:00004d90       ??1?$unordered_set@IU?$hash@I@std@@U?$equal_to@I@2@V?$allocator@I@2@@std@@QEAA@XZ 0000000180005d90 f i nodejieba.obj
 0001:00004da0       ??1DictUnit@cppjieba@@QEAA@XZ 0000000180005da0 f i nodejieba.obj
 0001:00004e20       ??_D?$basic_ifstream@DU?$char_traits@D@std@@@std@@QEAAXXZ 0000000180005e20 f i nodejieba.obj
 0001:00004ec0       ??1?$_Hash@V?$_Uset_traits@IV?$_Uhash_compare@IU?$hash@I@std@@U?$equal_to@I@2@@std@@V?$allocator@I@2@$0A@@std@@@std@@QEAA@XZ 0000000180005ec0 f i nodejieba.obj
 0001:00004f80       ??1PreFilter@cppjieba@@QEAA@XZ 0000000180005f80 f i nodejieba.obj
 0001:00004fa0       ??0SegmentBase@cppjieba@@QEAA@XZ 0000000180005fa0 f i nodejieba.obj
 0001:000050f0       ??1SegmentBase@cppjieba@@UEAA@XZ 00000001800060f0 f i nodejieba.obj
 0001:000050f0       ??1SegmentTagged@cppjieba@@UEAA@XZ 00000001800060f0 f i nodejieba.obj
 0001:00005110       ?ResetSeparators@SegmentBase@cppjieba@@QEAA_NAEBV?$basic_string@DU?$char_traits@D@std@@V?$allocator@D@2@@std@@@Z 0000000180006110 f i nodejieba.obj
 0001:00005460       ??_ESegmentBase@cppjieba@@UEAAPEAXI@Z 0000000180006460 f i * CIL library *:* CIL module *
 0001:00005460       ??_GSegmentBase@cppjieba@@UEAAPEAXI@Z 0000000180006460 f i nodejieba.obj
 0001:000054b0       ??1FullSegment@cppjieba@@UEAA@XZ 00000001800064b0 f i nodejieba.obj
 0001:00005510       ?Cut@FullSegment@cppjieba@@UEBAXAEBV?$basic_string@DU?$char_traits@D@std@@V?$allocator@D@2@@std@@AEAV?$vector@V?$basic_string@DU?$char_traits@D@std@@V?$allocator@D@2@@std@@V?$allocator@V?$basic_string@DU?$char_traits@D@std@@V?$allocator@D@2@@std@@@2@@4@@Z 0000000180006510 f i nodejieba.obj
 0001:000055d0       ?Cut@FullSegment@cppjieba@@QEBAXAEBV?$basic_string@DU?$char_traits@D@std@@V?$allocator@D@2@@std@@AEAV?$vector@UWord@cppjieba@@V?$allocator@UWord@cppjieba@@@std@@@4@@Z 00000001800065d0 f i nodejieba.obj
 0001:00005810       ?Cut@FullSegment@cppjieba@@QEBAXPEBURuneStr@2@0AEAV?$vector@UWordRange@cppjieba@@V?$allocator@UWordRange@cppjieba@@@std@@@std@@@Z 0000000180006810 f i nodejieba.obj
 0001:00005c20       ??_GFullSegment@cppjieba@@UEAAPEAXI@Z 0000000180006c20 f i nodejieba.obj
 0001:00005c20       ??_EFullSegment@cppjieba@@UEAAPEAXI@Z 0000000180006c20 f i * CIL library *:* CIL module *
 0001:00005ca0       ?Tag@PosTagger@cppjieba@@QEBA_NAEBV?$basic_string@DU?$char_traits@D@std@@V?$allocator@D@2@@std@@AEAV?$vector@U?$pair@V?$basic_string@DU?$char_traits@D@std@@V?$allocator@D@2@@std@@V12@@std@@V?$allocator@U?$pair@V?$basic_string@DU?$char_traits@D@std@@V?$allocator@D@2@@std@@V12@@std@@@2@@4@AEBVSegmentTagged@2@@Z 0000000180006ca0 f i nodejieba.obj
 0001:00005ef0       ?LookupTag@PosTagger@cppjieba@@QEBA?AV?$basic_string@DU?$char_traits@D@std@@V?$allocator@D@2@@std@@AEBV34@AEBVSegmentTagged@2@@Z 0000000180006ef0 f i nodejieba.obj
 0001:000061c0       ??1?$pair@V?$basic_string@DU?$char_traits@D@std@@V?$allocator@D@2@@std@@V12@@std@@QEAA@XZ 00000001800071c0 f i nodejieba.obj
 0001:00006270       ??1MPSegment@cppjieba@@UEAA@XZ 0000000180007270 f i nodejieba.obj
 0001:000062d0       ?Cut@MPSegment@cppjieba@@UEBAXAEBV?$basic_string@DU?$char_traits@D@std@@V?$allocator@D@2@@std@@AEAV?$vector@V?$basic_string@DU?$char_traits@D@std@@V?$allocator@D@2@@std@@V?$allocator@V?$basic_string@DU?$char_traits@D@std@@V?$allocator@D@2@@std@@@2@@4@@Z 00000001800072d0 f i nodejieba.obj
 0001:000062e0       ?Cut@MPSegment@cppjieba@@QEBAXAEBV?$basic_string@DU?$char_traits@D@std@@V?$allocator@D@2@@std@@AEAV?$vector@V?$basic_string@DU?$char_traits@D@std@@V?$allocator@D@2@@std@@V?$allocator@V?$basic_string@DU?$char_traits@D@std@@V?$allocator@D@2@@std@@@2@@4@_K@Z 00000001800072e0 f i nodejieba.obj
 0001:000063a0       ?Cut@MPSegment@cppjieba@@QEBAXAEBV?$basic_string@DU?$char_traits@D@std@@V?$allocator@D@2@@std@@AEAV?$vector@UWord@cppjieba@@V?$allocator@UWord@cppjieba@@@std@@@4@_K@Z 00000001800073a0 f i nodejieba.obj
 0001:000065f0       ?Cut@MPSegment@cppjieba@@QEBAXPEBURuneStr@2@0AEAV?$vector@UWordRange@cppjieba@@V?$allocator@UWordRange@cppjieba@@@std@@@std@@_K@Z 00000001800075f0 f i nodejieba.obj
 0001:00006950       ?GetDictTrie@MPSegment@cppjieba@@UEBAPEBVDictTrie@2@XZ 0000000180007950 f i nodejieba.obj
 0001:00006960       ?Tag@MixSegment@cppjieba@@UEBA_NAEBV?$basic_string@DU?$char_traits@D@std@@V?$allocator@D@2@@std@@AEAV?$vector@U?$pair@V?$basic_string@DU?$char_traits@D@std@@V?$allocator@D@2@@std@@V12@@std@@V?$allocator@U?$pair@V?$basic_string@DU?$char_traits@D@std@@V?$allocator@D@2@@std@@V12@@std@@@2@@4@@Z 0000000180007960 f i nodejieba.obj
 0001:00006960       ?Tag@MPSegment@cppjieba@@UEBA_NAEBV?$basic_string@DU?$char_traits@D@std@@V?$allocator@D@2@@std@@AEAV?$vector@U?$pair@V?$basic_string@DU?$char_traits@D@std@@V?$allocator@D@2@@std@@V12@@std@@V?$allocator@U?$pair@V?$basic_string@DU?$char_traits@D@std@@V?$allocator@D@2@@std@@V12@@std@@@2@@4@@Z 0000000180007960 f i nodejieba.obj
 0001:00006970       ??_GMPSegment@cppjieba@@UEAAPEAXI@Z 0000000180007970 f i nodejieba.obj
 0001:00006970       ??_EMPSegment@cppjieba@@UEAAPEAXI@Z 0000000180007970 f i * CIL library *:* CIL module *
 0001:000069f0       ??0HMMModel@cppjieba@@QEAA@AEBV?$basic_string@DU?$char_traits@D@std@@V?$allocator@D@2@@std@@@Z 00000001800079f0 f i nodejieba.obj
 0001:00006b50       ??1HMMModel@cppjieba@@QEAA@XZ 0000000180007b50 f i nodejieba.obj
 0001:00006bf0       ?LoadModel@HMMModel@cppjieba@@QEAAXAEBV?$basic_string@DU?$char_traits@D@std@@V?$allocator@D@2@@std@@@Z 0000000180007bf0 f i nodejieba.obj
 0001:00007430       ?GetEmitProb@HMMModel@cppjieba@@QEBANPEBV?$unordered_map@INU?$hash@I@std@@U?$equal_to@I@2@V?$allocator@U?$pair@$$CBIN@std@@@2@@std@@IN@Z 0000000180008430 f i nodejieba.obj
 0001:000074e0       ?GetLine@HMMModel@cppjieba@@QEAA_NAEAV?$basic_ifstream@DU?$char_traits@D@std@@@std@@AEAV?$basic_string@DU?$char_traits@D@std@@V?$allocator@D@2@@4@@Z 00000001800084e0 f i nodejieba.obj
 0001:000077b0       ?LoadEmitProb@HMMModel@cppjieba@@QEAA_NAEBV?$basic_string@DU?$char_traits@D@std@@V?$allocator@D@2@@std@@AEAV?$unordered_map@INU?$hash@I@std@@U?$equal_to@I@2@V?$allocator@U?$pair@$$CBIN@std@@@2@@4@@Z 00000001800087b0 f i nodejieba.obj
 0001:00007cb0       ??1?$unordered_map@INU?$hash@I@std@@U?$equal_to@I@2@V?$allocator@U?$pair@$$CBIN@std@@@2@@std@@QEAA@XZ 0000000180008cb0 f i nodejieba.obj
 0001:00007cc0       ??1HMMSegment@cppjieba@@UEAA@XZ 0000000180008cc0 f i nodejieba.obj
 0001:00007d20       ?Cut@HMMSegment@cppjieba@@UEBAXAEBV?$basic_string@DU?$char_traits@D@std@@V?$allocator@D@2@@std@@AEAV?$vector@V?$basic_string@DU?$char_traits@D@std@@V?$allocator@D@2@@std@@V?$allocator@V?$basic_string@DU?$char_traits@D@std@@V?$allocator@D@2@@std@@@2@@4@@Z 0000000180008d20 f i nodejieba.obj
 0001:00007de0       ?Cut@HMMSegment@cppjieba@@QEBAXAEBV?$basic_string@DU?$char_traits@D@std@@V?$allocator@D@2@@std@@AEAV?$vector@UWord@cppjieba@@V?$allocator@UWord@cppjieba@@@std@@@4@@Z 0000000180008de0 f i nodejieba.obj
 0001:00008020       ?Cut@HMMSegment@cppjieba@@QEBAXPEBURuneStr@2@0AEAV?$vector@UWordRange@cppjieba@@V?$allocator@UWordRange@cppjieba@@@std@@@std@@@Z 0000000180009020 f i nodejieba.obj
 0001:00008110       ?SequentialLetterRule@HMMSegment@cppjieba@@AEBAPEBURuneStr@2@PEBU32@0@Z 0000000180009110 f i nodejieba.obj
 0001:00008160       ?NumbersRule@HMMSegment@cppjieba@@AEBAPEBURuneStr@2@PEBU32@0@Z 0000000180009160 f i nodejieba.obj
 0001:00008190       ?InternalCut@HMMSegment@cppjieba@@AEBAXPEBURuneStr@2@0AEAV?$vector@UWordRange@cppjieba@@V?$allocator@UWordRange@cppjieba@@@std@@@std@@@Z 0000000180009190 f i nodejieba.obj
 0001:000082a0       ?Viterbi@HMMSegment@cppjieba@@AEBAXPEBURuneStr@2@0AEAV?$vector@_KV?$allocator@_K@std@@@std@@@Z 00000001800092a0 f i nodejieba.obj
 0001:000087e0       ??_EHMMSegment@cppjieba@@UEAAPEAXI@Z 00000001800097e0 f i * CIL library *:* CIL module *
 0001:000087e0       ??_GHMMSegment@cppjieba@@UEAAPEAXI@Z 00000001800097e0 f i nodejieba.obj
 0001:00008860       ??0MixSegment@cppjieba@@QEAA@PEBVDictTrie@1@PEBUHMMModel@1@@Z 0000000180009860 f i nodejieba.obj
 0001:00008910       ??1MixSegment@cppjieba@@UEAA@XZ 0000000180009910 f i nodejieba.obj
 0001:000089e0       ?Cut@MixSegment@cppjieba@@UEBAXAEBV?$basic_string@DU?$char_traits@D@std@@V?$allocator@D@2@@std@@AEAV?$vector@V?$basic_string@DU?$char_traits@D@std@@V?$allocator@D@2@@std@@V?$allocator@V?$basic_string@DU?$char_traits@D@std@@V?$allocator@D@2@@std@@@2@@4@@Z 00000001800099e0 f i nodejieba.obj
 0001:000089f0       ?Cut@MixSegment@cppjieba@@QEBAXAEBV?$basic_string@DU?$char_traits@D@std@@V?$allocator@D@2@@std@@AEAV?$vector@V?$basic_string@DU?$char_traits@D@std@@V?$allocator@D@2@@std@@V?$allocator@V?$basic_string@DU?$char_traits@D@std@@V?$allocator@D@2@@std@@@2@@4@_N@Z 00000001800099f0 f i nodejieba.obj
 0001:00008ab0       ?Cut@MixSegment@cppjieba@@QEBAXAEBV?$basic_string@DU?$char_traits@D@std@@V?$allocator@D@2@@std@@AEAV?$vector@UWord@cppjieba@@V?$allocator@UWord@cppjieba@@@std@@@4@_N@Z 0000000180009ab0 f i nodejieba.obj
 0001:00008d00       ?Cut@MixSegment@cppjieba@@QEBAXPEBURuneStr@2@0AEAV?$vector@UWordRange@cppjieba@@V?$allocator@UWordRange@cppjieba@@@std@@@std@@_N@Z 0000000180009d00 f i nodejieba.obj
 0001:00009000       ?GetDictTrie@MixSegment@cppjieba@@UEBAPEBVDictTrie@2@XZ 000000018000a000 f i nodejieba.obj
 0001:00009010       ??_GMixSegment@cppjieba@@UEAAPEAXI@Z 000000018000a010 f i nodejieba.obj
 0001:00009010       ??_EMixSegment@cppjieba@@UEAAPEAXI@Z 000000018000a010 f i * CIL library *:* CIL module *
 0001:00009050       ??1QuerySegment@cppjieba@@UEAA@XZ 000000018000a050 f i nodejieba.obj
 0001:00009090       ?Cut@QuerySegment@cppjieba@@UEBAXAEBV?$basic_string@DU?$char_traits@D@std@@V?$allocator@D@2@@std@@AEAV?$vector@V?$basic_string@DU?$char_traits@D@std@@V?$allocator@D@2@@std@@V?$allocator@V?$basic_string@DU?$char_traits@D@std@@V?$allocator@D@2@@std@@@2@@4@@Z 000000018000a090 f i nodejieba.obj
 0001:000090a0       ?Cut@QuerySegment@cppjieba@@QEBAXAEBV?$basic_string@DU?$char_traits@D@std@@V?$allocator@D@2@@std@@AEAV?$vector@V?$basic_string@DU?$char_traits@D@std@@V?$allocator@D@2@@std@@V?$allocator@V?$basic_string@DU?$char_traits@D@std@@V?$allocator@D@2@@std@@@2@@4@_N@Z 000000018000a0a0 f i nodejieba.obj
 0001:00009160       ?Cut@QuerySegment@cppjieba@@QEBAXAEBV?$basic_string@DU?$char_traits@D@std@@V?$allocator@D@2@@std@@AEAV?$vector@UWord@cppjieba@@V?$allocator@UWord@cppjieba@@@std@@@4@_N@Z 000000018000a160 f i nodejieba.obj
 0001:000093b0       ?Cut@QuerySegment@cppjieba@@QEBAXPEBURuneStr@2@0AEAV?$vector@UWordRange@cppjieba@@V?$allocator@UWordRange@cppjieba@@@std@@@std@@_N@Z 000000018000a3b0 f i nodejieba.obj
 0001:00009640       ??_GQuerySegment@cppjieba@@UEAAPEAXI@Z 000000018000a640 f i nodejieba.obj
 0001:00009640       ??_EQuerySegment@cppjieba@@UEAAPEAXI@Z 000000018000a640 f i * CIL library *:* CIL module *
 0001:000096a0       ?GetAllowedPOS@Utils@cppjieba@@SA?AV?$set@V?$basic_string@DU?$char_traits@D@std@@V?$allocator@D@2@@std@@U?$less@V?$basic_string@DU?$char_traits@D@std@@V?$allocator@D@2@@std@@@2@V?$allocator@V?$basic_string@DU?$char_traits@D@std@@V?$allocator@D@2@@std@@@2@@std@@AEBV?$basic_string@DU?$char_traits@D@std@@V?$allocator@D@2@@4@V54@@Z 000000018000a6a0 f i nodejieba.obj
 0001:00009aa0       ?ConvertWordsStr2Vector@Utils@cppjieba@@SA?AV?$vector@U?$pair@V?$basic_string@DU?$char_traits@D@std@@V?$allocator@D@2@@std@@V12@@std@@V?$allocator@U?$pair@V?$basic_string@DU?$char_traits@D@std@@V?$allocator@D@2@@std@@V12@@std@@@2@@std@@AEBV?$basic_string@DU?$char_traits@D@std@@V?$allocator@D@2@@4@@Z 000000018000aaa0 f i nodejieba.obj
 0001:00009e30       ??1?$set@V?$basic_string@DU?$char_traits@D@std@@V?$allocator@D@2@@std@@U?$less@V?$basic_string@DU?$char_traits@D@std@@V?$allocator@D@2@@std@@@2@V?$allocator@V?$basic_string@DU?$char_traits@D@std@@V?$allocator@D@2@@std@@@2@@std@@QEAA@XZ 000000018000ae30 f i nodejieba.obj
 0001:00009e60       ?Extract@KeywordExtractor@cppjieba@@QEBAXAEBV?$basic_string@DU?$char_traits@D@std@@V?$allocator@D@2@@std@@AEAV?$vector@U?$pair@V?$basic_string@DU?$char_traits@D@std@@V?$allocator@D@2@@std@@N@std@@V?$allocator@U?$pair@V?$basic_string@DU?$char_traits@D@std@@V?$allocator@D@2@@std@@N@std@@@2@@4@_K0@Z 000000018000ae60 f i nodejieba.obj
 0001:0000a0c0       ?ExtractWithWordsStr@KeywordExtractor@cppjieba@@QEBAXAEBV?$basic_string@DU?$char_traits@D@std@@V?$allocator@D@2@@std@@AEAV?$vector@U?$pair@V?$basic_string@DU?$char_traits@D@std@@V?$allocator@D@2@@std@@N@std@@V?$allocator@U?$pair@V?$basic_string@DU?$char_traits@D@std@@V?$allocator@D@2@@std@@N@std@@@2@@4@_K0@Z 000000018000b0c0 f i nodejieba.obj
 0001:0000a310       ?Extract@KeywordExtractor@cppjieba@@QEBAXAEBV?$vector@U?$pair@V?$basic_string@DU?$char_traits@D@std@@V?$allocator@D@2@@std@@V12@@std@@V?$allocator@U?$pair@V?$basic_string@DU?$char_traits@D@std@@V?$allocator@D@2@@std@@V12@@std@@@2@@std@@AEAV?$vector@UWord@KeywordExtractor@cppjieba@@V?$allocator@UWord@KeywordExtractor@cppjieba@@@std@@@4@_KAEBV?$basic_string@DU?$char_traits@D@std@@V?$allocator@D@2@@4@@Z 000000018000b310 f i nodejieba.obj
 0001:0000aaf0       ?LoadIdfDict@KeywordExtractor@cppjieba@@AEAAXAEBV?$basic_string@DU?$char_traits@D@std@@V?$allocator@D@2@@std@@@Z 000000018000baf0 f i nodejieba.obj
 0001:0000b030       ?LoadStopWordDict@KeywordExtractor@cppjieba@@AEAAXAEBV?$basic_string@DU?$char_traits@D@std@@V?$allocator@D@2@@std@@@Z 000000018000c030 f i nodejieba.obj
 0001:0000b2b0       ?Compare@TextRankExtractor@cppjieba@@CA_NAEBU_Word@12@0@Z 000000018000c2b0 f i nodejieba.obj
 0001:0000b2b0       ?Compare@KeywordExtractor@cppjieba@@CA_NAEBUWord@12@0@Z 000000018000c2b0 f i nodejieba.obj
 0001:0000b2c0       ??1?$unordered_map@V?$basic_string@DU?$char_traits@D@std@@V?$allocator@D@2@@std@@NU?$hash@V?$basic_string@DU?$char_traits@D@std@@V?$allocator@D@2@@std@@@2@U?$equal_to@V?$basic_string@DU?$char_traits@D@std@@V?$allocator@D@2@@std@@@2@V?$allocator@U?$pair@$$CBV?$basic_string@DU?$char_traits@D@std@@V?$allocator@D@2@@std@@N@std@@@2@@std@@QEAA@XZ 000000018000c2c0 f i nodejieba.obj
 0001:0000b2d0       ??1?$unordered_set@V?$basic_string@DU?$char_traits@D@std@@V?$allocator@D@2@@std@@U?$hash@V?$basic_string@DU?$char_traits@D@std@@V?$allocator@D@2@@std@@@2@U?$equal_to@V?$basic_string@DU?$char_traits@D@std@@V?$allocator@D@2@@std@@@2@V?$allocator@V?$basic_string@DU?$char_traits@D@std@@V?$allocator@D@2@@std@@@2@@std@@QEAA@XZ 000000018000c2d0 f i nodejieba.obj
 0001:0000b2e0       ??1?$map@V?$basic_string@DU?$char_traits@D@std@@V?$allocator@D@2@@std@@UWord@KeywordExtractor@cppjieba@@U?$less@V?$basic_string@DU?$char_traits@D@std@@V?$allocator@D@2@@std@@@2@V?$allocator@U?$pair@$$CBV?$basic_string@DU?$char_traits@D@std@@V?$allocator@D@2@@std@@UWord@KeywordExtractor@cppjieba@@@std@@@2@@std@@QEAA@XZ 000000018000c2e0 f i nodejieba.obj
 0001:0000b2e0       ??1?$map@V?$basic_string@DU?$char_traits@D@std@@V?$allocator@D@2@@std@@U_Word@TextRankExtractor@cppjieba@@U?$less@V?$basic_string@DU?$char_traits@D@std@@V?$allocator@D@2@@std@@@2@V?$allocator@U?$pair@$$CBV?$basic_string@DU?$char_traits@D@std@@V?$allocator@D@2@@std@@U_Word@TextRankExtractor@cppjieba@@@std@@@2@@std@@QEAA@XZ 000000018000c2e0 f i nodejieba.obj
 0001:0000b310       ??1?$_Hash@V?$_Umap_traits@V?$basic_string@DU?$char_traits@D@std@@V?$allocator@D@2@@std@@NV?$_Uhash_compare@V?$basic_string@DU?$char_traits@D@std@@V?$allocator@D@2@@std@@U?$hash@V?$basic_string@DU?$char_traits@D@std@@V?$allocator@D@2@@std@@@2@U?$equal_to@V?$basic_string@DU?$char_traits@D@std@@V?$allocator@D@2@@std@@@2@@2@V?$allocator@U?$pair@$$CBV?$basic_string@DU?$char_traits@D@std@@V?$allocator@D@2@@std@@N@std@@@2@$0A@@std@@@std@@QEAA@XZ 000000018000c310 f i nodejieba.obj
 0001:0000b420       ??1?$_Hash@V?$_Uset_traits@V?$basic_string@DU?$char_traits@D@std@@V?$allocator@D@2@@std@@V?$_Uhash_compare@V?$basic_string@DU?$char_traits@D@std@@V?$allocator@D@2@@std@@U?$hash@V?$basic_string@DU?$char_traits@D@std@@V?$allocator@D@2@@std@@@2@U?$equal_to@V?$basic_string@DU?$char_traits@D@std@@V?$allocator@D@2@@std@@@2@@2@V?$allocator@V?$basic_string@DU?$char_traits@D@std@@V?$allocator@D@2@@std@@@2@$0A@@std@@@std@@QEAA@XZ 000000018000c420 f i nodejieba.obj
 0001:0000b530       ??0Jieba@cppjieba@@QEAA@AEBV?$basic_string@DU?$char_traits@D@std@@V?$allocator@D@2@@std@@0000@Z 000000018000c530 f i nodejieba.obj
 0001:0000b750       ?addEdge@WordGraph@TextRankExtractor@cppjieba@@QEAAXV?$basic_string@DU?$char_traits@D@std@@V?$allocator@D@2@@std@@0N@Z 000000018000c750 f i nodejieba.obj
 0001:0000b940       ?rank@WordGraph@TextRankExtractor@cppjieba@@QEAAXAEAV?$map@V?$basic_string@DU?$char_traits@D@std@@V?$allocator@D@2@@std@@U_Word@TextRankExtractor@cppjieba@@U?$less@V?$basic_string@DU?$char_traits@D@std@@V?$allocator@D@2@@std@@@2@V?$allocator@U?$pair@$$CBV?$basic_string@DU?$char_traits@D@std@@V?$allocator@D@2@@std@@U_Word@TextRankExtractor@cppjieba@@@std@@@2@@std@@_K@Z 000000018000c940 f i nodejieba.obj
 0001:0000bea0       ?Extract@TextRankExtractor@cppjieba@@QEBAXAEBV?$basic_string@DU?$char_traits@D@std@@V?$allocator@D@2@@std@@AEAV?$vector@U?$pair@V?$basic_string@DU?$char_traits@D@std@@V?$allocator@D@2@@std@@N@std@@V?$allocator@U?$pair@V?$basic_string@DU?$char_traits@D@std@@V?$allocator@D@2@@std@@N@std@@@2@@4@_K0@Z 000000018000cea0 f i nodejieba.obj
 0001:0000c100       ?ExtractWithWordsStr@TextRankExtractor@cppjieba@@QEBAXAEBV?$basic_string@DU?$char_traits@D@std@@V?$allocator@D@2@@std@@AEAV?$vector@U?$pair@V?$basic_string@DU?$char_traits@D@std@@V?$allocator@D@2@@std@@N@std@@V?$allocator@U?$pair@V?$basic_string@DU?$char_traits@D@std@@V?$allocator@D@2@@std@@N@std@@@2@@4@_K0@Z 000000018000d100 f i nodejieba.obj
 0001:0000c350       ?Extract@TextRankExtractor@cppjieba@@QEBAXAEBV?$vector@U?$pair@V?$basic_string@DU?$char_traits@D@std@@V?$allocator@D@2@@std@@V12@@std@@V?$allocator@U?$pair@V?$basic_string@DU?$char_traits@D@std@@V?$allocator@D@2@@std@@V12@@std@@@2@@std@@AEAV?$vector@U_Word@TextRankExtractor@cppjieba@@V?$allocator@U_Word@TextRankExtractor@cppjieba@@@std@@@4@_KAEBV?$basic_string@DU?$char_traits@D@std@@V?$allocator@D@2@@4@22@Z 000000018000d350 f i nodejieba.obj
 0001:0000cd30       ?LoadStopWordDict@TextRankExtractor@cppjieba@@AEAAXAEBV?$basic_string@DU?$char_traits@D@std@@V?$allocator@D@2@@std@@@Z 000000018000dd30 f i nodejieba.obj
 0001:0000cfb0       ??1?$map@V?$basic_string@DU?$char_traits@D@std@@V?$allocator@D@2@@std@@V?$map@V?$basic_string@DU?$char_traits@D@std@@V?$allocator@D@2@@std@@NU?$less@V?$basic_string@DU?$char_traits@D@std@@V?$allocator@D@2@@std@@@2@V?$allocator@U?$pair@$$CBV?$basic_string@DU?$char_traits@D@std@@V?$allocator@D@2@@std@@N@std@@@2@@2@U?$less@V?$basic_string@DU?$char_traits@D@std@@V?$allocator@D@2@@std@@@2@V?$allocator@U?$pair@$$CBV?$basic_string@DU?$char_traits@D@std@@V?$allocator@D@2@@std@@V?$map@V?$basic_string@DU?$char_traits@D@std@@V?$allocator@D@2@@std@@NU?$less@V?$basic_string@DU?$char_traits@D@std@@V?$allocator@D@2@@std@@@2@V?$allocator@U?$pair@$$CBV?$basic_string@DU?$char_traits@D@std@@V?$allocator@D@2@@std@@N@std@@@2@@2@@std@@@2@@std@@QEAA@XZ 000000018000dfb0 f i nodejieba.obj
 0001:0000cfe0       ??1?$map@V?$basic_string@DU?$char_traits@D@std@@V?$allocator@D@2@@std@@NU?$less@V?$basic_string@DU?$char_traits@D@std@@V?$allocator@D@2@@std@@@2@V?$allocator@U?$pair@$$CBV?$basic_string@DU?$char_traits@D@std@@V?$allocator@D@2@@std@@N@std@@@2@@std@@QEAA@XZ 000000018000dfe0 f i nodejieba.obj
 0001:0000d010       ??1WordGraph@TextRankExtractor@cppjieba@@QEAA@XZ 000000018000e010 f i nodejieba.obj
 0001:0000d070       ?load@@YAXAEBV?$FunctionCallbackInfo@VValue@v8@@@Nan@@@Z 000000018000e070 f   nodejieba.obj
 0001:0000dbc0       ?insertWord@@YAXAEBV?$FunctionCallbackInfo@VValue@v8@@@Nan@@@Z 000000018000ebc0 f   nodejieba.obj
 0001:0000df00       ?cut@@YAXAEBV?$FunctionCallbackInfo@VValue@v8@@@Nan@@@Z 000000018000ef00 f   nodejieba.obj
 0001:0000e1e0       ?cutHMM@@YAXAEBV?$FunctionCallbackInfo@VValue@v8@@@Nan@@@Z 000000018000f1e0 f   nodejieba.obj
 0001:0000e440       ?cutAll@@YAXAEBV?$FunctionCallbackInfo@VValue@v8@@@Nan@@@Z 000000018000f440 f   nodejieba.obj
 0001:0000e6a0       ?cutForSearch@@YAXAEBV?$FunctionCallbackInfo@VValue@v8@@@Nan@@@Z 000000018000f6a0 f   nodejieba.obj
 0001:0000e980       ?cutSmall@@YAXAEBV?$FunctionCallbackInfo@VValue@v8@@@Nan@@@Z 000000018000f980 f   nodejieba.obj
 0001:0000ec60       ?tag@@YAXAEBV?$FunctionCallbackInfo@VValue@v8@@@Nan@@@Z 000000018000fc60 f   nodejieba.obj
 0001:0000f070       ?extract@@YAXAEBV?$FunctionCallbackInfo@VValue@v8@@@Nan@@@Z 0000000180010070 f   nodejieba.obj
 0001:0000f490       ?extractWithWords@@YAXAEBV?$FunctionCallbackInfo@VValue@v8@@@Nan@@@Z 0000000180010490 f   nodejieba.obj
 0001:0000f8b0       ?textRankExtract@@YAXAEBV?$FunctionCallbackInfo@VValue@v8@@@Nan@@@Z 00000001800108b0 f   nodejieba.obj
 0001:0000fcd0       ?textRankExtractWithWords@@YAXAEBV?$FunctionCallbackInfo@VValue@v8@@@Nan@@@Z 0000000180010cd0 f   nodejieba.obj
 0001:000100f0       ??1?$vector@UWord@KeywordExtractor@cppjieba@@V?$allocator@UWord@KeywordExtractor@cppjieba@@@std@@@std@@QEAA@XZ 00000001800110f0 f i nodejieba.obj
 0001:000100f0       ??1?$vector@U_Word@TextRankExtractor@cppjieba@@V?$allocator@U_Word@TextRankExtractor@cppjieba@@@std@@@std@@QEAA@XZ 00000001800110f0 f i nodejieba.obj
 0001:00010180       ??A?$map@V?$basic_string@DU?$char_traits@D@std@@V?$allocator@D@2@@std@@NU?$less@V?$basic_string@DU?$char_traits@D@std@@V?$allocator@D@2@@std@@@2@V?$allocator@U?$pair@$$CBV?$basic_string@DU?$char_traits@D@std@@V?$allocator@D@2@@std@@N@std@@@2@@std@@QEAAAEANAEBV?$basic_string@DU?$char_traits@D@std@@V?$allocator@D@2@@1@@Z 0000000180011180 f i nodejieba.obj
 0001:000102f0       ??1?$vector@V?$_List_unchecked_iterator@V?$_List_val@U?$_List_simple_types@U?$pair@$$CBIPEAVTrieNode@cppjieba@@@std@@@std@@@std@@@std@@V?$allocator@V?$_List_unchecked_iterator@V?$_List_val@U?$_List_simple_types@U?$pair@$$CBIPEAVTrieNode@cppjieba@@@std@@@std@@@std@@@std@@@2@@std@@QEAA@XZ 00000001800112f0 f i nodejieba.obj
 0001:000102f0       ??1?$vector@V?$_List_unchecked_const_iterator@V?$_List_val@U?$_List_simple_types@V?$basic_string@DU?$char_traits@D@std@@V?$allocator@D@2@@std@@@std@@@std@@U_Iterator_base0@2@@std@@V?$allocator@V?$_List_unchecked_const_iterator@V?$_List_val@U?$_List_simple_types@V?$basic_string@DU?$char_traits@D@std@@V?$allocator@D@2@@std@@@std@@@std@@U_Iterator_base0@2@@std@@@2@@std@@QEAA@XZ 00000001800112f0 f i nodejieba.obj
 0001:000102f0       ?_Tidy@?$vector@_KV?$allocator@_K@std@@@std@@AEAAXXZ 00000001800112f0 f i nodejieba.obj
 0001:000102f0       ??1?$vector@PEAV?$unordered_map@INU?$hash@I@std@@U?$equal_to@I@2@V?$allocator@U?$pair@$$CBIN@std@@@2@@std@@V?$allocator@PEAV?$unordered_map@INU?$hash@I@std@@U?$equal_to@I@2@V?$allocator@U?$pair@$$CBIN@std@@@2@@std@@@2@@std@@QEAA@XZ 00000001800112f0 f i nodejieba.obj
 0001:000102f0       ??1?$vector@V?$_List_unchecked_const_iterator@V?$_List_val@U?$_List_simple_types@I@std@@@std@@U_Iterator_base0@2@@std@@V?$allocator@V?$_List_unchecked_const_iterator@V?$_List_val@U?$_List_simple_types@I@std@@@std@@U_Iterator_base0@2@@std@@@2@@std@@QEAA@XZ 00000001800112f0 f i nodejieba.obj
 0001:000102f0       ??1?$vector@PEBUDictUnit@cppjieba@@V?$allocator@PEBUDictUnit@cppjieba@@@std@@@std@@QEAA@XZ 00000001800112f0 f i nodejieba.obj
 0001:000102f0       ??1?$vector@V?$_List_unchecked_iterator@V?$_List_val@U?$_List_simple_types@U?$pair@$$CBIN@std@@@std@@@std@@@std@@V?$allocator@V?$_List_unchecked_iterator@V?$_List_val@U?$_List_simple_types@U?$pair@$$CBIN@std@@@std@@@std@@@std@@@2@@std@@QEAA@XZ 00000001800112f0 f i nodejieba.obj
 0001:000102f0       ??1?$vector@NV?$allocator@N@std@@@std@@QEAA@XZ 00000001800112f0 f i nodejieba.obj
 0001:000102f0       ??1?$vector@V?$_List_unchecked_iterator@V?$_List_val@U?$_List_simple_types@U?$pair@$$CBV?$basic_string@DU?$char_traits@D@std@@V?$allocator@D@2@@std@@N@std@@@std@@@std@@@std@@V?$allocator@V?$_List_unchecked_iterator@V?$_List_val@U?$_List_simple_types@U?$pair@$$CBV?$basic_string@DU?$char_traits@D@std@@V?$allocator@D@2@@std@@N@std@@@std@@@std@@@std@@@2@@std@@QEAA@XZ 00000001800112f0 f i nodejieba.obj
 0001:000102f0       ??1?$vector@_KV?$allocator@_K@std@@@std@@QEAA@XZ 00000001800112f0 f i nodejieba.obj
 0001:00010350       ??1?$list@V?$basic_string@DU?$char_traits@D@std@@V?$allocator@D@2@@std@@V?$allocator@V?$basic_string@DU?$char_traits@D@std@@V?$allocator@D@2@@std@@@2@@std@@QEAA@XZ 0000000180011350 f i nodejieba.obj
 0001:00010420       ??0?$unordered_set@V?$basic_string@DU?$char_traits@D@std@@V?$allocator@D@2@@std@@U?$hash@V?$basic_string@DU?$char_traits@D@std@@V?$allocator@D@2@@std@@@2@U?$equal_to@V?$basic_string@DU?$char_traits@D@std@@V?$allocator@D@2@@std@@@2@V?$allocator@V?$basic_string@DU?$char_traits@D@std@@V?$allocator@D@2@@std@@@2@@std@@QEAA@XZ 0000000180011420 f i nodejieba.obj
 0001:000104a0       ??1?$list@U?$pair@$$CBV?$basic_string@DU?$char_traits@D@std@@V?$allocator@D@2@@std@@N@std@@V?$allocator@U?$pair@$$CBV?$basic_string@DU?$char_traits@D@std@@V?$allocator@D@2@@std@@N@std@@@2@@std@@QEAA@XZ 00000001800114a0 f i nodejieba.obj
 0001:00010570       ??1?$vector@HV?$allocator@H@std@@@std@@QEAA@XZ 0000000180011570 f i nodejieba.obj
 0001:000105d0       ??1?$list@U?$pair@$$CBIPEAVTrieNode@cppjieba@@@std@@V?$allocator@U?$pair@$$CBIPEAVTrieNode@cppjieba@@@std@@@2@@std@@QEAA@XZ 00000001800115d0 f i nodejieba.obj
 0001:000105d0       ??1?$list@U?$pair@$$CBIN@std@@V?$allocator@U?$pair@$$CBIN@std@@@2@@std@@QEAA@XZ 00000001800115d0 f i nodejieba.obj
 0001:00010630       ??0?$unordered_map@INU?$hash@I@std@@U?$equal_to@I@2@V?$allocator@U?$pair@$$CBIN@std@@@2@@std@@QEAA@XZ 0000000180011630 f i nodejieba.obj
 0001:000106b0       ??1?$list@IV?$allocator@I@std@@@std@@QEAA@XZ 00000001800116b0 f i nodejieba.obj
 0001:00010710       ??0?$unordered_set@IU?$hash@I@std@@U?$equal_to@I@2@V?$allocator@I@2@@std@@QEAA@XZ 0000000180011710 f i nodejieba.obj
 0001:00010790       ??1?$deque@UDictUnit@cppjieba@@V?$allocator@UDictUnit@cppjieba@@@std@@@std@@QEAA@XZ 0000000180011790 f i nodejieba.obj
 0001:00010880       ??1?$vector@UDictUnit@cppjieba@@V?$allocator@UDictUnit@cppjieba@@@std@@@std@@QEAA@XZ 0000000180011880 f i nodejieba.obj
 0001:00010890       ??1?$vector@UDag@cppjieba@@V?$allocator@UDag@cppjieba@@@std@@@std@@QEAA@XZ 0000000180011890 f i nodejieba.obj
 0001:00010970       ??1?$vector@V?$LocalVector@I@limonp@@V?$allocator@V?$LocalVector@I@limonp@@@std@@@std@@QEAA@XZ 0000000180011970 f i nodejieba.obj
 0001:00010a30       ?push_back@?$LocalVector@U?$pair@_KPEBUDictUnit@cppjieba@@@std@@@limonp@@QEAAXAEBU?$pair@_KPEBUDictUnit@cppjieba@@@std@@@Z 0000000180011a30 f i nodejieba.obj
 0001:00010b40       ??1?$LocalVector@U?$pair@_KPEBUDictUnit@cppjieba@@@std@@@limonp@@QEAA@XZ 0000000180011b40 f i nodejieba.obj
 0001:00010b60       ??0?$LocalVector@U?$pair@_KPEBUDictUnit@cppjieba@@@std@@@limonp@@QEAA@XZ 0000000180011b60 f i nodejieba.obj
 0001:00010c30       ?reserve@?$vector@UWord@cppjieba@@V?$allocator@UWord@cppjieba@@@std@@@std@@QEAAX_K@Z 0000000180011c30 f i nodejieba.obj
 0001:00010d40       ??1?$vector@UWord@cppjieba@@V?$allocator@UWord@cppjieba@@@std@@@std@@QEAA@XZ 0000000180011d40 f i nodejieba.obj
 0001:00010dd0       ?reserve@?$vector@UWordRange@cppjieba@@V?$allocator@UWordRange@cppjieba@@@std@@@std@@QEAAX_K@Z 0000000180011dd0 f i nodejieba.obj
 0001:00010f10       ??1?$vector@UWordRange@cppjieba@@V?$allocator@UWordRange@cppjieba@@@std@@@std@@QEAA@XZ 0000000180011f10 f i nodejieba.obj
 0001:00010f70       ?reserve@?$LocalVector@URuneStr@cppjieba@@@limonp@@QEAAX_K@Z 0000000180011f70 f i nodejieba.obj
 0001:00011010       ??1?$LocalVector@URuneStr@cppjieba@@@limonp@@QEAA@XZ 0000000180012010 f i nodejieba.obj
 0001:00011030       ??0?$LocalVector@URuneStr@cppjieba@@@limonp@@QEAA@XZ 0000000180012030 f i nodejieba.obj
 0001:00011100       ??1?$LocalVector@I@limonp@@QEAA@XZ 0000000180012100 f i nodejieba.obj
 0001:00011120       ??1?$vector@U?$pair@V?$basic_string@DU?$char_traits@D@std@@V?$allocator@D@2@@std@@V12@@std@@V?$allocator@U?$pair@V?$basic_string@DU?$char_traits@D@std@@V?$allocator@D@2@@std@@V12@@std@@@2@@std@@QEAA@XZ 0000000180012120 f i nodejieba.obj
 0001:000111b0       ??1?$vector@U?$pair@V?$basic_string@DU?$char_traits@D@std@@V?$allocator@D@2@@std@@N@std@@V?$allocator@U?$pair@V?$basic_string@DU?$char_traits@D@std@@V?$allocator@D@2@@std@@N@std@@@2@@std@@QEAA@XZ 00000001800121b0 f i nodejieba.obj
 0001:00011240       ??1?$vector@V?$basic_string@DU?$char_traits@D@std@@V?$allocator@D@2@@std@@V?$allocator@V?$basic_string@DU?$char_traits@D@std@@V?$allocator@D@2@@std@@@2@@std@@QEAA@XZ 0000000180012240 f i nodejieba.obj
 0001:000112b0       ??1?$_Yarn@D@std@@QEAA@XZ  00000001800122b0 f i nodejieba.obj
 0001:000112b0       ??1?$_Yarn@_W@std@@QEAA@XZ 00000001800122b0 f i nodejieba.obj
 0001:000112e0       ??0?$basic_string@DU?$char_traits@D@std@@V?$allocator@D@2@@std@@QEAA@_KD@Z 00000001800122e0 f i nodejieba.obj
 0001:00011450       ??0?$basic_string@DU?$char_traits@D@std@@V?$allocator@D@2@@std@@QEAA@AEBV01@@Z 0000000180012450 f i nodejieba.obj
 0001:00011530       ??0?$basic_ifstream@DU?$char_traits@D@std@@@std@@QEAA@PEBDHH@Z 0000000180012530 f i nodejieba.obj
 0001:000116b0       ?imbue@?$basic_filebuf@DU?$char_traits@D@std@@@std@@MEAAXAEBVlocale@2@@Z 00000001800126b0 f i nodejieba.obj
 0001:000116e0       ?sync@?$basic_filebuf@DU?$char_traits@D@std@@@std@@MEAAHXZ 00000001800126e0 f i nodejieba.obj
 0001:00011730       ?setbuf@?$basic_filebuf@DU?$char_traits@D@std@@@std@@MEAAPEAV?$basic_streambuf@DU?$char_traits@D@std@@@2@PEAD_J@Z 0000000180012730 f i nodejieba.obj
 0001:00011790       ?seekpos@?$basic_filebuf@DU?$char_traits@D@std@@@std@@MEAA?AV?$fpos@U_Mbstatet@@@2@V32@H@Z 0000000180012790 f i nodejieba.obj
 0001:00011870       ?seekoff@?$basic_filebuf@DU?$char_traits@D@std@@@std@@MEAA?AV?$fpos@U_Mbstatet@@@2@_JHH@Z 0000000180012870 f i nodejieba.obj
 0001:00011940       ?xsputn@?$basic_filebuf@DU?$char_traits@D@std@@@std@@MEAA_JPEBD_J@Z 0000000180012940 f i nodejieba.obj
 0001:00011a20       ?xsgetn@?$basic_filebuf@DU?$char_traits@D@std@@@std@@MEAA_JPEAD_J@Z 0000000180012a20 f i nodejieba.obj
 0001:00011b00       ?uflow@?$basic_filebuf@DU?$char_traits@D@std@@@std@@MEAAHXZ 0000000180012b00 f i nodejieba.obj
 0001:00011dd0       ?underflow@?$basic_filebuf@DU?$char_traits@D@std@@@std@@MEAAHXZ 0000000180012dd0 f i nodejieba.obj
 0001:00011e40       ?pbackfail@?$basic_filebuf@DU?$char_traits@D@std@@@std@@MEAAHH@Z 0000000180012e40 f i nodejieba.obj
 0001:00011f30       ?overflow@?$basic_filebuf@DU?$char_traits@D@std@@@std@@MEAAHH@Z 0000000180012f30 f i nodejieba.obj
 0001:000120d0       ?_Unlock@?$basic_filebuf@DU?$char_traits@D@std@@@std@@UEAAXXZ 00000001800130d0 f i nodejieba.obj
 0001:000120f0       ?_Lock@?$basic_filebuf@DU?$char_traits@D@std@@@std@@UEAAXXZ 00000001800130f0 f i nodejieba.obj
 0001:00012110       ??1?$basic_filebuf@DU?$char_traits@D@std@@@std@@UEAA@XZ 0000000180013110 f i nodejieba.obj
 0001:00012250       ?seekpos@?$basic_stringbuf@DU?$char_traits@D@std@@V?$allocator@D@2@@std@@MEAA?AV?$fpos@U_Mbstatet@@@2@V32@H@Z 0000000180013250 f i nodejieba.obj
 0001:00012340       ?seekoff@?$basic_stringbuf@DU?$char_traits@D@std@@V?$allocator@D@2@@std@@MEAA?AV?$fpos@U_Mbstatet@@@2@_JHH@Z 0000000180013340 f i nodejieba.obj
 0001:00012490       ?underflow@?$basic_stringbuf@DU?$char_traits@D@std@@V?$allocator@D@2@@std@@MEAAHXZ 0000000180013490 f i nodejieba.obj
 0001:00012500       ?pbackfail@?$basic_stringbuf@DU?$char_traits@D@std@@V?$allocator@D@2@@std@@MEAAHH@Z 0000000180013500 f i nodejieba.obj
 0001:00012560       ?overflow@?$basic_stringbuf@DU?$char_traits@D@std@@V?$allocator@D@2@@std@@MEAAHH@Z 0000000180013560 f i nodejieba.obj
 0001:00012770       ??1?$basic_stringbuf@DU?$char_traits@D@std@@V?$allocator@D@2@@std@@UEAA@XZ 0000000180013770 f i nodejieba.obj
 0001:00012880       ??6?$basic_ostream@DU?$char_traits@D@std@@@std@@QEAAAEAV01@_K@Z 0000000180013880 f i nodejieba.obj
 0001:00012a30       ??6?$basic_ostream@DU?$char_traits@D@std@@@std@@QEAAAEAV01@H@Z 0000000180013a30 f i nodejieba.obj
 0001:00012bd0       ??1?$basic_ostream@DU?$char_traits@D@std@@@std@@UEAA@XZ 0000000180013bd0 f i nodejieba.obj
 0001:00012c00       ??1?$basic_istream@DU?$char_traits@D@std@@@std@@UEAA@XZ 0000000180013c00 f i nodejieba.obj
 0001:00012c30       ?showmanyc@?$basic_streambuf@DU?$char_traits@D@std@@@std@@MEAA_JXZ 0000000180013c30 f i nodejieba.obj
 0001:00012c30       ?sync@?$basic_streambuf@DU?$char_traits@D@std@@@std@@MEAAHXZ 0000000180013c30 f i nodejieba.obj
 0001:00012c40       ?setbuf@?$basic_streambuf@DU?$char_traits@D@std@@@std@@MEAAPEAV12@PEAD_J@Z 0000000180013c40 f i nodejieba.obj
 0001:00012c50       ?seekpos@?$basic_streambuf@DU?$char_traits@D@std@@@std@@MEAA?AV?$fpos@U_Mbstatet@@@2@V32@H@Z 0000000180013c50 f i nodejieba.obj
 0001:00012c50       ?seekoff@?$basic_streambuf@DU?$char_traits@D@std@@@std@@MEAA?AV?$fpos@U_Mbstatet@@@2@_JHH@Z 0000000180013c50 f i nodejieba.obj
 0001:00012c70       ?xsputn@?$basic_streambuf@DU?$char_traits@D@std@@@std@@MEAA_JPEBD_J@Z 0000000180013c70 f i nodejieba.obj
 0001:00012d30       ?xsgetn@?$basic_streambuf@DU?$char_traits@D@std@@@std@@MEAA_JPEAD_J@Z 0000000180013d30 f i nodejieba.obj
 0001:00012de0       ?uflow@?$basic_streambuf@DU?$char_traits@D@std@@@std@@MEAAHXZ 0000000180013de0 f i nodejieba.obj
 0001:00012e20       ?overflow@?$basic_streambuf@DU?$char_traits@D@std@@@std@@MEAAHH@Z 0000000180013e20 f i nodejieba.obj
 0001:00012e20       ?pbackfail@?$basic_streambuf@DU?$char_traits@D@std@@@std@@MEAAHH@Z 0000000180013e20 f i nodejieba.obj
 0001:00012e20       ?underflow@?$basic_streambuf@DU?$char_traits@D@std@@@std@@MEAAHXZ 0000000180013e20 f i nodejieba.obj
 0001:00012e30       ??1?$basic_ios@DU?$char_traits@D@std@@@std@@UEAA@XZ 0000000180013e30 f i nodejieba.obj
 0001:00012e60       ??_G?$basic_ifstream@DU?$char_traits@D@std@@@std@@UEAAPEAXI@Z 0000000180013e60 f i nodejieba.obj
 0001:00012e60       ??_E?$basic_ifstream@DU?$char_traits@D@std@@@std@@UEAAPEAXI@Z 0000000180013e60 f i * CIL library *:* CIL module *
 0001:00012ea0       ??_G?$basic_filebuf@DU?$char_traits@D@std@@@std@@UEAAPEAXI@Z 0000000180013ea0 f i nodejieba.obj
 0001:00012ea0       ??_E?$basic_filebuf@DU?$char_traits@D@std@@@std@@UEAAPEAXI@Z 0000000180013ea0 f i * CIL library *:* CIL module *
 0001:00012ee0       ??_E?$basic_ostringstream@DU?$char_traits@D@std@@V?$allocator@D@2@@std@@UEAAPEAXI@Z 0000000180013ee0 f i * CIL library *:* CIL module *
 0001:00012ee0       ??_G?$basic_ostringstream@DU?$char_traits@D@std@@V?$allocator@D@2@@std@@UEAAPEAXI@Z 0000000180013ee0 f i nodejieba.obj
 0001:00012f20       ??_E?$basic_stringbuf@DU?$char_traits@D@std@@V?$allocator@D@2@@std@@UEAAPEAXI@Z 0000000180013f20 f i * CIL library *:* CIL module *
 0001:00012f20       ??_G?$basic_stringbuf@DU?$char_traits@D@std@@V?$allocator@D@2@@std@@UEAAPEAXI@Z 0000000180013f20 f i nodejieba.obj
 0001:00012f60       ??_G?$basic_ostream@DU?$char_traits@D@std@@@std@@UEAAPEAXI@Z 0000000180013f60 f i nodejieba.obj
 0001:00012f60       ??_E?$basic_ostream@DU?$char_traits@D@std@@@std@@UEAAPEAXI@Z 0000000180013f60 f i * CIL library *:* CIL module *
 0001:00012fd0       ??_E?$basic_istream@DU?$char_traits@D@std@@@std@@UEAAPEAXI@Z 0000000180013fd0 f i * CIL library *:* CIL module *
 0001:00012fd0       ??_G?$basic_istream@DU?$char_traits@D@std@@@std@@UEAAPEAXI@Z 0000000180013fd0 f i nodejieba.obj
 0001:00013040       ??_E?$basic_streambuf@DU?$char_traits@D@std@@@std@@UEAAPEAXI@Z 0000000180014040 f i * CIL library *:* CIL module *
 0001:00013040       ??_G?$basic_streambuf@DU?$char_traits@D@std@@@std@@UEAAPEAXI@Z 0000000180014040 f i nodejieba.obj
 0001:000130d0       ??_G?$basic_ios@DU?$char_traits@D@std@@@std@@UEAAPEAXI@Z 00000001800140d0 f i nodejieba.obj
 0001:000130d0       ??_E?$basic_ios@DU?$char_traits@D@std@@@std@@UEAAPEAXI@Z 00000001800140d0 f i * CIL library *:* CIL module *
 0001:00013120       ?_Xlength@?$vector@V?$_List_unchecked_iterator@V?$_List_val@U?$_List_simple_types@U?$pair@$$CBIN@std@@@std@@@std@@@std@@V?$allocator@V?$_List_unchecked_iterator@V?$_List_val@U?$_List_simple_types@U?$pair@$$CBIN@std@@@std@@@std@@@std@@@2@@std@@CAXXZ 0000000180014120 f i nodejieba.obj
 0001:00013120       ?_Xlength@?$vector@UWordRange@cppjieba@@V?$allocator@UWordRange@cppjieba@@@std@@@std@@CAXXZ 0000000180014120 f i nodejieba.obj
 0001:00013120       ?_Xlength@?$vector@U?$pair@V?$basic_string@DU?$char_traits@D@std@@V?$allocator@D@2@@std@@V12@@std@@V?$allocator@U?$pair@V?$basic_string@DU?$char_traits@D@std@@V?$allocator@D@2@@std@@V12@@std@@@2@@std@@CAXXZ 0000000180014120 f i nodejieba.obj
 0001:00013120       ?_Xlength@?$vector@HV?$allocator@H@std@@@std@@CAXXZ 0000000180014120 f i nodejieba.obj
 0001:00013120       ?_Xlength@?$vector@V?$basic_string@DU?$char_traits@D@std@@V?$allocator@D@2@@std@@V?$allocator@V?$basic_string@DU?$char_traits@D@std@@V?$allocator@D@2@@std@@@2@@std@@CAXXZ 0000000180014120 f i nodejieba.obj
 0001:00013120       ?_Xlength@?$vector@V?$_List_unchecked_const_iterator@V?$_List_val@U?$_List_simple_types@V?$basic_string@DU?$char_traits@D@std@@V?$allocator@D@2@@std@@@std@@@std@@U_Iterator_base0@2@@std@@V?$allocator@V?$_List_unchecked_const_iterator@V?$_List_val@U?$_List_simple_types@V?$basic_string@DU?$char_traits@D@std@@V?$allocator@D@2@@std@@@std@@@std@@U_Iterator_base0@2@@std@@@2@@std@@CAXXZ 0000000180014120 f i nodejieba.obj
 0001:00013120       ?_Xlength@?$vector@V?$_List_unchecked_iterator@V?$_List_val@U?$_List_simple_types@U?$pair@$$CBIPEAVTrieNode@cppjieba@@@std@@@std@@@std@@@std@@V?$allocator@V?$_List_unchecked_iterator@V?$_List_val@U?$_List_simple_types@U?$pair@$$CBIPEAVTrieNode@cppjieba@@@std@@@std@@@std@@@std@@@2@@std@@CAXXZ 0000000180014120 f i nodejieba.obj
 0001:00013120       ?_Xlength@?$vector@_KV?$allocator@_K@std@@@std@@CAXXZ 0000000180014120 f i nodejieba.obj
 0001:00013120       ?_Xlength@?$vector@V?$_List_unchecked_const_iterator@V?$_List_val@U?$_List_simple_types@I@std@@@std@@U_Iterator_base0@2@@std@@V?$allocator@V?$_List_unchecked_const_iterator@V?$_List_val@U?$_List_simple_types@I@std@@@std@@U_Iterator_base0@2@@std@@@2@@std@@CAXXZ 0000000180014120 f i nodejieba.obj
 0001:00013120       ?_Xlength@?$vector@U?$pair@V?$basic_string@DU?$char_traits@D@std@@V?$allocator@D@2@@std@@N@std@@V?$allocator@U?$pair@V?$basic_string@DU?$char_traits@D@std@@V?$allocator@D@2@@std@@N@std@@@2@@std@@CAXXZ 0000000180014120 f i nodejieba.obj
 0001:00013120       ?_Xlength@?$vector@UWord@cppjieba@@V?$allocator@UWord@cppjieba@@@std@@@std@@CAXXZ 0000000180014120 f i nodejieba.obj
 0001:00013120       ?_Xlength@?$vector@UDag@cppjieba@@V?$allocator@UDag@cppjieba@@@std@@@std@@CAXXZ 0000000180014120 f i nodejieba.obj
 0001:00013120       ?_Xlength@?$vector@U_Word@TextRankExtractor@cppjieba@@V?$allocator@U_Word@TextRankExtractor@cppjieba@@@std@@@std@@CAXXZ 0000000180014120 f i nodejieba.obj
 0001:00013120       ?_Xlength@?$vector@PEBUDictUnit@cppjieba@@V?$allocator@PEBUDictUnit@cppjieba@@@std@@@std@@CAXXZ 0000000180014120 f i nodejieba.obj
 0001:00013120       ?_Xlength@?$vector@UWord@KeywordExtractor@cppjieba@@V?$allocator@UWord@KeywordExtractor@cppjieba@@@std@@@std@@CAXXZ 0000000180014120 f i nodejieba.obj
 0001:00013120       ?_Xlength@?$vector@NV?$allocator@N@std@@@std@@CAXXZ 0000000180014120 f i nodejieba.obj
 0001:00013120       ?_Xlength@?$vector@V?$_List_unchecked_iterator@V?$_List_val@U?$_List_simple_types@U?$pair@$$CBV?$basic_string@DU?$char_traits@D@std@@V?$allocator@D@2@@std@@N@std@@@std@@@std@@@std@@V?$allocator@V?$_List_unchecked_iterator@V?$_List_val@U?$_List_simple_types@U?$pair@$$CBV?$basic_string@DU?$char_traits@D@std@@V?$allocator@D@2@@std@@N@std@@@std@@@std@@@std@@@2@@std@@CAXXZ 0000000180014120 f i nodejieba.obj
 0001:00013120       ?_Xlength@?$vector@PEAV?$unordered_map@INU?$hash@I@std@@U?$equal_to@I@2@V?$allocator@U?$pair@$$CBIN@std@@@2@@std@@V?$allocator@PEAV?$unordered_map@INU?$hash@I@std@@U?$equal_to@I@2@V?$allocator@U?$pair@$$CBIN@std@@@2@@std@@@2@@std@@CAXXZ 0000000180014120 f i nodejieba.obj
 0001:00013120       ?_Xlength@?$vector@V?$LocalVector@I@limonp@@V?$allocator@V?$LocalVector@I@limonp@@@std@@@std@@CAXXZ 0000000180014120 f i nodejieba.obj
 0001:00013120       ?_Xlength@?$vector@UDictUnit@cppjieba@@V?$allocator@UDictUnit@cppjieba@@@std@@@std@@CAXXZ 0000000180014120 f i nodejieba.obj
 0001:00013140       ?do_length@?$codecvt@DDU_Mbstatet@@@std@@MEBAHAEAU_Mbstatet@@PEBD1_K@Z 0000000180014140 f i nodejieba.obj
 0001:00013150       ?do_unshift@?$codecvt@DDU_Mbstatet@@@std@@MEBAHAEAU_Mbstatet@@PEAD1AEAPEAD@Z 0000000180014150 f i nodejieba.obj
 0001:00013160       ?do_in@?$codecvt@DDU_Mbstatet@@@std@@MEBAHAEAU_Mbstatet@@PEBD1AEAPEBDPEAD3AEAPEAD@Z 0000000180014160 f i nodejieba.obj
 0001:00013160       ?do_out@?$codecvt@DDU_Mbstatet@@@std@@MEBAHAEAU_Mbstatet@@PEBD1AEAPEBDPEAD3AEAPEAD@Z 0000000180014160 f i nodejieba.obj
 0001:00013180       ?do_always_noconv@?$codecvt@DDU_Mbstatet@@@std@@MEBA_NXZ 0000000180014180 f i nodejieba.obj
 0001:00013180       __acrt_uninitialize_command_line 0000000180014180 f i libucrt:argv_data.obj
 0001:00013190       ?_Init@?$_Hash@V?$_Umap_traits@INV?$_Uhash_compare@IU?$hash@I@std@@U?$equal_to@I@2@@std@@V?$allocator@U?$pair@$$CBIN@std@@@2@$0A@@std@@@std@@IEAAX_K@Z 0000000180014190 f i nodejieba.obj
 0001:00013190       ?_Init@?$_Hash@V?$_Uset_traits@V?$basic_string@DU?$char_traits@D@std@@V?$allocator@D@2@@std@@V?$_Uhash_compare@V?$basic_string@DU?$char_traits@D@std@@V?$allocator@D@2@@std@@U?$hash@V?$basic_string@DU?$char_traits@D@std@@V?$allocator@D@2@@std@@@2@U?$equal_to@V?$basic_string@DU?$char_traits@D@std@@V?$allocator@D@2@@std@@@2@@2@V?$allocator@V?$basic_string@DU?$char_traits@D@std@@V?$allocator@D@2@@std@@@2@$0A@@std@@@std@@IEAAX_K@Z 0000000180014190 f i nodejieba.obj
 0001:00013190       ?_Init@?$_Hash@V?$_Umap_traits@IPEAVTrieNode@cppjieba@@V?$_Uhash_compare@IU?$hash@I@std@@U?$equal_to@I@2@@std@@V?$allocator@U?$pair@$$CBIPEAVTrieNode@cppjieba@@@std@@@4@$0A@@std@@@std@@IEAAX_K@Z 0000000180014190 f i nodejieba.obj
 0001:00013190       ?_Init@?$_Hash@V?$_Uset_traits@IV?$_Uhash_compare@IU?$hash@I@std@@U?$equal_to@I@2@@std@@V?$allocator@I@2@$0A@@std@@@std@@IEAAX_K@Z 0000000180014190 f i nodejieba.obj
 0001:00013190       ?_Init@?$_Hash@V?$_Umap_traits@V?$basic_string@DU?$char_traits@D@std@@V?$allocator@D@2@@std@@NV?$_Uhash_compare@V?$basic_string@DU?$char_traits@D@std@@V?$allocator@D@2@@std@@U?$hash@V?$basic_string@DU?$char_traits@D@std@@V?$allocator@D@2@@std@@@2@U?$equal_to@V?$basic_string@DU?$char_traits@D@std@@V?$allocator@D@2@@std@@@2@@2@V?$allocator@U?$pair@$$CBV?$basic_string@DU?$char_traits@D@std@@V?$allocator@D@2@@std@@N@std@@@2@$0A@@std@@@std@@IEAAX_K@Z 0000000180014190 f i nodejieba.obj
 0001:00013330       ?_Growmap@?$deque@UDictUnit@cppjieba@@V?$allocator@UDictUnit@cppjieba@@@std@@@std@@IEAAX_K@Z 0000000180014330 f i nodejieba.obj
 0001:00013510       ?_Tidy@?$vector@UDictUnit@cppjieba@@V?$allocator@UDictUnit@cppjieba@@@std@@@std@@AEAAXXZ 0000000180014510 f i nodejieba.obj
 0001:000135a0       ??4?$LocalVector@I@limonp@@QEAAAEAV01@AEBV01@@Z 00000001800145a0 f i nodejieba.obj
 0001:00013670       ??1sentry@?$basic_ostream@DU?$char_traits@D@std@@@std@@QEAA@XZ 0000000180014670 f i nodejieba.obj
 0001:000136f0       ??0sentry@?$basic_ostream@DU?$char_traits@D@std@@@std@@QEAA@AEAV12@@Z 00000001800146f0 f i nodejieba.obj
 0001:00013770       ?do_put@?$num_put@DV?$ostreambuf_iterator@DU?$char_traits@D@std@@@std@@@std@@MEBA?AV?$ostreambuf_iterator@DU?$char_traits@D@std@@@2@V32@AEAVios_base@2@DPEBX@Z 0000000180014770 f i nodejieba.obj
 0001:00013810       ?do_put@?$num_put@DV?$ostreambuf_iterator@DU?$char_traits@D@std@@@std@@@std@@MEBA?AV?$ostreambuf_iterator@DU?$char_traits@D@std@@@2@V32@AEAVios_base@2@DO@Z 0000000180014810 f i nodejieba.obj
 0001:00013ad0       ?do_put@?$num_put@DV?$ostreambuf_iterator@DU?$char_traits@D@std@@@std@@@std@@MEBA?AV?$ostreambuf_iterator@DU?$char_traits@D@std@@@2@V32@AEAVios_base@2@DN@Z 0000000180014ad0 f i nodejieba.obj
 0001:00013d80       ?do_put@?$num_put@DV?$ostreambuf_iterator@DU?$char_traits@D@std@@@std@@@std@@MEBA?AV?$ostreambuf_iterator@DU?$char_traits@D@std@@@2@V32@AEAVios_base@2@D_K@Z 0000000180014d80 f i nodejieba.obj
 0001:00013ea0       ?do_put@?$num_put@DV?$ostreambuf_iterator@DU?$char_traits@D@std@@@std@@@std@@MEBA?AV?$ostreambuf_iterator@DU?$char_traits@D@std@@@2@V32@AEAVios_base@2@D_J@Z 0000000180014ea0 f i nodejieba.obj
 0001:00013fc0       ?do_put@?$num_put@DV?$ostreambuf_iterator@DU?$char_traits@D@std@@@std@@@std@@MEBA?AV?$ostreambuf_iterator@DU?$char_traits@D@std@@@2@V32@AEAVios_base@2@DK@Z 0000000180014fc0 f i nodejieba.obj
 0001:000140e0       ?do_put@?$num_put@DV?$ostreambuf_iterator@DU?$char_traits@D@std@@@std@@@std@@MEBA?AV?$ostreambuf_iterator@DU?$char_traits@D@std@@@2@V32@AEAVios_base@2@DJ@Z 00000001800150e0 f i nodejieba.obj
 0001:00014200       ?do_put@?$num_put@DV?$ostreambuf_iterator@DU?$char_traits@D@std@@@std@@@std@@MEBA?AV?$ostreambuf_iterator@DU?$char_traits@D@std@@@2@V32@AEAVios_base@2@D_N@Z 0000000180015200 f i nodejieba.obj
 0001:000144b0       ?assign@?$basic_string@DU?$char_traits@D@std@@V?$allocator@D@2@@std@@QEAAAEAV12@QEBD_K@Z 00000001800154b0 f i nodejieba.obj
 0001:00014600       ?append@?$basic_string@DU?$char_traits@D@std@@V?$allocator@D@2@@std@@QEAAAEAV12@QEBD_K@Z 0000000180015600 f i nodejieba.obj
 0001:00014680       ?_Reset_back@?$basic_filebuf@DU?$char_traits@D@std@@@std@@AEAAXXZ 0000000180015680 f i nodejieba.obj
 0001:000146b0       ?_Initcvt@?$basic_filebuf@DU?$char_traits@D@std@@@std@@IEAAXAEBV?$codecvt@DDU_Mbstatet@@@2@@Z 00000001800156b0 f i nodejieba.obj
 0001:00014750       ?_Endwrite@?$basic_filebuf@DU?$char_traits@D@std@@@std@@IEAA_NXZ 0000000180015750 f i nodejieba.obj
 0001:00014820       ?_Init@?$basic_filebuf@DU?$char_traits@D@std@@@std@@IEAAXPEAU_iobuf@@W4_Initfl@12@@Z 0000000180015820 f i nodejieba.obj
 0001:00014910       ??0?$basic_ostream@DU?$char_traits@D@std@@@std@@QEAA@PEAV?$basic_streambuf@DU?$char_traits@D@std@@@1@_N@Z 0000000180015910 f i nodejieba.obj
 0001:00014990       ?_Pnavail@?$basic_streambuf@DU?$char_traits@D@std@@@std@@IEBA_JXZ 0000000180015990 f i nodejieba.obj
 0001:000149b0       ?_Gnavail@?$basic_streambuf@DU?$char_traits@D@std@@@std@@IEBA_JXZ 00000001800159b0 f i nodejieba.obj
 0001:000149d0       ?setstate@?$basic_ios@DU?$char_traits@D@std@@@std@@QEAAXH_N@Z 00000001800159d0 f i nodejieba.obj
 0001:00014a50       ??_G?$codecvt@DDU_Mbstatet@@@std@@MEAAPEAXI@Z 0000000180015a50 f i nodejieba.obj
 0001:00014a50       ??_G?$num_put@DV?$ostreambuf_iterator@DU?$char_traits@D@std@@@std@@@std@@MEAAPEAXI@Z 0000000180015a50 f i nodejieba.obj
 0001:00014a50       ??_E?$codecvt@DDU_Mbstatet@@@std@@MEAAPEAXI@Z 0000000180015a50 f i * CIL library *:* CIL module *
 0001:00014a50       ??_E?$num_put@DV?$ostreambuf_iterator@DU?$char_traits@D@std@@@std@@@std@@MEAAPEAXI@Z 0000000180015a50 f i * CIL library *:* CIL module *
 0001:00014a80       ?do_truename@?$numpunct@D@std@@MEBA?AV?$basic_string@DU?$char_traits@D@std@@V?$allocator@D@2@@2@XZ 0000000180015a80 f i nodejieba.obj
 0001:00014ad0       ?do_falsename@?$numpunct@D@std@@MEBA?AV?$basic_string@DU?$char_traits@D@std@@V?$allocator@D@2@@2@XZ 0000000180015ad0 f i nodejieba.obj
 0001:00014b20       ?do_grouping@?$numpunct@D@std@@MEBA?AV?$basic_string@DU?$char_traits@D@std@@V?$allocator@D@2@@2@XZ 0000000180015b20 f i nodejieba.obj
 0001:00014b70       ?do_thousands_sep@?$numpunct@D@std@@MEBADXZ 0000000180015b70 f i nodejieba.obj
 0001:00014b80       ?do_decimal_point@?$numpunct@D@std@@MEBADXZ 0000000180015b80 f i nodejieba.obj
 0001:00014b90       ?erase@?$_Tree@V?$_Tmap_traits@V?$basic_string@DU?$char_traits@D@std@@V?$allocator@D@2@@std@@U_Word@TextRankExtractor@cppjieba@@U?$less@V?$basic_string@DU?$char_traits@D@std@@V?$allocator@D@2@@std@@@2@V?$allocator@U?$pair@$$CBV?$basic_string@DU?$char_traits@D@std@@V?$allocator@D@2@@std@@U_Word@TextRankExtractor@cppjieba@@@std@@@2@$0A@@std@@@std@@QEAA?AV?$_Tree_iterator@V?$_Tree_val@U?$_Tree_simple_types@U?$pair@$$CBV?$basic_string@DU?$char_traits@D@std@@V?$allocator@D@2@@std@@U_Word@TextRankExtractor@cppjieba@@@std@@@std@@@std@@@2@V?$_Tree_const_iterator@V?$_Tree_val@U?$_Tree_simple_types@U?$pair@$$CBV?$basic_string@DU?$char_traits@D@std@@V?$allocator@D@2@@std@@U_Word@TextRankExtractor@cppjieba@@@std@@@std@@@std@@@2@0@Z 0000000180015b90 f i nodejieba.obj
 0001:00014b90       ?erase@?$_Tree@V?$_Tmap_traits@V?$basic_string@DU?$char_traits@D@std@@V?$allocator@D@2@@std@@UWord@KeywordExtractor@cppjieba@@U?$less@V?$basic_string@DU?$char_traits@D@std@@V?$allocator@D@2@@std@@@2@V?$allocator@U?$pair@$$CBV?$basic_string@DU?$char_traits@D@std@@V?$allocator@D@2@@std@@UWord@KeywordExtractor@cppjieba@@@std@@@2@$0A@@std@@@std@@QEAA?AV?$_Tree_iterator@V?$_Tree_val@U?$_Tree_simple_types@U?$pair@$$CBV?$basic_string@DU?$char_traits@D@std@@V?$allocator@D@2@@std@@UWord@KeywordExtractor@cppjieba@@@std@@@std@@@std@@@2@V?$_Tree_const_iterator@V?$_Tree_val@U?$_Tree_simple_types@U?$pair@$$CBV?$basic_string@DU?$char_traits@D@std@@V?$allocator@D@2@@std@@UWord@KeywordExtractor@cppjieba@@@std@@@std@@@std@@@2@0@Z 0000000180015b90 f i nodejieba.obj
 0001:00014d30       ?erase@?$_Tree@V?$_Tmap_traits@V?$basic_string@DU?$char_traits@D@std@@V?$allocator@D@2@@std@@NU?$less@V?$basic_string@DU?$char_traits@D@std@@V?$allocator@D@2@@std@@@2@V?$allocator@U?$pair@$$CBV?$basic_string@DU?$char_traits@D@std@@V?$allocator@D@2@@std@@N@std@@@2@$0A@@std@@@std@@QEAA?AV?$_Tree_iterator@V?$_Tree_val@U?$_Tree_simple_types@U?$pair@$$CBV?$basic_string@DU?$char_traits@D@std@@V?$allocator@D@2@@std@@N@std@@@std@@@std@@@2@V?$_Tree_const_iterator@V?$_Tree_val@U?$_Tree_simple_types@U?$pair@$$CBV?$basic_string@DU?$char_traits@D@std@@V?$allocator@D@2@@std@@N@std@@@std@@@std@@@2@0@Z 0000000180015d30 f i nodejieba.obj
 0001:00014ee0       ?_Change_array@?$vector@UWord@KeywordExtractor@cppjieba@@V?$allocator@UWord@KeywordExtractor@cppjieba@@@std@@@std@@AEAAXQEAUWord@KeywordExtractor@cppjieba@@_K1@Z 0000000180015ee0 f i nodejieba.obj
 0001:00014ee0       ?_Change_array@?$vector@U_Word@TextRankExtractor@cppjieba@@V?$allocator@U_Word@TextRankExtractor@cppjieba@@@std@@@std@@AEAAXQEAU_Word@TextRankExtractor@cppjieba@@_K1@Z 0000000180015ee0 f i nodejieba.obj
 0001:00014fa0       ?erase@?$_Tree@V?$_Tmap_traits@V?$basic_string@DU?$char_traits@D@std@@V?$allocator@D@2@@std@@V?$map@V?$basic_string@DU?$char_traits@D@std@@V?$allocator@D@2@@std@@NU?$less@V?$basic_string@DU?$char_traits@D@std@@V?$allocator@D@2@@std@@@2@V?$allocator@U?$pair@$$CBV?$basic_string@DU?$char_traits@D@std@@V?$allocator@D@2@@std@@N@std@@@2@@2@U?$less@V?$basic_string@DU?$char_traits@D@std@@V?$allocator@D@2@@std@@@2@V?$allocator@U?$pair@$$CBV?$basic_string@DU?$char_traits@D@std@@V?$allocator@D@2@@std@@V?$map@V?$basic_string@DU?$char_traits@D@std@@V?$allocator@D@2@@std@@NU?$less@V?$basic_string@DU?$char_traits@D@std@@V?$allocator@D@2@@std@@@2@V?$allocator@U?$pair@$$CBV?$basic_string@DU?$char_traits@D@std@@V?$allocator@D@2@@std@@N@std@@@2@@2@@std@@@2@$0A@@std@@@std@@QEAA?AV?$_Tree_iterator@V?$_Tree_val@U?$_Tree_simple_types@U?$pair@$$CBV?$basic_string@DU?$char_traits@D@std@@V?$allocator@D@2@@std@@V?$map@V?$basic_string@DU?$char_traits@D@std@@V?$allocator@D@2@@std@@NU?$less@V?$basic_string@DU?$char_traits@D@std@@V?$allocator@D@2@@std@@@2@V?$allocator@U?$pair@$$CBV?$basic_string@DU?$char_traits@D@std@@V?$allocator@D@2@@std@@N@std@@@2@@2@@std@@@std@@@std@@@2@V?$_Tree_const_iterator@V?$_Tree_val@U?$_Tree_simple_types@U?$pair@$$CBV?$basic_string@DU?$char_traits@D@std@@V?$allocator@D@2@@std@@V?$map@V?$basic_string@DU?$char_traits@D@std@@V?$allocator@D@2@@std@@NU?$less@V?$basic_string@DU?$char_traits@D@std@@V?$allocator@D@2@@std@@@2@V?$allocator@U?$pair@$$CBV?$basic_string@DU?$char_traits@D@std@@V?$allocator@D@2@@std@@N@std@@@2@@2@@std@@@std@@@std@@@2@0@Z 0000000180015fa0 f i nodejieba.obj
 0001:00015140       ?erase@?$_Tree@V?$_Tset_traits@V?$basic_string@DU?$char_traits@D@std@@V?$allocator@D@2@@std@@U?$less@V?$basic_string@DU?$char_traits@D@std@@V?$allocator@D@2@@std@@@2@V?$allocator@V?$basic_string@DU?$char_traits@D@std@@V?$allocator@D@2@@std@@@2@$0A@@std@@@std@@QEAA?AV?$_Tree_const_iterator@V?$_Tree_val@U?$_Tree_simple_types@V?$basic_string@DU?$char_traits@D@std@@V?$allocator@D@2@@std@@@std@@@std@@@2@V32@0@Z 0000000180016140 f i nodejieba.obj
 0001:000152f0       ?assign@?$vector@V?$_List_unchecked_const_iterator@V?$_List_val@U?$_List_simple_types@V?$basic_string@DU?$char_traits@D@std@@V?$allocator@D@2@@std@@@std@@@std@@U_Iterator_base0@2@@std@@V?$allocator@V?$_List_unchecked_const_iterator@V?$_List_val@U?$_List_simple_types@V?$basic_string@DU?$char_traits@D@std@@V?$allocator@D@2@@std@@@std@@@std@@U_Iterator_base0@2@@std@@@2@@std@@QEAAX_KAEBV?$_List_unchecked_const_iterator@V?$_List_val@U?$_List_simple_types@V?$basic_string@DU?$char_traits@D@std@@V?$allocator@D@2@@std@@@std@@@std@@U_Iterator_base0@2@@2@@Z 00000001800162f0 f i nodejieba.obj
 0001:000152f0       ?assign@?$vector@V?$_List_unchecked_const_iterator@V?$_List_val@U?$_List_simple_types@I@std@@@std@@U_Iterator_base0@2@@std@@V?$allocator@V?$_List_unchecked_const_iterator@V?$_List_val@U?$_List_simple_types@I@std@@@std@@U_Iterator_base0@2@@std@@@2@@std@@QEAAX_KAEBV?$_List_unchecked_const_iterator@V?$_List_val@U?$_List_simple_types@I@std@@@std@@U_Iterator_base0@2@@2@@Z 00000001800162f0 f i nodejieba.obj
 0001:000152f0       ?assign@?$vector@V?$_List_unchecked_iterator@V?$_List_val@U?$_List_simple_types@U?$pair@$$CBIN@std@@@std@@@std@@@std@@V?$allocator@V?$_List_unchecked_iterator@V?$_List_val@U?$_List_simple_types@U?$pair@$$CBIN@std@@@std@@@std@@@std@@@2@@std@@QEAAX_KAEBV?$_List_unchecked_iterator@V?$_List_val@U?$_List_simple_types@U?$pair@$$CBIN@std@@@std@@@std@@@2@@Z 00000001800162f0 f i nodejieba.obj
 0001:000152f0       ?assign@?$vector@V?$_List_unchecked_iterator@V?$_List_val@U?$_List_simple_types@U?$pair@$$CBV?$basic_string@DU?$char_traits@D@std@@V?$allocator@D@2@@std@@N@std@@@std@@@std@@@std@@V?$allocator@V?$_List_unchecked_iterator@V?$_List_val@U?$_List_simple_types@U?$pair@$$CBV?$basic_string@DU?$char_traits@D@std@@V?$allocator@D@2@@std@@N@std@@@std@@@std@@@std@@@2@@std@@QEAAX_KAEBV?$_List_unchecked_iterator@V?$_List_val@U?$_List_simple_types@U?$pair@$$CBV?$basic_string@DU?$char_traits@D@std@@V?$allocator@D@2@@std@@N@std@@@std@@@std@@@2@@Z 00000001800162f0 f i nodejieba.obj
 0001:000152f0       ?assign@?$vector@V?$_List_unchecked_iterator@V?$_List_val@U?$_List_simple_types@U?$pair@$$CBIPEAVTrieNode@cppjieba@@@std@@@std@@@std@@@std@@V?$allocator@V?$_List_unchecked_iterator@V?$_List_val@U?$_List_simple_types@U?$pair@$$CBIPEAVTrieNode@cppjieba@@@std@@@std@@@std@@@std@@@2@@std@@QEAAX_KAEBV?$_List_unchecked_iterator@V?$_List_val@U?$_List_simple_types@U?$pair@$$CBIPEAVTrieNode@cppjieba@@@std@@@std@@@std@@@2@@Z 00000001800162f0 f i nodejieba.obj
 0001:000154c0       ?_Xlen@?$deque@UDictUnit@cppjieba@@V?$allocator@UDictUnit@cppjieba@@@std@@@std@@IEBAXXZ 00000001800164c0 f i nodejieba.obj
 0001:000154e0       ?_Change_array@?$vector@UWord@cppjieba@@V?$allocator@UWord@cppjieba@@@std@@@std@@AEAAXQEAUWord@cppjieba@@_K1@Z 00000001800164e0 f i nodejieba.obj
 0001:000155b0       ??1_Sentry_base@?$basic_ostream@DU?$char_traits@D@std@@@std@@QEAA@XZ 00000001800165b0 f i nodejieba.obj
 0001:000155b0       ??1_Sentry_base@?$basic_istream@DU?$char_traits@D@std@@@std@@QEAA@XZ 00000001800165b0 f i nodejieba.obj
 0001:000155e0       ?_Rep@?$num_put@DV?$ostreambuf_iterator@DU?$char_traits@D@std@@@std@@@std@@AEBA?AV?$ostreambuf_iterator@DU?$char_traits@D@std@@@2@V32@D_K@Z 00000001800165e0 f i nodejieba.obj
 0001:00015690       ?_Iput@?$num_put@DV?$ostreambuf_iterator@DU?$char_traits@D@std@@@std@@@std@@AEBA?AV?$ostreambuf_iterator@DU?$char_traits@D@std@@@2@V32@AEAVios_base@2@DPEAD_K@Z 0000000180016690 f i nodejieba.obj
 0001:00015d20       ?_Fput@?$num_put@DV?$ostreambuf_iterator@DU?$char_traits@D@std@@@std@@@std@@AEBA?AV?$ostreambuf_iterator@DU?$char_traits@D@std@@@2@V32@AEAVios_base@2@DPEBD_K@Z 0000000180016d20 f i nodejieba.obj
 0001:00016430       ?_Xran@?$_String_val@U?$_Simple_types@D@std@@@std@@SAXXZ 0000000180017430 f i nodejieba.obj
 0001:00016450       ?flush@?$basic_ostream@DU?$char_traits@D@std@@@std@@QEAAAEAV12@XZ 0000000180017450 f i nodejieba.obj
 0001:00016530       ??0?$basic_streambuf@DU?$char_traits@D@std@@@std@@IEAA@XZ 0000000180017530 f i nodejieba.obj
 0001:000165e0       ?init@?$basic_ios@DU?$char_traits@D@std@@@std@@IEAAXPEAV?$basic_streambuf@DU?$char_traits@D@std@@@2@_N@Z 00000001800175e0 f i nodejieba.obj
 0001:000166b0       ??_E?$numpunct@D@std@@MEAAPEAXI@Z 00000001800176b0 f i * CIL library *:* CIL module *
 0001:000166b0       ??_G?$numpunct@D@std@@MEAAPEAXI@Z 00000001800176b0 f i nodejieba.obj
 0001:00016710       ?widen@?$basic_ios@DU?$char_traits@D@std@@@std@@QEBADD@Z 0000000180017710 f i nodejieba.obj
 0001:00016790       ?_Extract@?$_Tree_val@U?$_Tree_simple_types@U?$pair@$$CBV?$basic_string@DU?$char_traits@D@std@@V?$allocator@D@2@@std@@U_Word@TextRankExtractor@cppjieba@@@std@@@std@@@std@@QEAAPEAU?$_Tree_node@U?$pair@$$CBV?$basic_string@DU?$char_traits@D@std@@V?$allocator@D@2@@std@@U_Word@TextRankExtractor@cppjieba@@@std@@PEAX@2@V?$_Tree_const_iterator@V?$_Tree_val@U?$_Tree_simple_types@U?$pair@$$CBV?$basic_string@DU?$char_traits@D@std@@V?$allocator@D@2@@std@@U_Word@TextRankExtractor@cppjieba@@@std@@@std@@@std@@@2@@Z 0000000180017790 f i nodejieba.obj
 0001:00016790       ?_Extract@?$_Tree_val@U?$_Tree_simple_types@U?$pair@$$CBV?$basic_string@DU?$char_traits@D@std@@V?$allocator@D@2@@std@@V?$map@V?$basic_string@DU?$char_traits@D@std@@V?$allocator@D@2@@std@@NU?$less@V?$basic_string@DU?$char_traits@D@std@@V?$allocator@D@2@@std@@@2@V?$allocator@U?$pair@$$CBV?$basic_string@DU?$char_traits@D@std@@V?$allocator@D@2@@std@@N@std@@@2@@2@@std@@@std@@@std@@QEAAPEAU?$_Tree_node@U?$pair@$$CBV?$basic_string@DU?$char_traits@D@std@@V?$allocator@D@2@@std@@V?$map@V?$basic_string@DU?$char_traits@D@std@@V?$allocator@D@2@@std@@NU?$less@V?$basic_string@DU?$char_traits@D@std@@V?$allocator@D@2@@std@@@2@V?$allocator@U?$pair@$$CBV?$basic_string@DU?$char_traits@D@std@@V?$allocator@D@2@@std@@N@std@@@2@@2@@std@@PEAX@2@V?$_Tree_const_iterator@V?$_Tree_val@U?$_Tree_simple_types@U?$pair@$$CBV?$basic_string@DU?$char_traits@D@std@@V?$allocator@D@2@@std@@V?$map@V?$basic_string@DU?$char_traits@D@std@@V?$allocator@D@2@@std@@NU?$less@V?$basic_string@DU?$char_traits@D@std@@V?$allocator@D@2@@std@@@2@V?$allocator@U?$pair@$$CBV?$basic_string@DU?$char_traits@D@std@@V?$allocator@D@2@@std@@N@std@@@2@@2@@std@@@std@@@std@@@2@@Z 0000000180017790 f i nodejieba.obj
 0001:00016790       ?_Extract@?$_Tree_val@U?$_Tree_simple_types@V?$basic_string@DU?$char_traits@D@std@@V?$allocator@D@2@@std@@@std@@@std@@QEAAPEAU?$_Tree_node@V?$basic_string@DU?$char_traits@D@std@@V?$allocator@D@2@@std@@PEAX@2@V?$_Tree_const_iterator@V?$_Tree_val@U?$_Tree_simple_types@V?$basic_string@DU?$char_traits@D@std@@V?$allocator@D@2@@std@@@std@@@std@@@2@@Z 0000000180017790 f i nodejieba.obj
 0001:00016790       ?_Extract@?$_Tree_val@U?$_Tree_simple_types@U?$pair@$$CBV?$basic_string@DU?$char_traits@D@std@@V?$allocator@D@2@@std@@UWord@KeywordExtractor@cppjieba@@@std@@@std@@@std@@QEAAPEAU?$_Tree_node@U?$pair@$$CBV?$basic_string@DU?$char_traits@D@std@@V?$allocator@D@2@@std@@UWord@KeywordExtractor@cppjieba@@@std@@PEAX@2@V?$_Tree_const_iterator@V?$_Tree_val@U?$_Tree_simple_types@U?$pair@$$CBV?$basic_string@DU?$char_traits@D@std@@V?$allocator@D@2@@std@@UWord@KeywordExtractor@cppjieba@@@std@@@std@@@std@@@2@@Z 0000000180017790 f i nodejieba.obj
 0001:00016790       ?_Extract@?$_Tree_val@U?$_Tree_simple_types@U?$pair@$$CBV?$basic_string@DU?$char_traits@D@std@@V?$allocator@D@2@@std@@N@std@@@std@@@std@@QEAAPEAU?$_Tree_node@U?$pair@$$CBV?$basic_string@DU?$char_traits@D@std@@V?$allocator@D@2@@std@@N@std@@PEAX@2@V?$_Tree_const_iterator@V?$_Tree_val@U?$_Tree_simple_types@U?$pair@$$CBV?$basic_string@DU?$char_traits@D@std@@V?$allocator@D@2@@std@@N@std@@@std@@@std@@@2@@Z 0000000180017790 f i nodejieba.obj
 0001:00016c20       ?_Erase@?$_Tree@V?$_Tmap_traits@V?$basic_string@DU?$char_traits@D@std@@V?$allocator@D@2@@std@@UWord@KeywordExtractor@cppjieba@@U?$less@V?$basic_string@DU?$char_traits@D@std@@V?$allocator@D@2@@std@@@2@V?$allocator@U?$pair@$$CBV?$basic_string@DU?$char_traits@D@std@@V?$allocator@D@2@@std@@UWord@KeywordExtractor@cppjieba@@@std@@@2@$0A@@std@@@std@@IEAAXPEAU?$_Tree_node@U?$pair@$$CBV?$basic_string@DU?$char_traits@D@std@@V?$allocator@D@2@@std@@UWord@KeywordExtractor@cppjieba@@@std@@PEAX@2@@Z 0000000180017c20 f i nodejieba.obj
 0001:00016c20       ?_Erase@?$_Tree@V?$_Tmap_traits@V?$basic_string@DU?$char_traits@D@std@@V?$allocator@D@2@@std@@U_Word@TextRankExtractor@cppjieba@@U?$less@V?$basic_string@DU?$char_traits@D@std@@V?$allocator@D@2@@std@@@2@V?$allocator@U?$pair@$$CBV?$basic_string@DU?$char_traits@D@std@@V?$allocator@D@2@@std@@U_Word@TextRankExtractor@cppjieba@@@std@@@2@$0A@@std@@@std@@IEAAXPEAU?$_Tree_node@U?$pair@$$CBV?$basic_string@DU?$char_traits@D@std@@V?$allocator@D@2@@std@@U_Word@TextRankExtractor@cppjieba@@@std@@PEAX@2@@Z 0000000180017c20 f i nodejieba.obj
 0001:00016c80       ?_Erase@?$_Tree@V?$_Tmap_traits@V?$basic_string@DU?$char_traits@D@std@@V?$allocator@D@2@@std@@NU?$less@V?$basic_string@DU?$char_traits@D@std@@V?$allocator@D@2@@std@@@2@V?$allocator@U?$pair@$$CBV?$basic_string@DU?$char_traits@D@std@@V?$allocator@D@2@@std@@N@std@@@2@$0A@@std@@@std@@IEAAXPEAU?$_Tree_node@U?$pair@$$CBV?$basic_string@DU?$char_traits@D@std@@V?$allocator@D@2@@std@@N@std@@PEAX@2@@Z 0000000180017c80 f i nodejieba.obj
 0001:00016d40       ?_Erase@?$_Tree@V?$_Tmap_traits@V?$basic_string@DU?$char_traits@D@std@@V?$allocator@D@2@@std@@V?$map@V?$basic_string@DU?$char_traits@D@std@@V?$allocator@D@2@@std@@NU?$less@V?$basic_string@DU?$char_traits@D@std@@V?$allocator@D@2@@std@@@2@V?$allocator@U?$pair@$$CBV?$basic_string@DU?$char_traits@D@std@@V?$allocator@D@2@@std@@N@std@@@2@@2@U?$less@V?$basic_string@DU?$char_traits@D@std@@V?$allocator@D@2@@std@@@2@V?$allocator@U?$pair@$$CBV?$basic_string@DU?$char_traits@D@std@@V?$allocator@D@2@@std@@V?$map@V?$basic_string@DU?$char_traits@D@std@@V?$allocator@D@2@@std@@NU?$less@V?$basic_string@DU?$char_traits@D@std@@V?$allocator@D@2@@std@@@2@V?$allocator@U?$pair@$$CBV?$basic_string@DU?$char_traits@D@std@@V?$allocator@D@2@@std@@N@std@@@2@@2@@std@@@2@$0A@@std@@@std@@IEAAXPEAU?$_Tree_node@U?$pair@$$CBV?$basic_string@DU?$char_traits@D@std@@V?$allocator@D@2@@std@@V?$map@V?$basic_string@DU?$char_traits@D@std@@V?$allocator@D@2@@std@@NU?$less@V?$basic_string@DU?$char_traits@D@std@@V?$allocator@D@2@@std@@@2@V?$allocator@U?$pair@$$CBV?$basic_string@DU?$char_traits@D@std@@V?$allocator@D@2@@std@@N@std@@@2@@2@@std@@PEAX@2@@Z 0000000180017d40 f i nodejieba.obj
 0001:00016da0       ?_Erase@?$_Tree@V?$_Tset_traits@V?$basic_string@DU?$char_traits@D@std@@V?$allocator@D@2@@std@@U?$less@V?$basic_string@DU?$char_traits@D@std@@V?$allocator@D@2@@std@@@2@V?$allocator@V?$basic_string@DU?$char_traits@D@std@@V?$allocator@D@2@@std@@@2@$0A@@std@@@std@@IEAAXPEAU?$_Tree_node@V?$basic_string@DU?$char_traits@D@std@@V?$allocator@D@2@@std@@PEAX@2@@Z 0000000180017da0 f i nodejieba.obj
 0001:00016e60       ??$use_facet@V?$ctype@D@std@@@std@@YAAEBV?$ctype@D@0@AEBVlocale@0@@Z 0000000180017e60 f i nodejieba.obj
 0001:00016ff0       ??$New@VString@v8@@V?$basic_string@DU?$char_traits@D@std@@V?$allocator@D@2@@std@@@Nan@@YA?AV?$MaybeLocal@VString@v8@@@v8@@V?$basic_string@DU?$char_traits@D@std@@V?$allocator@D@2@@std@@@Z 0000000180017ff0 f i nodejieba.obj
 0001:000170f0       ??$?6U?$char_traits@D@std@@@std@@YAAEAV?$basic_ostream@DU?$char_traits@D@std@@@0@AEAV10@PEBD@Z 00000001800180f0 f i nodejieba.obj
 0001:000173b0       ??$?HDU?$char_traits@D@std@@V?$allocator@D@1@@std@@YA?AV?$basic_string@DU?$char_traits@D@std@@V?$allocator@D@2@@0@AEBV10@0@Z 00000001800183b0 f i nodejieba.obj
 0001:00017460       ??$IsIn@IV?$unordered_set@IU?$hash@I@std@@U?$equal_to@I@2@V?$allocator@I@2@@std@@@std@@YA_NAEBV?$unordered_set@IU?$hash@I@std@@U?$equal_to@I@2@V?$allocator@I@2@@0@AEBI@Z 0000000180018460 f i nodejieba.obj
 0001:00017500       ??$partial_sort@V?$_Vector_iterator@V?$_Vector_val@U?$_Simple_types@UWord@KeywordExtractor@cppjieba@@@std@@@std@@@std@@P6A_NAEBUWord@KeywordExtractor@cppjieba@@0@Z@std@@YAXV?$_Vector_iterator@V?$_Vector_val@U?$_Simple_types@UWord@KeywordExtractor@cppjieba@@@std@@@std@@@0@00P6A_NAEBUWord@KeywordExtractor@cppjieba@@1@Z@Z 0000000180018500 f i nodejieba.obj
 0001:00017500       ??$partial_sort@V?$_Vector_iterator@V?$_Vector_val@U?$_Simple_types@U_Word@TextRankExtractor@cppjieba@@@std@@@std@@@std@@P6A_NAEBU_Word@TextRankExtractor@cppjieba@@0@Z@std@@YAXV?$_Vector_iterator@V?$_Vector_val@U?$_Simple_types@U_Word@TextRankExtractor@cppjieba@@@std@@@std@@@0@00P6A_NAEBU_Word@TextRankExtractor@cppjieba@@1@Z@Z 0000000180018500 f i nodejieba.obj
 0001:000178c0       ??$_Resize@V<lambda_335ee461a7d6ac5a99ac69c10a4d6922>@@@?$vector@U_Word@TextRankExtractor@cppjieba@@V?$allocator@U_Word@TextRankExtractor@cppjieba@@@std@@@std@@AEAAX_KV<lambda_335ee461a7d6ac5a99ac69c10a4d6922>@@@Z 00000001800188c0 f i nodejieba.obj
 0001:000178c0       ??$_Resize@V<lambda_d3633bebb2b235ea303d41e56488f6d6>@@@?$vector@UWord@KeywordExtractor@cppjieba@@V?$allocator@UWord@KeywordExtractor@cppjieba@@@std@@@std@@AEAAX_KV<lambda_d3633bebb2b235ea303d41e56488f6d6>@@@Z 00000001800188c0 f i nodejieba.obj
 0001:00017ad0       ??$_Emplace_reallocate@AEBUWord@KeywordExtractor@cppjieba@@@?$vector@UWord@KeywordExtractor@cppjieba@@V?$allocator@UWord@KeywordExtractor@cppjieba@@@std@@@std@@QEAAPEAUWord@KeywordExtractor@cppjieba@@QEAU234@AEBU234@@Z 0000000180018ad0 f i nodejieba.obj
 0001:00017ad0       ??$_Emplace_reallocate@AEBU_Word@TextRankExtractor@cppjieba@@@?$vector@U_Word@TextRankExtractor@cppjieba@@V?$allocator@U_Word@TextRankExtractor@cppjieba@@@std@@@std@@QEAAPEAU_Word@TextRankExtractor@cppjieba@@QEAU234@AEBU234@@Z 0000000180018ad0 f i nodejieba.obj
 0001:00017c50       ??$_Resize@V<lambda_a46a035c1a65e960d545ef2debaf34ef>@@@?$vector@_KV?$allocator@_K@std@@@std@@AEAAX_KV<lambda_a46a035c1a65e960d545ef2debaf34ef>@@@Z 0000000180018c50 f i nodejieba.obj
 0001:00017dc0       ??$_Emplace_reallocate@AEB_K@?$vector@_KV?$allocator@_K@std@@@std@@QEAAPEA_KQEA_KAEB_K@Z 0000000180018dc0 f i nodejieba.obj
 0001:00017f20       ??$_Emplace_reallocate@PEAV?$unordered_map@INU?$hash@I@std@@U?$equal_to@I@2@V?$allocator@U?$pair@$$CBIN@std@@@2@@std@@@?$vector@PEAV?$unordered_map@INU?$hash@I@std@@U?$equal_to@I@2@V?$allocator@U?$pair@$$CBIN@std@@@2@@std@@V?$allocator@PEAV?$unordered_map@INU?$hash@I@std@@U?$equal_to@I@2@V?$allocator@U?$pair@$$CBIN@std@@@2@@std@@@2@@std@@QEAAPEAPEAV?$unordered_map@INU?$hash@I@std@@U?$equal_to@I@2@V?$allocator@U?$pair@$$CBIN@std@@@2@@1@QEAPEAV21@$$QEAPEAV21@@Z 0000000180018f20 f i nodejieba.obj
 0001:00017f20       ??$_Emplace_reallocate@PEBUDictUnit@cppjieba@@@?$vector@PEBUDictUnit@cppjieba@@V?$allocator@PEBUDictUnit@cppjieba@@@std@@@std@@QEAAPEAPEBUDictUnit@cppjieba@@QEAPEBU23@$$QEAPEBU23@@Z 0000000180018f20 f i nodejieba.obj
 0001:000180c0       ??$construct@UDictUnit@cppjieba@@AEBU12@@?$_Default_allocator_traits@V?$allocator@UDictUnit@cppjieba@@@std@@@std@@SAXAEAV?$allocator@UDictUnit@cppjieba@@@1@QEAUDictUnit@cppjieba@@AEBU34@@Z 00000001800190c0 f i nodejieba.obj
 0001:00018130       ??$_Emplace_reallocate@AEBUDictUnit@cppjieba@@@?$vector@UDictUnit@cppjieba@@V?$allocator@UDictUnit@cppjieba@@@std@@@std@@QEAAPEAUDictUnit@cppjieba@@QEAU23@AEBU23@@Z 0000000180019130 f i nodejieba.obj
 0001:00018350       ??$_Resize@V<lambda_0f00ca6db7ac50e8063d8dbc48632814>@@@?$vector@UDag@cppjieba@@V?$allocator@UDag@cppjieba@@@std@@@std@@AEAAX_KV<lambda_0f00ca6db7ac50e8063d8dbc48632814>@@@Z 0000000180019350 f i nodejieba.obj
 0001:00018640       ??$_Emplace_reallocate@AEBV?$LocalVector@I@limonp@@@?$vector@V?$LocalVector@I@limonp@@V?$allocator@V?$LocalVector@I@limonp@@@std@@@std@@QEAAPEAV?$LocalVector@I@limonp@@QEAV23@AEBV23@@Z 0000000180019640 f i nodejieba.obj
 0001:00018920       ??$_Emplace_reallocate@UWord@cppjieba@@@?$vector@UWord@cppjieba@@V?$allocator@UWord@cppjieba@@@std@@@std@@QEAAPEAUWord@cppjieba@@QEAU23@$$QEAU23@@Z 0000000180019920 f i nodejieba.obj
 0001:00018b10       ??$_Emplace_reallocate@AEBUWordRange@cppjieba@@@?$vector@UWordRange@cppjieba@@V?$allocator@UWordRange@cppjieba@@@std@@@std@@QEAAPEAUWordRange@cppjieba@@QEAU23@AEBU23@@Z 0000000180019b10 f i nodejieba.obj
 0001:00018cf0       ??$_Emplace_reallocate@U?$pair@V?$basic_string@DU?$char_traits@D@std@@V?$allocator@D@2@@std@@V12@@std@@@?$vector@U?$pair@V?$basic_string@DU?$char_traits@D@std@@V?$allocator@D@2@@std@@V12@@std@@V?$allocator@U?$pair@V?$basic_string@DU?$char_traits@D@std@@V?$allocator@D@2@@std@@V12@@std@@@2@@std@@QEAAPEAU?$pair@V?$basic_string@DU?$char_traits@D@std@@V?$allocator@D@2@@std@@V12@@1@QEAU21@$$QEAU21@@Z 0000000180019cf0 f i nodejieba.obj
 0001:00018f00       ??$_Emplace_reallocate@U?$pair@V?$basic_string@DU?$char_traits@D@std@@V?$allocator@D@2@@std@@N@std@@@?$vector@U?$pair@V?$basic_string@DU?$char_traits@D@std@@V?$allocator@D@2@@std@@N@std@@V?$allocator@U?$pair@V?$basic_string@DU?$char_traits@D@std@@V?$allocator@D@2@@std@@N@std@@@2@@std@@QEAAPEAU?$pair@V?$basic_string@DU?$char_traits@D@std@@V?$allocator@D@2@@std@@N@1@QEAU21@$$QEAU21@@Z 0000000180019f00 f i nodejieba.obj
 0001:00019140       ??$_Resize@V<lambda_4bad70e8c3e06c245281339bf8eae5be>@@@?$vector@V?$basic_string@DU?$char_traits@D@std@@V?$allocator@D@2@@std@@V?$allocator@V?$basic_string@DU?$char_traits@D@std@@V?$allocator@D@2@@std@@@2@@std@@AEAAX_KV<lambda_4bad70e8c3e06c245281339bf8eae5be>@@@Z 000000018001a140 f i nodejieba.obj
 0001:000192f0       ??$_Emplace_reallocate@AEBV?$basic_string@DU?$char_traits@D@std@@V?$allocator@D@2@@std@@@?$vector@V?$basic_string@DU?$char_traits@D@std@@V?$allocator@D@2@@std@@V?$allocator@V?$basic_string@DU?$char_traits@D@std@@V?$allocator@D@2@@std@@@2@@std@@QEAAPEAV?$basic_string@DU?$char_traits@D@std@@V?$allocator@D@2@@1@QEAV21@AEBV21@@Z 000000018001a2f0 f i nodejieba.obj
 0001:00019510       ??$use_facet@V?$codecvt@DDU_Mbstatet@@@std@@@std@@YAAEBV?$codecvt@DDU_Mbstatet@@@0@AEBVlocale@0@@Z 000000018001a510 f i nodejieba.obj
 0001:00019680       ??$use_facet@V?$num_put@DV?$ostreambuf_iterator@DU?$char_traits@D@std@@@std@@@std@@@std@@YAAEBV?$num_put@DV?$ostreambuf_iterator@DU?$char_traits@D@std@@@std@@@0@AEBVlocale@0@@Z 000000018001a680 f i nodejieba.obj
 0001:000197f0       ??$_Eqrange@V?$basic_string@DU?$char_traits@D@std@@V?$allocator@D@2@@std@@@?$_Tree@V?$_Tset_traits@V?$basic_string@DU?$char_traits@D@std@@V?$allocator@D@2@@std@@U?$less@V?$basic_string@DU?$char_traits@D@std@@V?$allocator@D@2@@std@@@2@V?$allocator@V?$basic_string@DU?$char_traits@D@std@@V?$allocator@D@2@@std@@@2@$0A@@std@@@std@@IEBA?AU?$pair@V?$_Tree_const_iterator@V?$_Tree_val@U?$_Tree_simple_types@V?$basic_string@DU?$char_traits@D@std@@V?$allocator@D@2@@std@@@std@@@std@@@std@@V12@@1@AEBV?$basic_string@DU?$char_traits@D@std@@V?$allocator@D@2@@1@@Z 000000018001a7f0 f i nodejieba.obj
 0001:00019970       ??$_Destroy_range@V?$allocator@UWord@cppjieba@@@std@@@std@@YAXPEAUWord@cppjieba@@0AEAV?$allocator@UWord@cppjieba@@@0@@Z 000000018001a970 f i nodejieba.obj
 0001:00019a00       ??$use_facet@V?$numpunct@D@std@@@std@@YAAEBV?$numpunct@D@0@AEBVlocale@0@@Z 000000018001aa00 f i nodejieba.obj
 0001:00019b20       ??$_Destroy_range@V?$allocator@V?$basic_string@DU?$char_traits@D@std@@V?$allocator@D@2@@std@@@std@@@std@@YAXPEAV?$basic_string@DU?$char_traits@D@std@@V?$allocator@D@2@@0@0AEAV?$allocator@V?$basic_string@DU?$char_traits@D@std@@V?$allocator@D@2@@std@@@0@@Z 000000018001ab20 f i nodejieba.obj
 0001:00019bb0       ??$_Reallocate_grow_by@V<lambda_319d5e083f45f90dcdce5dce53cbb275>@@D@?$basic_string@DU?$char_traits@D@std@@V?$allocator@D@2@@std@@QEAAAEAV01@_KV<lambda_319d5e083f45f90dcdce5dce53cbb275>@@D@Z 000000018001abb0 f i nodejieba.obj
 0001:00019d10       ??$_Reallocate_grow_by@V<lambda_e1befb086ad3257e3f042a63030725f7>@@_KD@?$basic_string@DU?$char_traits@D@std@@V?$allocator@D@2@@std@@QEAAAEAV01@_KV<lambda_e1befb086ad3257e3f042a63030725f7>@@_KD@Z 000000018001ad10 f i nodejieba.obj
 0001:00019e90       ??$_Reallocate_grow_by@V<lambda_65e615be2a453ca0576c979606f46740>@@PEBD_K@?$basic_string@DU?$char_traits@D@std@@V?$allocator@D@2@@std@@QEAAAEAV01@_KV<lambda_65e615be2a453ca0576c979606f46740>@@PEBD_K@Z 000000018001ae90 f i nodejieba.obj
 0001:0001a010       ??$_Fill_unchecked@PEAV?$_List_unchecked_iterator@V?$_List_val@U?$_List_simple_types@U?$pair@$$CBIN@std@@@std@@@std@@@std@@V12@@std@@YAXPEAV?$_List_unchecked_iterator@V?$_List_val@U?$_List_simple_types@U?$pair@$$CBIN@std@@@std@@@std@@@0@0AEBV10@@Z 000000018001b010 f i nodejieba.obj
 0001:0001a010       ??$_Fill_unchecked@PEAV?$_List_unchecked_const_iterator@V?$_List_val@U?$_List_simple_types@I@std@@@std@@U_Iterator_base0@2@@std@@V12@@std@@YAXPEAV?$_List_unchecked_const_iterator@V?$_List_val@U?$_List_simple_types@I@std@@@std@@U_Iterator_base0@2@@0@0AEBV10@@Z 000000018001b010 f i nodejieba.obj
 0001:0001a010       ??$_Fill_unchecked@PEAV?$_List_unchecked_iterator@V?$_List_val@U?$_List_simple_types@U?$pair@$$CBIPEAVTrieNode@cppjieba@@@std@@@std@@@std@@@std@@V12@@std@@YAXPEAV?$_List_unchecked_iterator@V?$_List_val@U?$_List_simple_types@U?$pair@$$CBIPEAVTrieNode@cppjieba@@@std@@@std@@@std@@@0@0AEBV10@@Z 000000018001b010 f i nodejieba.obj
 0001:0001a010       ??$_Fill_unchecked@PEAV?$_List_unchecked_iterator@V?$_List_val@U?$_List_simple_types@U?$pair@$$CBV?$basic_string@DU?$char_traits@D@std@@V?$allocator@D@2@@std@@N@std@@@std@@@std@@@std@@V12@@std@@YAXPEAV?$_List_unchecked_iterator@V?$_List_val@U?$_List_simple_types@U?$pair@$$CBV?$basic_string@DU?$char_traits@D@std@@V?$allocator@D@2@@std@@N@std@@@std@@@std@@@0@0AEBV10@@Z 000000018001b010 f i nodejieba.obj
 0001:0001a010       ??$_Fill_unchecked@PEAV?$_List_unchecked_const_iterator@V?$_List_val@U?$_List_simple_types@V?$basic_string@DU?$char_traits@D@std@@V?$allocator@D@2@@std@@@std@@@std@@U_Iterator_base0@2@@std@@V12@@std@@YAXPEAV?$_List_unchecked_const_iterator@V?$_List_val@U?$_List_simple_types@V?$basic_string@DU?$char_traits@D@std@@V?$allocator@D@2@@std@@@std@@@std@@U_Iterator_base0@2@@0@0AEBV10@@Z 000000018001b010 f i nodejieba.obj
 0001:0001a0b0       ??$_Destroy_range@V?$allocator@U?$pair@V?$basic_string@DU?$char_traits@D@std@@V?$allocator@D@2@@std@@N@std@@@std@@@std@@YAXPEAU?$pair@V?$basic_string@DU?$char_traits@D@std@@V?$allocator@D@2@@std@@N@0@0AEAV?$allocator@U?$pair@V?$basic_string@DU?$char_traits@D@std@@V?$allocator@D@2@@std@@N@std@@@0@@Z 000000018001b0b0 f i nodejieba.obj
 0001:0001a140       ??$_Uninitialized_move@PEAUWord@KeywordExtractor@cppjieba@@PEAU123@V?$allocator@UWord@KeywordExtractor@cppjieba@@@std@@@std@@YAPEAUWord@KeywordExtractor@cppjieba@@QEAU123@0PEAU123@AEAV?$allocator@UWord@KeywordExtractor@cppjieba@@@0@@Z 000000018001b140 f i nodejieba.obj
 0001:0001a140       ??$_Uninitialized_move@PEAU_Word@TextRankExtractor@cppjieba@@PEAU123@V?$allocator@U_Word@TextRankExtractor@cppjieba@@@std@@@std@@YAPEAU_Word@TextRankExtractor@cppjieba@@QEAU123@0PEAU123@AEAV?$allocator@U_Word@TextRankExtractor@cppjieba@@@0@@Z 000000018001b140 f i nodejieba.obj
 0001:0001a1f0       ??$_Uninitialized_move@PEAUWord@cppjieba@@PEAU12@V?$allocator@UWord@cppjieba@@@std@@@std@@YAPEAUWord@cppjieba@@QEAU12@0PEAU12@AEAV?$allocator@UWord@cppjieba@@@0@@Z 000000018001b1f0 f i nodejieba.obj
 0001:0001a280       ??$_Reallocate_grow_by@V<lambda_b986da8d428e4af07c64af60eec09b61>@@_K_KD@?$basic_string@DU?$char_traits@D@std@@V?$allocator@D@2@@std@@QEAAAEAV01@_KV<lambda_b986da8d428e4af07c64af60eec09b61>@@_K2D@Z 000000018001b280 f i nodejieba.obj
 0001:0001a430       ??1_Word@TextRankExtractor@cppjieba@@QEAA@XZ 000000018001b430 f i nodejieba.obj
 0001:0001a430       ??1Word@KeywordExtractor@cppjieba@@QEAA@XZ 000000018001b430 f i nodejieba.obj
 0001:0001a4e0       ??1?$pair@$$CBV?$basic_string@DU?$char_traits@D@std@@V?$allocator@D@2@@std@@UWord@KeywordExtractor@cppjieba@@@std@@QEAA@XZ 000000018001b4e0 f i nodejieba.obj
 0001:0001a4e0       ??1?$pair@$$CBV?$basic_string@DU?$char_traits@D@std@@V?$allocator@D@2@@std@@U_Word@TextRankExtractor@cppjieba@@@std@@QEAA@XZ 000000018001b4e0 f i nodejieba.obj
 0001:0001a550       ??1?$pair@$$CBV?$basic_string@DU?$char_traits@D@std@@V?$allocator@D@2@@std@@V?$map@V?$basic_string@DU?$char_traits@D@std@@V?$allocator@D@2@@std@@NU?$less@V?$basic_string@DU?$char_traits@D@std@@V?$allocator@D@2@@std@@@2@V?$allocator@U?$pair@$$CBV?$basic_string@DU?$char_traits@D@std@@V?$allocator@D@2@@std@@N@std@@@2@@2@@std@@QEAA@XZ 000000018001b550 f i nodejieba.obj
 0001:0001a5e0       ??1?$unique_ptr@V_Facet_base@std@@U?$default_delete@V_Facet_base@std@@@2@@std@@QEAA@XZ 000000018001b5e0 f i nodejieba.obj
 0001:0001a600       ?_Getcat@?$numpunct@D@std@@SA_KPEAPEBVfacet@locale@2@PEBV42@@Z 000000018001b600 f i nodejieba.obj
 0001:0001a7a0       ?_Change_array@?$vector@_KV?$allocator@_K@std@@@std@@AEAAXQEA_K_K1@Z 000000018001b7a0 f i nodejieba.obj
 0001:0001a830       ??0?$vector@_KV?$allocator@_K@std@@@std@@QEAA@AEBV01@@Z 000000018001b830 f i nodejieba.obj
 0001:0001a920       ?_Change_array@?$vector@V?$basic_string@DU?$char_traits@D@std@@V?$allocator@D@2@@std@@V?$allocator@V?$basic_string@DU?$char_traits@D@std@@V?$allocator@D@2@@std@@@2@@std@@AEAAXQEAV?$basic_string@DU?$char_traits@D@std@@V?$allocator@D@2@@2@_K1@Z 000000018001b920 f i nodejieba.obj
 0001:0001a9c0       ?_Umove_if_noexcept@?$vector@V?$basic_string@DU?$char_traits@D@std@@V?$allocator@D@2@@std@@V?$allocator@V?$basic_string@DU?$char_traits@D@std@@V?$allocator@D@2@@std@@@2@@std@@AEAAXPEAV?$basic_string@DU?$char_traits@D@std@@V?$allocator@D@2@@2@00@Z 000000018001b9c0 f i nodejieba.obj
 0001:0001aa20       ?_Xlen@?$basic_string@DU?$char_traits@D@std@@V?$allocator@D@2@@std@@SAXXZ 000000018001ba20 f i nodejieba.obj
 0001:0001aa40       ?reserve@?$basic_string@DU?$char_traits@D@std@@V?$allocator@D@2@@std@@QEAAX_K@Z 000000018001ba40 f i nodejieba.obj
 0001:0001ac00       ?put@?$basic_ostream@DU?$char_traits@D@std@@@std@@QEAAAEAV12@D@Z 000000018001bc00 f i nodejieba.obj
 0001:0001ad50       ??$_Immortalize_impl@V_Iostream_error_category@std@@@std@@YAHPEAX0PEAPEAX@Z 000000018001bd50 f i nodejieba.obj
 0001:0001ad70       ??$_Insert_string@DU?$char_traits@D@std@@_K@std@@YAAEAV?$basic_ostream@DU?$char_traits@D@std@@@0@AEAV10@QEBD_K@Z 000000018001bd70 f i nodejieba.obj
 0001:0001b020       ??$_Insert@AEBIU_Not_a_node_tag@std@@@?$_Hash@V?$_Uset_traits@IV?$_Uhash_compare@IU?$hash@I@std@@U?$equal_to@I@2@@std@@V?$allocator@I@2@$0A@@std@@@std@@IEAA?AU?$pair@V?$_List_const_iterator@V?$_List_val@U?$_List_simple_types@I@std@@@std@@@std@@_N@1@AEBIU_Not_a_node_tag@1@@Z 000000018001c020 f i nodejieba.obj
 0001:0001b1f0       ??$getline@DU?$char_traits@D@std@@V?$allocator@D@2@@std@@YAAEAV?$basic_istream@DU?$char_traits@D@std@@@0@$$QEAV10@AEAV?$basic_string@DU?$char_traits@D@std@@V?$allocator@D@2@@0@D@Z 000000018001c1f0 f i nodejieba.obj
 0001:0001b4c0       ??$_Sort_unchecked@PEAUDictUnit@cppjieba@@P6A_NAEBU12@0@Z@std@@YAXPEAUDictUnit@cppjieba@@0_JP6A_NAEBU12@2@Z@Z 000000018001c4c0 f i nodejieba.obj
 0001:0001b830       ??$_Insert_nohint@AEBV?$basic_string@DU?$char_traits@D@std@@V?$allocator@D@2@@std@@U_Not_a_node_tag@2@@?$_Tree@V?$_Tset_traits@V?$basic_string@DU?$char_traits@D@std@@V?$allocator@D@2@@std@@U?$less@V?$basic_string@DU?$char_traits@D@std@@V?$allocator@D@2@@std@@@2@V?$allocator@V?$basic_string@DU?$char_traits@D@std@@V?$allocator@D@2@@std@@@2@$0A@@std@@@std@@IEAA?AU?$pair@V?$_Tree_const_iterator@V?$_Tree_val@U?$_Tree_simple_types@V?$basic_string@DU?$char_traits@D@std@@V?$allocator@D@2@@std@@@std@@@std@@@std@@_N@1@_NAEBV?$basic_string@DU?$char_traits@D@std@@V?$allocator@D@2@@1@U_Not_a_node_tag@1@@Z 000000018001c830 f i nodejieba.obj
 0001:0001ba20       ??$_Insert@AEBV?$basic_string@DU?$char_traits@D@std@@V?$allocator@D@2@@std@@U_Not_a_node_tag@2@@?$_Hash@V?$_Uset_traits@V?$basic_string@DU?$char_traits@D@std@@V?$allocator@D@2@@std@@V?$_Uhash_compare@V?$basic_string@DU?$char_traits@D@std@@V?$allocator@D@2@@std@@U?$hash@V?$basic_string@DU?$char_traits@D@std@@V?$allocator@D@2@@std@@@2@U?$equal_to@V?$basic_string@DU?$char_traits@D@std@@V?$allocator@D@2@@std@@@2@@2@V?$allocator@V?$basic_string@DU?$char_traits@D@std@@V?$allocator@D@2@@std@@@2@$0A@@std@@@std@@IEAA?AU?$pair@V?$_List_const_iterator@V?$_List_val@U?$_List_simple_types@V?$basic_string@DU?$char_traits@D@std@@V?$allocator@D@2@@std@@@std@@@std@@@std@@_N@1@AEBV?$basic_string@DU?$char_traits@D@std@@V?$allocator@D@2@@1@U_Not_a_node_tag@1@@Z 000000018001ca20 f i nodejieba.obj
 0001:0001bc20       ??$_Try_emplace@AEBV?$basic_string@DU?$char_traits@D@std@@V?$allocator@D@2@@std@@$$V@?$map@V?$basic_string@DU?$char_traits@D@std@@V?$allocator@D@2@@std@@V?$map@V?$basic_string@DU?$char_traits@D@std@@V?$allocator@D@2@@std@@NU?$less@V?$basic_string@DU?$char_traits@D@std@@V?$allocator@D@2@@std@@@2@V?$allocator@U?$pair@$$CBV?$basic_string@DU?$char_traits@D@std@@V?$allocator@D@2@@std@@N@std@@@2@@2@U?$less@V?$basic_string@DU?$char_traits@D@std@@V?$allocator@D@2@@std@@@2@V?$allocator@U?$pair@$$CBV?$basic_string@DU?$char_traits@D@std@@V?$allocator@D@2@@std@@V?$map@V?$basic_string@DU?$char_traits@D@std@@V?$allocator@D@2@@std@@NU?$less@V?$basic_string@DU?$char_traits@D@std@@V?$allocator@D@2@@std@@@2@V?$allocator@U?$pair@$$CBV?$basic_string@DU?$char_traits@D@std@@V?$allocator@D@2@@std@@N@std@@@2@@2@@std@@@2@@std@@QEAA?AU?$pair@V?$_Tree_iterator@V?$_Tree_val@U?$_Tree_simple_types@U?$pair@$$CBV?$basic_string@DU?$char_traits@D@std@@V?$allocator@D@2@@std@@V?$map@V?$basic_string@DU?$char_traits@D@std@@V?$allocator@D@2@@std@@NU?$less@V?$basic_string@DU?$char_traits@D@std@@V?$allocator@D@2@@std@@@2@V?$allocator@U?$pair@$$CBV?$basic_string@DU?$char_traits@D@std@@V?$allocator@D@2@@std@@N@std@@@2@@2@@std@@@std@@@std@@@std@@_N@1@AEBV?$basic_string@DU?$char_traits@D@std@@V?$allocator@D@2@@1@@Z 000000018001cc20 f i nodejieba.obj
 0001:0001bdf0       ??$_Try_emplace@AEBV?$basic_string@DU?$char_traits@D@std@@V?$allocator@D@2@@std@@$$V@?$map@V?$basic_string@DU?$char_traits@D@std@@V?$allocator@D@2@@std@@UWord@KeywordExtractor@cppjieba@@U?$less@V?$basic_string@DU?$char_traits@D@std@@V?$allocator@D@2@@std@@@2@V?$allocator@U?$pair@$$CBV?$basic_string@DU?$char_traits@D@std@@V?$allocator@D@2@@std@@UWord@KeywordExtractor@cppjieba@@@std@@@2@@std@@QEAA?AU?$pair@V?$_Tree_iterator@V?$_Tree_val@U?$_Tree_simple_types@U?$pair@$$CBV?$basic_string@DU?$char_traits@D@std@@V?$allocator@D@2@@std@@UWord@KeywordExtractor@cppjieba@@@std@@@std@@@std@@@std@@_N@1@AEBV?$basic_string@DU?$char_traits@D@std@@V?$allocator@D@2@@1@@Z 000000018001cdf0 f i nodejieba.obj
 0001:0001bdf0       ??$_Try_emplace@AEBV?$basic_string@DU?$char_traits@D@std@@V?$allocator@D@2@@std@@$$V@?$map@V?$basic_string@DU?$char_traits@D@std@@V?$allocator@D@2@@std@@U_Word@TextRankExtractor@cppjieba@@U?$less@V?$basic_string@DU?$char_traits@D@std@@V?$allocator@D@2@@std@@@2@V?$allocator@U?$pair@$$CBV?$basic_string@DU?$char_traits@D@std@@V?$allocator@D@2@@std@@U_Word@TextRankExtractor@cppjieba@@@std@@@2@@std@@QEAA?AU?$pair@V?$_Tree_iterator@V?$_Tree_val@U?$_Tree_simple_types@U?$pair@$$CBV?$basic_string@DU?$char_traits@D@std@@V?$allocator@D@2@@std@@U_Word@TextRankExtractor@cppjieba@@@std@@@std@@@std@@@std@@_N@1@AEBV?$basic_string@DU?$char_traits@D@std@@V?$allocator@D@2@@1@@Z 000000018001cdf0 f i nodejieba.obj
 0001:0001bf90       ??$_Try_emplace@AEBV?$basic_string@DU?$char_traits@D@std@@V?$allocator@D@2@@std@@$$V@?$unordered_map@V?$basic_string@DU?$char_traits@D@std@@V?$allocator@D@2@@std@@NU?$hash@V?$basic_string@DU?$char_traits@D@std@@V?$allocator@D@2@@std@@@2@U?$equal_to@V?$basic_string@DU?$char_traits@D@std@@V?$allocator@D@2@@std@@@2@V?$allocator@U?$pair@$$CBV?$basic_string@DU?$char_traits@D@std@@V?$allocator@D@2@@std@@N@std@@@2@@std@@QEAA?AU?$pair@V?$_List_iterator@V?$_List_val@U?$_List_simple_types@U?$pair@$$CBV?$basic_string@DU?$char_traits@D@std@@V?$allocator@D@2@@std@@N@std@@@std@@@std@@@std@@_N@1@AEBV?$basic_string@DU?$char_traits@D@std@@V?$allocator@D@2@@1@@Z 000000018001cf90 f i nodejieba.obj
 0001:0001c180       ??$_Uninitialized_copy@PEAUDictUnit@cppjieba@@PEAU12@V?$allocator@UDictUnit@cppjieba@@@std@@@std@@YAPEAUDictUnit@cppjieba@@QEAU12@0PEAU12@AEAV?$allocator@UDictUnit@cppjieba@@@0@@Z 000000018001d180 f i nodejieba.obj
 0001:0001c230       ??$_Uninitialized_move@PEAU?$pair@V?$basic_string@DU?$char_traits@D@std@@V?$allocator@D@2@@std@@V12@@std@@PEAU12@V?$allocator@U?$pair@V?$basic_string@DU?$char_traits@D@std@@V?$allocator@D@2@@std@@V12@@std@@@2@@std@@YAPEAU?$pair@V?$basic_string@DU?$char_traits@D@std@@V?$allocator@D@2@@std@@V12@@0@QEAU10@0PEAU10@AEAV?$allocator@U?$pair@V?$basic_string@DU?$char_traits@D@std@@V?$allocator@D@2@@std@@V12@@std@@@0@@Z 000000018001d230 f i nodejieba.obj
 0001:0001c2c0       ??$_Uninitialized_move@PEAU?$pair@V?$basic_string@DU?$char_traits@D@std@@V?$allocator@D@2@@std@@N@std@@PEAU12@V?$allocator@U?$pair@V?$basic_string@DU?$char_traits@D@std@@V?$allocator@D@2@@std@@N@std@@@2@@std@@YAPEAU?$pair@V?$basic_string@DU?$char_traits@D@std@@V?$allocator@D@2@@std@@N@0@QEAU10@0PEAU10@AEAV?$allocator@U?$pair@V?$basic_string@DU?$char_traits@D@std@@V?$allocator@D@2@@std@@N@std@@@0@@Z 000000018001d2c0 f i nodejieba.obj
 0001:0001c340       ??1sentry@?$basic_istream@DU?$char_traits@D@std@@@std@@QEAA@XZ 000000018001d340 f i nodejieba.obj
 0001:0001c370       ??4Word@KeywordExtractor@cppjieba@@QEAAAEAU012@$$QEAU012@@Z 000000018001d370 f i nodejieba.obj
 0001:0001c370       ??4_Word@TextRankExtractor@cppjieba@@QEAAAEAU012@$$QEAU012@@Z 000000018001d370 f i nodejieba.obj
 0001:0001c420       ?_Check_size@?$_Hash@V?$_Uset_traits@V?$basic_string@DU?$char_traits@D@std@@V?$allocator@D@2@@std@@V?$_Uhash_compare@V?$basic_string@DU?$char_traits@D@std@@V?$allocator@D@2@@std@@U?$hash@V?$basic_string@DU?$char_traits@D@std@@V?$allocator@D@2@@std@@@2@U?$equal_to@V?$basic_string@DU?$char_traits@D@std@@V?$allocator@D@2@@std@@@2@@2@V?$allocator@V?$basic_string@DU?$char_traits@D@std@@V?$allocator@D@2@@std@@@2@$0A@@std@@@std@@IEAAXXZ 000000018001d420 f i nodejieba.obj
 0001:0001c4e0       ?_Check_size@?$_Hash@V?$_Uset_traits@IV?$_Uhash_compare@IU?$hash@I@std@@U?$equal_to@I@2@@std@@V?$allocator@I@2@$0A@@std@@@std@@IEAAXXZ 000000018001d4e0 f i nodejieba.obj
 0001:0001c5a0       ?snextc@?$basic_streambuf@DU?$char_traits@D@std@@@std@@QEAAHXZ 000000018001d5a0 f i nodejieba.obj
 0001:0001c630       ??$_Insert@AEAU?$pair@$$CBIPEAVTrieNode@cppjieba@@@std@@V?$_List_unchecked_iterator@V?$_List_val@U?$_List_simple_types@U?$pair@$$CBIPEAVTrieNode@cppjieba@@@std@@@std@@@std@@@2@@?$_Hash@V?$_Umap_traits@IPEAVTrieNode@cppjieba@@V?$_Uhash_compare@IU?$hash@I@std@@U?$equal_to@I@2@@std@@V?$allocator@U?$pair@$$CBIPEAVTrieNode@cppjieba@@@std@@@4@$0A@@std@@@std@@IEAA?AU?$pair@V?$_List_iterator@V?$_List_val@U?$_List_simple_types@U?$pair@$$CBIPEAVTrieNode@cppjieba@@@std@@@std@@@std@@@std@@_N@1@AEAU?$pair@$$CBIPEAVTrieNode@cppjieba@@@1@V?$_List_unchecked_iterator@V?$_List_val@U?$_List_simple_types@U?$pair@$$CBIPEAVTrieNode@cppjieba@@@std@@@std@@@std@@@1@@Z 000000018001d630 f i nodejieba.obj
 0001:0001c630       ??$_Insert@AEAU?$pair@$$CBIN@std@@V?$_List_unchecked_iterator@V?$_List_val@U?$_List_simple_types@U?$pair@$$CBIN@std@@@std@@@std@@@2@@?$_Hash@V?$_Umap_traits@INV?$_Uhash_compare@IU?$hash@I@std@@U?$equal_to@I@2@@std@@V?$allocator@U?$pair@$$CBIN@std@@@2@$0A@@std@@@std@@IEAA?AU?$pair@V?$_List_iterator@V?$_List_val@U?$_List_simple_types@U?$pair@$$CBIN@std@@@std@@@std@@@std@@_N@1@AEAU?$pair@$$CBIN@1@V?$_List_unchecked_iterator@V?$_List_val@U?$_List_simple_types@U?$pair@$$CBIN@std@@@std@@@std@@@1@@Z 000000018001d630 f i nodejieba.obj
 0001:0001c850       ??$_Partition_by_median_guess_unchecked@PEAUDictUnit@cppjieba@@P6A_NAEBU12@0@Z@std@@YA?AU?$pair@PEAUDictUnit@cppjieba@@PEAU12@@0@PEAUDictUnit@cppjieba@@0P6A_NAEBU23@1@Z@Z 000000018001d850 f i nodejieba.obj
 0001:0001d370       ??$_Insertion_sort_unchecked@PEAUDictUnit@cppjieba@@P6A_NAEBU12@0@Z@std@@YAPEAUDictUnit@cppjieba@@PEAU12@QEAU12@P6A_NAEBU12@2@Z@Z 000000018001e370 f i nodejieba.obj
 0001:0001d680       ??$_Insert_at@AEBV?$basic_string@DU?$char_traits@D@std@@V?$allocator@D@2@@std@@U_Not_a_node_tag@2@@?$_Tree@V?$_Tset_traits@V?$basic_string@DU?$char_traits@D@std@@V?$allocator@D@2@@std@@U?$less@V?$basic_string@DU?$char_traits@D@std@@V?$allocator@D@2@@std@@@2@V?$allocator@V?$basic_string@DU?$char_traits@D@std@@V?$allocator@D@2@@std@@@2@$0A@@std@@@std@@IEAA?AV?$_Tree_const_iterator@V?$_Tree_val@U?$_Tree_simple_types@V?$basic_string@DU?$char_traits@D@std@@V?$allocator@D@2@@std@@@std@@@std@@@1@_NPEAU?$_Tree_node@V?$basic_string@DU?$char_traits@D@std@@V?$allocator@D@2@@std@@PEAX@1@AEBV?$basic_string@DU?$char_traits@D@std@@V?$allocator@D@2@@1@U_Not_a_node_tag@1@@Z 000000018001e680 f i nodejieba.obj
 0001:0001d970       ??$_Pop_heap_hole_by_index@PEAU_Word@TextRankExtractor@cppjieba@@U123@P6A_NAEBU123@0@Z@std@@YAXPEAU_Word@TextRankExtractor@cppjieba@@_J1$$QEAU123@P6A_NAEBU123@3@Z@Z 000000018001e970 f i nodejieba.obj
 0001:0001d970       ??$_Pop_heap_hole_by_index@PEAUWord@KeywordExtractor@cppjieba@@U123@P6A_NAEBU123@0@Z@std@@YAXPEAUWord@KeywordExtractor@cppjieba@@_J1$$QEAU123@P6A_NAEBU123@3@Z@Z 000000018001e970 f i nodejieba.obj
 0001:0001daa0       ??$_Uninitialized_copy_al_unchecked@PEAUDag@cppjieba@@PEAU12@V?$allocator@UDag@cppjieba@@@std@@@std@@YAPEAUDag@cppjieba@@PEAU12@QEAU12@1AEAV?$allocator@UDag@cppjieba@@@0@U_General_ptr_iterator_tag@0@U_Unused_parameter@0@@Z 000000018001eaa0 f i nodejieba.obj
 0001:0001dca0       ??$_Insert@AEBV?$basic_string@DU?$char_traits@D@std@@V?$allocator@D@2@@std@@V?$_List_unchecked_const_iterator@V?$_List_val@U?$_List_simple_types@V?$basic_string@DU?$char_traits@D@std@@V?$allocator@D@2@@std@@@std@@@std@@U_Iterator_base0@2@@2@@?$_Hash@V?$_Uset_traits@V?$basic_string@DU?$char_traits@D@std@@V?$allocator@D@2@@std@@V?$_Uhash_compare@V?$basic_string@DU?$char_traits@D@std@@V?$allocator@D@2@@std@@U?$hash@V?$basic_string@DU?$char_traits@D@std@@V?$allocator@D@2@@std@@@2@U?$equal_to@V?$basic_string@DU?$char_traits@D@std@@V?$allocator@D@2@@std@@@2@@2@V?$allocator@V?$basic_string@DU?$char_traits@D@std@@V?$allocator@D@2@@std@@@2@$0A@@std@@@std@@IEAA?AU?$pair@V?$_List_const_iterator@V?$_List_val@U?$_List_simple_types@V?$basic_string@DU?$char_traits@D@std@@V?$allocator@D@2@@std@@@std@@@std@@@std@@_N@1@AEBV?$basic_string@DU?$char_traits@D@std@@V?$allocator@D@2@@1@V?$_List_unchecked_const_iterator@V?$_List_val@U?$_List_simple_types@V?$basic_string@DU?$char_traits@D@std@@V?$allocator@D@2@@std@@@std@@@std@@U_Iterator_base0@2@@1@@Z 000000018001eca0 f i nodejieba.obj
 0001:0001de40       ??$_Insert@AEBIV?$_List_unchecked_const_iterator@V?$_List_val@U?$_List_simple_types@I@std@@@std@@U_Iterator_base0@2@@std@@@?$_Hash@V?$_Uset_traits@IV?$_Uhash_compare@IU?$hash@I@std@@U?$equal_to@I@2@@std@@V?$allocator@I@2@$0A@@std@@@std@@IEAA?AU?$pair@V?$_List_const_iterator@V?$_List_val@U?$_List_simple_types@I@std@@@std@@@std@@_N@1@AEBIV?$_List_unchecked_const_iterator@V?$_List_val@U?$_List_simple_types@I@std@@@std@@U_Iterator_base0@2@@1@@Z 000000018001ee40 f i nodejieba.obj
 0001:0001dfc0       ??0DictUnit@cppjieba@@QEAA@$$QEAU01@@Z 000000018001efc0 f i nodejieba.obj
 0001:0001e030       ??4DictUnit@cppjieba@@QEAAAEAU01@$$QEAU01@@Z 000000018001f030 f i nodejieba.obj
 0001:0001e0a0       ??1?$_Uninitialized_backout_al@PEAUDictUnit@cppjieba@@V?$allocator@UDictUnit@cppjieba@@@std@@@std@@QEAA@XZ 000000018001f0a0 f i nodejieba.obj
 0001:0001e0e0       ?_Destroy_if_node@?$_Hash@V?$_Uset_traits@V?$basic_string@DU?$char_traits@D@std@@V?$allocator@D@2@@std@@V?$_Uhash_compare@V?$basic_string@DU?$char_traits@D@std@@V?$allocator@D@2@@std@@U?$hash@V?$basic_string@DU?$char_traits@D@std@@V?$allocator@D@2@@std@@@2@U?$equal_to@V?$basic_string@DU?$char_traits@D@std@@V?$allocator@D@2@@std@@@2@@2@V?$allocator@V?$basic_string@DU?$char_traits@D@std@@V?$allocator@D@2@@std@@@2@$0A@@std@@@std@@IEAAXV?$_List_unchecked_const_iterator@V?$_List_val@U?$_List_simple_types@V?$basic_string@DU?$char_traits@D@std@@V?$allocator@D@2@@std@@@std@@@std@@U_Iterator_base0@2@@2@@Z 000000018001f0e0 f i nodejieba.obj
 0001:0001e170       ??$_Pop_heap_hole_by_index@PEAUDictUnit@cppjieba@@U12@P6A_NAEBU12@0@Z@std@@YAXPEAUDictUnit@cppjieba@@_J1$$QEAU12@P6A_NAEBU12@3@Z@Z 000000018001f170 f i nodejieba.obj
 0001:0001e360       ??$_Insert_hint@AEAU?$pair@$$CBV?$basic_string@DU?$char_traits@D@std@@V?$allocator@D@2@@std@@V?$map@V?$basic_string@DU?$char_traits@D@std@@V?$allocator@D@2@@std@@NU?$less@V?$basic_string@DU?$char_traits@D@std@@V?$allocator@D@2@@std@@@2@V?$allocator@U?$pair@$$CBV?$basic_string@DU?$char_traits@D@std@@V?$allocator@D@2@@std@@N@std@@@2@@2@@std@@PEAU?$_Tree_node@U?$pair@$$CBV?$basic_string@DU?$char_traits@D@std@@V?$allocator@D@2@@std@@V?$map@V?$basic_string@DU?$char_traits@D@std@@V?$allocator@D@2@@std@@NU?$less@V?$basic_string@DU?$char_traits@D@std@@V?$allocator@D@2@@std@@@2@V?$allocator@U?$pair@$$CBV?$basic_string@DU?$char_traits@D@std@@V?$allocator@D@2@@std@@N@std@@@2@@2@@std@@PEAX@2@@?$_Tree@V?$_Tmap_traits@V?$basic_string@DU?$char_traits@D@std@@V?$allocator@D@2@@std@@V?$map@V?$basic_string@DU?$char_traits@D@std@@V?$allocator@D@2@@std@@NU?$less@V?$basic_string@DU?$char_traits@D@std@@V?$allocator@D@2@@std@@@2@V?$allocator@U?$pair@$$CBV?$basic_string@DU?$char_traits@D@std@@V?$allocator@D@2@@std@@N@std@@@2@@2@U?$less@V?$basic_string@DU?$char_traits@D@std@@V?$allocator@D@2@@std@@@2@V?$allocator@U?$pair@$$CBV?$basic_string@DU?$char_traits@D@std@@V?$allocator@D@2@@std@@V?$map@V?$basic_string@DU?$char_traits@D@std@@V?$allocator@D@2@@std@@NU?$less@V?$basic_string@DU?$char_traits@D@std@@V?$allocator@D@2@@std@@@2@V?$allocator@U?$pair@$$CBV?$basic_string@DU?$char_traits@D@std@@V?$allocator@D@2@@std@@N@std@@@2@@2@@std@@@2@$0A@@std@@@std@@IEAA?AV?$_Tree_iterator@V?$_Tree_val@U?$_Tree_simple_types@U?$pair@$$CBV?$basic_string@DU?$char_traits@D@std@@V?$allocator@D@2@@std@@V?$map@V?$basic_string@DU?$char_traits@D@std@@V?$allocator@D@2@@std@@NU?$less@V?$basic_string@DU?$char_traits@D@std@@V?$allocator@D@2@@std@@@2@V?$allocator@U?$pair@$$CBV?$basic_string@DU?$char_traits@D@std@@V?$allocator@D@2@@std@@N@std@@@2@@2@@std@@@std@@@std@@@1@V?$_Tree_const_iterator@V?$_Tree_val@U?$_Tree_simple_types@U?$pair@$$CBV?$basic_string@DU?$char_traits@D@std@@V?$allocator@D@2@@std@@V?$map@V?$basic_string@DU?$char_traits@D@std@@V?$allocator@D@2@@std@@NU?$less@V?$basic_string@DU?$char_traits@D@std@@V?$allocator@D@2@@std@@@2@V?$allocator@U?$pair@$$CBV?$basic_string@DU?$char_traits@D@std@@V?$allocator@D@2@@std@@N@std@@@2@@2@@std@@@std@@@std@@@1@AEAU?$pair@$$CBV?$basic_string@DU?$char_traits@D@std@@V?$allocator@D@2@@std@@V?$map@V?$basic_string@DU?$char_traits@D@std@@V?$allocator@D@2@@std@@NU?$less@V?$basic_string@DU?$char_traits@D@std@@V?$allocator@D@2@@std@@@2@V?$allocator@U?$pair@$$CBV?$basic_string@DU?$char_traits@D@std@@V?$allocator@D@2@@std@@N@std@@@2@@2@@1@PEAU?$_Tree_node@U?$pair@$$CBV?$basic_string@DU?$char_traits@D@std@@V?$allocator@D@2@@std@@V?$map@V?$basic_string@DU?$char_traits@D@std@@V?$allocator@D@2@@std@@NU?$less@V?$basic_string@DU?$char_traits@D@std@@V?$allocator@D@2@@std@@@2@V?$allocator@U?$pair@$$CBV?$basic_string@DU?$char_traits@D@std@@V?$allocator@D@2@@std@@N@std@@@2@@2@@std@@PEAX@1@@Z 000000018001f360 f i nodejieba.obj
 0001:0001e6f0       ??$_Insert_hint@AEAU?$pair@$$CBV?$basic_string@DU?$char_traits@D@std@@V?$allocator@D@2@@std@@N@std@@PEAU?$_Tree_node@U?$pair@$$CBV?$basic_string@DU?$char_traits@D@std@@V?$allocator@D@2@@std@@N@std@@PEAX@2@@?$_Tree@V?$_Tmap_traits@V?$basic_string@DU?$char_traits@D@std@@V?$allocator@D@2@@std@@NU?$less@V?$basic_string@DU?$char_traits@D@std@@V?$allocator@D@2@@std@@@2@V?$allocator@U?$pair@$$CBV?$basic_string@DU?$char_traits@D@std@@V?$allocator@D@2@@std@@N@std@@@2@$0A@@std@@@std@@IEAA?AV?$_Tree_iterator@V?$_Tree_val@U?$_Tree_simple_types@U?$pair@$$CBV?$basic_string@DU?$char_traits@D@std@@V?$allocator@D@2@@std@@N@std@@@std@@@std@@@1@V?$_Tree_const_iterator@V?$_Tree_val@U?$_Tree_simple_types@U?$pair@$$CBV?$basic_string@DU?$char_traits@D@std@@V?$allocator@D@2@@std@@N@std@@@std@@@std@@@1@AEAU?$pair@$$CBV?$basic_string@DU?$char_traits@D@std@@V?$allocator@D@2@@std@@N@1@PEAU?$_Tree_node@U?$pair@$$CBV?$basic_string@DU?$char_traits@D@std@@V?$allocator@D@2@@std@@N@std@@PEAX@1@@Z 000000018001f6f0 f i nodejieba.obj
 0001:0001ea80       ??$_Insert_hint@AEAU?$pair@$$CBV?$basic_string@DU?$char_traits@D@std@@V?$allocator@D@2@@std@@U_Word@TextRankExtractor@cppjieba@@@std@@PEAU?$_Tree_node@U?$pair@$$CBV?$basic_string@DU?$char_traits@D@std@@V?$allocator@D@2@@std@@U_Word@TextRankExtractor@cppjieba@@@std@@PEAX@2@@?$_Tree@V?$_Tmap_traits@V?$basic_string@DU?$char_traits@D@std@@V?$allocator@D@2@@std@@U_Word@TextRankExtractor@cppjieba@@U?$less@V?$basic_string@DU?$char_traits@D@std@@V?$allocator@D@2@@std@@@2@V?$allocator@U?$pair@$$CBV?$basic_string@DU?$char_traits@D@std@@V?$allocator@D@2@@std@@U_Word@TextRankExtractor@cppjieba@@@std@@@2@$0A@@std@@@std@@IEAA?AV?$_Tree_iterator@V?$_Tree_val@U?$_Tree_simple_types@U?$pair@$$CBV?$basic_string@DU?$char_traits@D@std@@V?$allocator@D@2@@std@@U_Word@TextRankExtractor@cppjieba@@@std@@@std@@@std@@@1@V?$_Tree_const_iterator@V?$_Tree_val@U?$_Tree_simple_types@U?$pair@$$CBV?$basic_string@DU?$char_traits@D@std@@V?$allocator@D@2@@std@@U_Word@TextRankExtractor@cppjieba@@@std@@@std@@@std@@@1@AEAU?$pair@$$CBV?$basic_string@DU?$char_traits@D@std@@V?$allocator@D@2@@std@@U_Word@TextRankExtractor@cppjieba@@@1@PEAU?$_Tree_node@U?$pair@$$CBV?$basic_string@DU?$char_traits@D@std@@V?$allocator@D@2@@std@@U_Word@TextRankExtractor@cppjieba@@@std@@PEAX@1@@Z 000000018001fa80 f i nodejieba.obj
 0001:0001ea80       ??$_Insert_hint@AEAU?$pair@$$CBV?$basic_string@DU?$char_traits@D@std@@V?$allocator@D@2@@std@@UWord@KeywordExtractor@cppjieba@@@std@@PEAU?$_Tree_node@U?$pair@$$CBV?$basic_string@DU?$char_traits@D@std@@V?$allocator@D@2@@std@@UWord@KeywordExtractor@cppjieba@@@std@@PEAX@2@@?$_Tree@V?$_Tmap_traits@V?$basic_string@DU?$char_traits@D@std@@V?$allocator@D@2@@std@@UWord@KeywordExtractor@cppjieba@@U?$less@V?$basic_string@DU?$char_traits@D@std@@V?$allocator@D@2@@std@@@2@V?$allocator@U?$pair@$$CBV?$basic_string@DU?$char_traits@D@std@@V?$allocator@D@2@@std@@UWord@KeywordExtractor@cppjieba@@@std@@@2@$0A@@std@@@std@@IEAA?AV?$_Tree_iterator@V?$_Tree_val@U?$_Tree_simple_types@U?$pair@$$CBV?$basic_string@DU?$char_traits@D@std@@V?$allocator@D@2@@std@@UWord@KeywordExtractor@cppjieba@@@std@@@std@@@std@@@1@V?$_Tree_const_iterator@V?$_Tree_val@U?$_Tree_simple_types@U?$pair@$$CBV?$basic_string@DU?$char_traits@D@std@@V?$allocator@D@2@@std@@UWord@KeywordExtractor@cppjieba@@@std@@@std@@@std@@@1@AEAU?$pair@$$CBV?$basic_string@DU?$char_traits@D@std@@V?$allocator@D@2@@std@@UWord@KeywordExtractor@cppjieba@@@1@PEAU?$_Tree_node@U?$pair@$$CBV?$basic_string@DU?$char_traits@D@std@@V?$allocator@D@2@@std@@UWord@KeywordExtractor@cppjieba@@@std@@PEAX@1@@Z 000000018001fa80 f i nodejieba.obj
 0001:0001ee10       ??$_Insert@AEAU?$pair@$$CBV?$basic_string@DU?$char_traits@D@std@@V?$allocator@D@2@@std@@N@std@@V?$_List_unchecked_iterator@V?$_List_val@U?$_List_simple_types@U?$pair@$$CBV?$basic_string@DU?$char_traits@D@std@@V?$allocator@D@2@@std@@N@std@@@std@@@std@@@2@@?$_Hash@V?$_Umap_traits@V?$basic_string@DU?$char_traits@D@std@@V?$allocator@D@2@@std@@NV?$_Uhash_compare@V?$basic_string@DU?$char_traits@D@std@@V?$allocator@D@2@@std@@U?$hash@V?$basic_string@DU?$char_traits@D@std@@V?$allocator@D@2@@std@@@2@U?$equal_to@V?$basic_string@DU?$char_traits@D@std@@V?$allocator@D@2@@std@@@2@@2@V?$allocator@U?$pair@$$CBV?$basic_string@DU?$char_traits@D@std@@V?$allocator@D@2@@std@@N@std@@@2@$0A@@std@@@std@@IEAA?AU?$pair@V?$_List_iterator@V?$_List_val@U?$_List_simple_types@U?$pair@$$CBV?$basic_string@DU?$char_traits@D@std@@V?$allocator@D@2@@std@@N@std@@@std@@@std@@@std@@_N@1@AEAU?$pair@$$CBV?$basic_string@DU?$char_traits@D@std@@V?$allocator@D@2@@std@@N@1@V?$_List_unchecked_iterator@V?$_List_val@U?$_List_simple_types@U?$pair@$$CBV?$basic_string@DU?$char_traits@D@std@@V?$allocator@D@2@@std@@N@std@@@std@@@std@@@1@@Z 000000018001fe10 f i nodejieba.obj
 0001:0001f050       ?_Destroy_if_node@?$_Tree@V?$_Tmap_traits@V?$basic_string@DU?$char_traits@D@std@@V?$allocator@D@2@@std@@UWord@KeywordExtractor@cppjieba@@U?$less@V?$basic_string@DU?$char_traits@D@std@@V?$allocator@D@2@@std@@@2@V?$allocator@U?$pair@$$CBV?$basic_string@DU?$char_traits@D@std@@V?$allocator@D@2@@std@@UWord@KeywordExtractor@cppjieba@@@std@@@2@$0A@@std@@@std@@IEAAXPEAU?$_Tree_node@U?$pair@$$CBV?$basic_string@DU?$char_traits@D@std@@V?$allocator@D@2@@std@@UWord@KeywordExtractor@cppjieba@@@std@@PEAX@2@@Z 0000000180020050 f i nodejieba.obj
 0001:0001f050       ?_Destroy_if_node@?$_Tree@V?$_Tmap_traits@V?$basic_string@DU?$char_traits@D@std@@V?$allocator@D@2@@std@@U_Word@TextRankExtractor@cppjieba@@U?$less@V?$basic_string@DU?$char_traits@D@std@@V?$allocator@D@2@@std@@@2@V?$allocator@U?$pair@$$CBV?$basic_string@DU?$char_traits@D@std@@V?$allocator@D@2@@std@@U_Word@TextRankExtractor@cppjieba@@@std@@@2@$0A@@std@@@std@@IEAAXPEAU?$_Tree_node@U?$pair@$$CBV?$basic_string@DU?$char_traits@D@std@@V?$allocator@D@2@@std@@U_Word@TextRankExtractor@cppjieba@@@std@@PEAX@2@@Z 0000000180020050 f i nodejieba.obj
 0001:0001f080       ?_Destroy_if_node@?$_Tree@V?$_Tmap_traits@V?$basic_string@DU?$char_traits@D@std@@V?$allocator@D@2@@std@@NU?$less@V?$basic_string@DU?$char_traits@D@std@@V?$allocator@D@2@@std@@@2@V?$allocator@U?$pair@$$CBV?$basic_string@DU?$char_traits@D@std@@V?$allocator@D@2@@std@@N@std@@@2@$0A@@std@@@std@@IEAAXPEAU?$_Tree_node@U?$pair@$$CBV?$basic_string@DU?$char_traits@D@std@@V?$allocator@D@2@@std@@N@std@@PEAX@2@@Z 0000000180020080 f i nodejieba.obj
 0001:0001f0f0       ?_Destroy_if_node@?$_Tree@V?$_Tmap_traits@V?$basic_string@DU?$char_traits@D@std@@V?$allocator@D@2@@std@@V?$map@V?$basic_string@DU?$char_traits@D@std@@V?$allocator@D@2@@std@@NU?$less@V?$basic_string@DU?$char_traits@D@std@@V?$allocator@D@2@@std@@@2@V?$allocator@U?$pair@$$CBV?$basic_string@DU?$char_traits@D@std@@V?$allocator@D@2@@std@@N@std@@@2@@2@U?$less@V?$basic_string@DU?$char_traits@D@std@@V?$allocator@D@2@@std@@@2@V?$allocator@U?$pair@$$CBV?$basic_string@DU?$char_traits@D@std@@V?$allocator@D@2@@std@@V?$map@V?$basic_string@DU?$char_traits@D@std@@V?$allocator@D@2@@std@@NU?$less@V?$basic_string@DU?$char_traits@D@std@@V?$allocator@D@2@@std@@@2@V?$allocator@U?$pair@$$CBV?$basic_string@DU?$char_traits@D@std@@V?$allocator@D@2@@std@@N@std@@@2@@2@@std@@@2@$0A@@std@@@std@@IEAAXPEAU?$_Tree_node@U?$pair@$$CBV?$basic_string@DU?$char_traits@D@std@@V?$allocator@D@2@@std@@V?$map@V?$basic_string@DU?$char_traits@D@std@@V?$allocator@D@2@@std@@NU?$less@V?$basic_string@DU?$char_traits@D@std@@V?$allocator@D@2@@std@@@2@V?$allocator@U?$pair@$$CBV?$basic_string@DU?$char_traits@D@std@@V?$allocator@D@2@@std@@N@std@@@2@@2@@std@@PEAX@2@@Z 00000001800200f0 f i nodejieba.obj
 0001:0001f120       ?_Destroy_if_node@?$_Hash@V?$_Umap_traits@V?$basic_string@DU?$char_traits@D@std@@V?$allocator@D@2@@std@@NV?$_Uhash_compare@V?$basic_string@DU?$char_traits@D@std@@V?$allocator@D@2@@std@@U?$hash@V?$basic_string@DU?$char_traits@D@std@@V?$allocator@D@2@@std@@@2@U?$equal_to@V?$basic_string@DU?$char_traits@D@std@@V?$allocator@D@2@@std@@@2@@2@V?$allocator@U?$pair@$$CBV?$basic_string@DU?$char_traits@D@std@@V?$allocator@D@2@@std@@N@std@@@2@$0A@@std@@@std@@IEAAXV?$_List_unchecked_iterator@V?$_List_val@U?$_List_simple_types@U?$pair@$$CBV?$basic_string@DU?$char_traits@D@std@@V?$allocator@D@2@@std@@N@std@@@std@@@std@@@2@@Z 0000000180020120 f i nodejieba.obj
 0001:0001f1b0       ??$_Med3_unchecked@PEAUDictUnit@cppjieba@@P6A_NAEBU12@0@Z@std@@YAXPEAUDictUnit@cppjieba@@00P6A_NAEBU12@1@Z@Z 00000001800201b0 f i nodejieba.obj
 0001:0001f5c0       ??$_Insert_at@AEAU?$pair@$$CBV?$basic_string@DU?$char_traits@D@std@@V?$allocator@D@2@@std@@V?$map@V?$basic_string@DU?$char_traits@D@std@@V?$allocator@D@2@@std@@NU?$less@V?$basic_string@DU?$char_traits@D@std@@V?$allocator@D@2@@std@@@2@V?$allocator@U?$pair@$$CBV?$basic_string@DU?$char_traits@D@std@@V?$allocator@D@2@@std@@N@std@@@2@@2@@std@@PEAU?$_Tree_node@U?$pair@$$CBV?$basic_string@DU?$char_traits@D@std@@V?$allocator@D@2@@std@@V?$map@V?$basic_string@DU?$char_traits@D@std@@V?$allocator@D@2@@std@@NU?$less@V?$basic_string@DU?$char_traits@D@std@@V?$allocator@D@2@@std@@@2@V?$allocator@U?$pair@$$CBV?$basic_string@DU?$char_traits@D@std@@V?$allocator@D@2@@std@@N@std@@@2@@2@@std@@PEAX@2@@?$_Tree@V?$_Tmap_traits@V?$basic_string@DU?$char_traits@D@std@@V?$allocator@D@2@@std@@V?$map@V?$basic_string@DU?$char_traits@D@std@@V?$allocator@D@2@@std@@NU?$less@V?$basic_string@DU?$char_traits@D@std@@V?$allocator@D@2@@std@@@2@V?$allocator@U?$pair@$$CBV?$basic_string@DU?$char_traits@D@std@@V?$allocator@D@2@@std@@N@std@@@2@@2@U?$less@V?$basic_string@DU?$char_traits@D@std@@V?$allocator@D@2@@std@@@2@V?$allocator@U?$pair@$$CBV?$basic_string@DU?$char_traits@D@std@@V?$allocator@D@2@@std@@V?$map@V?$basic_string@DU?$char_traits@D@std@@V?$allocator@D@2@@std@@NU?$less@V?$basic_string@DU?$char_traits@D@std@@V?$allocator@D@2@@std@@@2@V?$allocator@U?$pair@$$CBV?$basic_string@DU?$char_traits@D@std@@V?$allocator@D@2@@std@@N@std@@@2@@2@@std@@@2@$0A@@std@@@std@@IEAA?AV?$_Tree_iterator@V?$_Tree_val@U?$_Tree_simple_types@U?$pair@$$CBV?$basic_string@DU?$char_traits@D@std@@V?$allocator@D@2@@std@@V?$map@V?$basic_string@DU?$char_traits@D@std@@V?$allocator@D@2@@std@@NU?$less@V?$basic_string@DU?$char_traits@D@std@@V?$allocator@D@2@@std@@@2@V?$allocator@U?$pair@$$CBV?$basic_string@DU?$char_traits@D@std@@V?$allocator@D@2@@std@@N@std@@@2@@2@@std@@@std@@@std@@@1@_NPEAU?$_Tree_node@U?$pair@$$CBV?$basic_string@DU?$char_traits@D@std@@V?$allocator@D@2@@std@@V?$map@V?$basic_string@DU?$char_traits@D@std@@V?$allocator@D@2@@std@@NU?$less@V?$basic_string@DU?$char_traits@D@std@@V?$allocator@D@2@@std@@@2@V?$allocator@U?$pair@$$CBV?$basic_string@DU?$char_traits@D@std@@V?$allocator@D@2@@std@@N@std@@@2@@2@@std@@PEAX@1@AEAU?$pair@$$CBV?$basic_string@DU?$char_traits@D@std@@V?$allocator@D@2@@std@@V?$map@V?$basic_string@DU?$char_traits@D@std@@V?$allocator@D@2@@std@@NU?$less@V?$basic_string@DU?$char_traits@D@std@@V?$allocator@D@2@@std@@@2@V?$allocator@U?$pair@$$CBV?$basic_string@DU?$char_traits@D@std@@V?$allocator@D@2@@std@@N@std@@@2@@2@@1@1@Z 00000001800205c0 f i nodejieba.obj
 0001:0001f870       ??$_Insert_nohint@AEAU?$pair@$$CBV?$basic_string@DU?$char_traits@D@std@@V?$allocator@D@2@@std@@V?$map@V?$basic_string@DU?$char_traits@D@std@@V?$allocator@D@2@@std@@NU?$less@V?$basic_string@DU?$char_traits@D@std@@V?$allocator@D@2@@std@@@2@V?$allocator@U?$pair@$$CBV?$basic_string@DU?$char_traits@D@std@@V?$allocator@D@2@@std@@N@std@@@2@@2@@std@@PEAU?$_Tree_node@U?$pair@$$CBV?$basic_string@DU?$char_traits@D@std@@V?$allocator@D@2@@std@@V?$map@V?$basic_string@DU?$char_traits@D@std@@V?$allocator@D@2@@std@@NU?$less@V?$basic_string@DU?$char_traits@D@std@@V?$allocator@D@2@@std@@@2@V?$allocator@U?$pair@$$CBV?$basic_string@DU?$char_traits@D@std@@V?$allocator@D@2@@std@@N@std@@@2@@2@@std@@PEAX@2@@?$_Tree@V?$_Tmap_traits@V?$basic_string@DU?$char_traits@D@std@@V?$allocator@D@2@@std@@V?$map@V?$basic_string@DU?$char_traits@D@std@@V?$allocator@D@2@@std@@NU?$less@V?$basic_string@DU?$char_traits@D@std@@V?$allocator@D@2@@std@@@2@V?$allocator@U?$pair@$$CBV?$basic_string@DU?$char_traits@D@std@@V?$allocator@D@2@@std@@N@std@@@2@@2@U?$less@V?$basic_string@DU?$char_traits@D@std@@V?$allocator@D@2@@std@@@2@V?$allocator@U?$pair@$$CBV?$basic_string@DU?$char_traits@D@std@@V?$allocator@D@2@@std@@V?$map@V?$basic_string@DU?$char_traits@D@std@@V?$allocator@D@2@@std@@NU?$less@V?$basic_string@DU?$char_traits@D@std@@V?$allocator@D@2@@std@@@2@V?$allocator@U?$pair@$$CBV?$basic_string@DU?$char_traits@D@std@@V?$allocator@D@2@@std@@N@std@@@2@@2@@std@@@2@$0A@@std@@@std@@IEAA?AU?$pair@V?$_Tree_iterator@V?$_Tree_val@U?$_Tree_simple_types@U?$pair@$$CBV?$basic_string@DU?$char_traits@D@std@@V?$allocator@D@2@@std@@V?$map@V?$basic_string@DU?$char_traits@D@std@@V?$allocator@D@2@@std@@NU?$less@V?$basic_string@DU?$char_traits@D@std@@V?$allocator@D@2@@std@@@2@V?$allocator@U?$pair@$$CBV?$basic_string@DU?$char_traits@D@std@@V?$allocator@D@2@@std@@N@std@@@2@@2@@std@@@std@@@std@@@std@@_N@1@_NAEAU?$pair@$$CBV?$basic_string@DU?$char_traits@D@std@@V?$allocator@D@2@@std@@V?$map@V?$basic_string@DU?$char_traits@D@std@@V?$allocator@D@2@@std@@NU?$less@V?$basic_string@DU?$char_traits@D@std@@V?$allocator@D@2@@std@@@2@V?$allocator@U?$pair@$$CBV?$basic_string@DU?$char_traits@D@std@@V?$allocator@D@2@@std@@N@std@@@2@@2@@1@PEAU?$_Tree_node@U?$pair@$$CBV?$basic_string@DU?$char_traits@D@std@@V?$allocator@D@2@@std@@V?$map@V?$basic_string@DU?$char_traits@D@std@@V?$allocator@D@2@@std@@NU?$less@V?$basic_string@DU?$char_traits@D@std@@V?$allocator@D@2@@std@@@2@V?$allocator@U?$pair@$$CBV?$basic_string@DU?$char_traits@D@std@@V?$allocator@D@2@@std@@N@std@@@2@@2@@std@@PEAX@1@@Z 0000000180020870 f i nodejieba.obj
 0001:0001fa60       ??$_Insert_at@AEAU?$pair@$$CBV?$basic_string@DU?$char_traits@D@std@@V?$allocator@D@2@@std@@N@std@@PEAU?$_Tree_node@U?$pair@$$CBV?$basic_string@DU?$char_traits@D@std@@V?$allocator@D@2@@std@@N@std@@PEAX@2@@?$_Tree@V?$_Tmap_traits@V?$basic_string@DU?$char_traits@D@std@@V?$allocator@D@2@@std@@NU?$less@V?$basic_string@DU?$char_traits@D@std@@V?$allocator@D@2@@std@@@2@V?$allocator@U?$pair@$$CBV?$basic_string@DU?$char_traits@D@std@@V?$allocator@D@2@@std@@N@std@@@2@$0A@@std@@@std@@IEAA?AV?$_Tree_iterator@V?$_Tree_val@U?$_Tree_simple_types@U?$pair@$$CBV?$basic_string@DU?$char_traits@D@std@@V?$allocator@D@2@@std@@N@std@@@std@@@std@@@1@_NPEAU?$_Tree_node@U?$pair@$$CBV?$basic_string@DU?$char_traits@D@std@@V?$allocator@D@2@@std@@N@std@@PEAX@1@AEAU?$pair@$$CBV?$basic_string@DU?$char_traits@D@std@@V?$allocator@D@2@@std@@N@1@1@Z 0000000180020a60 f i nodejieba.obj
 0001:0001fd10       ??$_Insert_nohint@AEAU?$pair@$$CBV?$basic_string@DU?$char_traits@D@std@@V?$allocator@D@2@@std@@N@std@@PEAU?$_Tree_node@U?$pair@$$CBV?$basic_string@DU?$char_traits@D@std@@V?$allocator@D@2@@std@@N@std@@PEAX@2@@?$_Tree@V?$_Tmap_traits@V?$basic_string@DU?$char_traits@D@std@@V?$allocator@D@2@@std@@NU?$less@V?$basic_string@DU?$char_traits@D@std@@V?$allocator@D@2@@std@@@2@V?$allocator@U?$pair@$$CBV?$basic_string@DU?$char_traits@D@std@@V?$allocator@D@2@@std@@N@std@@@2@$0A@@std@@@std@@IEAA?AU?$pair@V?$_Tree_iterator@V?$_Tree_val@U?$_Tree_simple_types@U?$pair@$$CBV?$basic_string@DU?$char_traits@D@std@@V?$allocator@D@2@@std@@N@std@@@std@@@std@@@std@@_N@1@_NAEAU?$pair@$$CBV?$basic_string@DU?$char_traits@D@std@@V?$allocator@D@2@@std@@N@1@PEAU?$_Tree_node@U?$pair@$$CBV?$basic_string@DU?$char_traits@D@std@@V?$allocator@D@2@@std@@N@std@@PEAX@1@@Z 0000000180020d10 f i nodejieba.obj
 0001:0001ff00       ??$_Insert_at@AEAU?$pair@$$CBV?$basic_string@DU?$char_traits@D@std@@V?$allocator@D@2@@std@@UWord@KeywordExtractor@cppjieba@@@std@@PEAU?$_Tree_node@U?$pair@$$CBV?$basic_string@DU?$char_traits@D@std@@V?$allocator@D@2@@std@@UWord@KeywordExtractor@cppjieba@@@std@@PEAX@2@@?$_Tree@V?$_Tmap_traits@V?$basic_string@DU?$char_traits@D@std@@V?$allocator@D@2@@std@@UWord@KeywordExtractor@cppjieba@@U?$less@V?$basic_string@DU?$char_traits@D@std@@V?$allocator@D@2@@std@@@2@V?$allocator@U?$pair@$$CBV?$basic_string@DU?$char_traits@D@std@@V?$allocator@D@2@@std@@UWord@KeywordExtractor@cppjieba@@@std@@@2@$0A@@std@@@std@@IEAA?AV?$_Tree_iterator@V?$_Tree_val@U?$_Tree_simple_types@U?$pair@$$CBV?$basic_string@DU?$char_traits@D@std@@V?$allocator@D@2@@std@@UWord@KeywordExtractor@cppjieba@@@std@@@std@@@std@@@1@_NPEAU?$_Tree_node@U?$pair@$$CBV?$basic_string@DU?$char_traits@D@std@@V?$allocator@D@2@@std@@UWord@KeywordExtractor@cppjieba@@@std@@PEAX@1@AEAU?$pair@$$CBV?$basic_string@DU?$char_traits@D@std@@V?$allocator@D@2@@std@@UWord@KeywordExtractor@cppjieba@@@1@1@Z 0000000180020f00 f i nodejieba.obj
 0001:0001ff00       ??$_Insert_at@AEAU?$pair@$$CBV?$basic_string@DU?$char_traits@D@std@@V?$allocator@D@2@@std@@U_Word@TextRankExtractor@cppjieba@@@std@@PEAU?$_Tree_node@U?$pair@$$CBV?$basic_string@DU?$char_traits@D@std@@V?$allocator@D@2@@std@@U_Word@TextRankExtractor@cppjieba@@@std@@PEAX@2@@?$_Tree@V?$_Tmap_traits@V?$basic_string@DU?$char_traits@D@std@@V?$allocator@D@2@@std@@U_Word@TextRankExtractor@cppjieba@@U?$less@V?$basic_string@DU?$char_traits@D@std@@V?$allocator@D@2@@std@@@2@V?$allocator@U?$pair@$$CBV?$basic_string@DU?$char_traits@D@std@@V?$allocator@D@2@@std@@U_Word@TextRankExtractor@cppjieba@@@std@@@2@$0A@@std@@@std@@IEAA?AV?$_Tree_iterator@V?$_Tree_val@U?$_Tree_simple_types@U?$pair@$$CBV?$basic_string@DU?$char_traits@D@std@@V?$allocator@D@2@@std@@U_Word@TextRankExtractor@cppjieba@@@std@@@std@@@std@@@1@_NPEAU?$_Tree_node@U?$pair@$$CBV?$basic_string@DU?$char_traits@D@std@@V?$allocator@D@2@@std@@U_Word@TextRankExtractor@cppjieba@@@std@@PEAX@1@AEAU?$pair@$$CBV?$basic_string@DU?$char_traits@D@std@@V?$allocator@D@2@@std@@U_Word@TextRankExtractor@cppjieba@@@1@1@Z 0000000180020f00 f i nodejieba.obj
 0001:000201b0       ??$_Insert_nohint@AEAU?$pair@$$CBV?$basic_string@DU?$char_traits@D@std@@V?$allocator@D@2@@std@@U_Word@TextRankExtractor@cppjieba@@@std@@PEAU?$_Tree_node@U?$pair@$$CBV?$basic_string@DU?$char_traits@D@std@@V?$allocator@D@2@@std@@U_Word@TextRankExtractor@cppjieba@@@std@@PEAX@2@@?$_Tree@V?$_Tmap_traits@V?$basic_string@DU?$char_traits@D@std@@V?$allocator@D@2@@std@@U_Word@TextRankExtractor@cppjieba@@U?$less@V?$basic_string@DU?$char_traits@D@std@@V?$allocator@D@2@@std@@@2@V?$allocator@U?$pair@$$CBV?$basic_string@DU?$char_traits@D@std@@V?$allocator@D@2@@std@@U_Word@TextRankExtractor@cppjieba@@@std@@@2@$0A@@std@@@std@@IEAA?AU?$pair@V?$_Tree_iterator@V?$_Tree_val@U?$_Tree_simple_types@U?$pair@$$CBV?$basic_string@DU?$char_traits@D@std@@V?$allocator@D@2@@std@@U_Word@TextRankExtractor@cppjieba@@@std@@@std@@@std@@@std@@_N@1@_NAEAU?$pair@$$CBV?$basic_string@DU?$char_traits@D@std@@V?$allocator@D@2@@std@@U_Word@TextRankExtractor@cppjieba@@@1@PEAU?$_Tree_node@U?$pair@$$CBV?$basic_string@DU?$char_traits@D@std@@V?$allocator@D@2@@std@@U_Word@TextRankExtractor@cppjieba@@@std@@PEAX@1@@Z 00000001800211b0 f i nodejieba.obj
 0001:000201b0       ??$_Insert_nohint@AEAU?$pair@$$CBV?$basic_string@DU?$char_traits@D@std@@V?$allocator@D@2@@std@@UWord@KeywordExtractor@cppjieba@@@std@@PEAU?$_Tree_node@U?$pair@$$CBV?$basic_string@DU?$char_traits@D@std@@V?$allocator@D@2@@std@@UWord@KeywordExtractor@cppjieba@@@std@@PEAX@2@@?$_Tree@V?$_Tmap_traits@V?$basic_string@DU?$char_traits@D@std@@V?$allocator@D@2@@std@@UWord@KeywordExtractor@cppjieba@@U?$less@V?$basic_string@DU?$char_traits@D@std@@V?$allocator@D@2@@std@@@2@V?$allocator@U?$pair@$$CBV?$basic_string@DU?$char_traits@D@std@@V?$allocator@D@2@@std@@UWord@KeywordExtractor@cppjieba@@@std@@@2@$0A@@std@@@std@@IEAA?AU?$pair@V?$_Tree_iterator@V?$_Tree_val@U?$_Tree_simple_types@U?$pair@$$CBV?$basic_string@DU?$char_traits@D@std@@V?$allocator@D@2@@std@@UWord@KeywordExtractor@cppjieba@@@std@@@std@@@std@@@std@@_N@1@_NAEAU?$pair@$$CBV?$basic_string@DU?$char_traits@D@std@@V?$allocator@D@2@@std@@UWord@KeywordExtractor@cppjieba@@@1@PEAU?$_Tree_node@U?$pair@$$CBV?$basic_string@DU?$char_traits@D@std@@V?$allocator@D@2@@std@@UWord@KeywordExtractor@cppjieba@@@std@@PEAX@1@@Z 00000001800211b0 f i nodejieba.obj
 0001:000203a0       ??_E?$basic_ostream@DU?$char_traits@D@std@@@std@@$4PPPPPPPM@A@EAAPEAXI@Z 00000001800213a0 f i nodejieba.obj
 0001:000203ac       ??_E?$basic_ifstream@DU?$char_traits@D@std@@@std@@$4PPPPPPPM@A@EAAPEAXI@Z 00000001800213ac f i nodejieba.obj
 0001:000203b8       ??_E?$basic_istream@DU?$char_traits@D@std@@@std@@$4PPPPPPPM@A@EAAPEAXI@Z 00000001800213b8 f i nodejieba.obj
 0001:000203c4       ??_E?$basic_ostringstream@DU?$char_traits@D@std@@V?$allocator@D@2@@std@@$4PPPPPPPM@A@EAAPEAXI@Z 00000001800213c4 f i nodejieba.obj
 0001:0002041c       __imp_load_?Value@External@v8@@QEBAPEAXXZ 000000018002141c f   node:node.exe
 0001:00020428       __tailMerge_node_exe       0000000180021428     node:node.exe
 0001:000204a1       __imp_load_?New@External@v8@@SA?AV?$Local@VExternal@v8@@@2@PEAVIsolate@2@PEAX@Z 00000001800214a1 f   node:node.exe
 0001:000204ad       __imp_load_?GetCurrentContext@Isolate@v8@@QEAA?AV?$Local@VContext@v8@@@2@XZ 00000001800214ad f   node:node.exe
 0001:000204b9       __imp_load_?GetCurrent@Isolate@v8@@SAPEAV12@XZ 00000001800214b9 f   node:node.exe
 0001:000204c5       __imp_load_?CreateHandle@HandleScope@v8@@KAPEAPEAVObject@internal@2@PEAVIsolate@42@PEAV342@@Z 00000001800214c5 f   node:node.exe
 0001:000204d1       __imp_load_?CreateHandle@HandleScope@v8@@CAPEAPEAVObject@internal@2@PEAVHeapObject@42@PEAV342@@Z 00000001800214d1 f   node:node.exe
 0001:000204dd       __imp_load_??1HandleScope@v8@@QEAA@XZ 00000001800214dd f   node:node.exe
 0001:000204e9       __imp_load_??0HandleScope@v8@@QEAA@PEAVIsolate@1@@Z 00000001800214e9 f   node:node.exe
 0001:000204f5       __imp_load_?GetFunction@FunctionTemplate@v8@@QEAA?AV?$MaybeLocal@VFunction@v8@@@2@V?$Local@VContext@v8@@@2@@Z 00000001800214f5 f   node:node.exe
 0001:00020501       __imp_load_?New@FunctionTemplate@v8@@SA?AV?$Local@VFunctionTemplate@v8@@@2@PEAVIsolate@2@P6AXAEBV?$FunctionCallbackInfo@VValue@v8@@@2@@ZV?$Local@VValue@v8@@@2@V?$Local@VSignature@v8@@@2@HW4ConstructorBehavior@2@W4SideEffectType@2@@Z 0000000180021501 f   node:node.exe
 0001:0002050d       __imp_load_?ToLocalEmpty@V8@v8@@CAXXZ 000000018002150d f   node:node.exe
 0001:00020519       __imp_load_?Escape@EscapableHandleScope@v8@@AEAAPEAPEAVObject@internal@2@PEAPEAV342@@Z 0000000180021519 f   node:node.exe
 0001:00020525       __imp_load_??0EscapableHandleScope@v8@@QEAA@PEAVIsolate@1@@Z 0000000180021525 f   node:node.exe
 0001:00020531       __imp_load_?NewFromUtf8@String@v8@@SA?AV?$MaybeLocal@VString@v8@@@2@PEAVIsolate@2@PEBDW4NewStringType@2@H@Z 0000000180021531 f   node:node.exe
 0001:0002053d       __imp_load_?SlowGetInternalField@Object@v8@@AEAA?AV?$Local@VValue@v8@@@2@H@Z 000000018002153d f   node:node.exe
 0001:00020549       __imp_load_?SetInternalField@Object@v8@@QEAAXHV?$Local@VValue@v8@@@2@@Z 0000000180021549 f   node:node.exe
 0001:00020555       __imp_load_?Set@Object@v8@@QEAA?AV?$Maybe@_N@2@V?$Local@VContext@v8@@@2@V?$Local@VValue@v8@@@2@1@Z 0000000180021555 f   node:node.exe
 0001:00020561       __imp_load_?SetInternalFieldCount@ObjectTemplate@v8@@QEAAXH@Z 0000000180021561 f   node:node.exe
 0001:0002056d       __imp_load_?NewInstance@ObjectTemplate@v8@@QEAA?AV?$MaybeLocal@VObject@v8@@@2@V?$Local@VContext@v8@@@2@@Z 000000018002156d f   node:node.exe
 0001:00020579       __imp_load_?New@ObjectTemplate@v8@@SA?AV?$Local@VObjectTemplate@v8@@@2@PEAVIsolate@2@V?$Local@VFunctionTemplate@v8@@@2@@Z 0000000180021579 f   node:node.exe
 0001:00020585       __imp_load_node_module_register 0000000180021585 f   node:node.exe
 0001:00020591       __imp_load_??1EscapableHandleScope@v8@@QEAA@XZ 0000000180021591 f   node:node.exe
 0001:0002059d       __imp_load_?New@Array@v8@@SA?AV?$Local@VArray@v8@@@2@PEAVIsolate@2@H@Z 000000018002159d f   node:node.exe
 0001:000205a9       __imp_load_?Int32Value@Value@v8@@QEBA?AV?$Maybe@H@2@V?$Local@VContext@v8@@@2@@Z 00000001800215a9 f   node:node.exe
 0001:000205b5       __imp_load_?ToString@Value@v8@@QEBA?AV?$MaybeLocal@VString@v8@@@2@V?$Local@VContext@v8@@@2@@Z 00000001800215b5 f   node:node.exe
 0001:000205c1       __imp_load_?ToBoolean@Value@v8@@QEBA?AV?$MaybeLocal@VBoolean@v8@@@2@V?$Local@VContext@v8@@@2@@Z 00000001800215c1 f   node:node.exe
 0001:000205cd       __imp_load_?WriteUtf8@String@v8@@QEBAHPEADHPEAHH@Z 00000001800215cd f   node:node.exe
 0001:000205d9       __imp_load_?Length@String@v8@@QEBAHXZ 00000001800215d9 f   node:node.exe
 0001:000205e5       __imp_load_?New@Number@v8@@SA?AV?$Local@VNumber@v8@@@2@PEAVIsolate@2@N@Z 00000001800215e5 f   node:node.exe
 0001:000205f1       __imp_load_?New@Object@v8@@SA?AV?$Local@VObject@v8@@@2@PEAVIsolate@2@@Z 00000001800215f1 f   node:node.exe
 0001:000205fd       __imp_load_?Set@Object@v8@@QEAA_NV?$Local@VValue@v8@@@2@0@Z 00000001800215fd f   node:node.exe
 0001:00020609       __imp_load_?Set@Object@v8@@QEAA_NIV?$Local@VValue@v8@@@2@@Z 0000000180021609 f   node:node.exe
 0001:00020618       ??0_Init_locks@std@@QEAA@XZ 0000000180021618 f   libcpmt:xlock.obj
 0001:00020664       ??0_Lockit@std@@QEAA@H@Z   0000000180021664 f   libcpmt:xlock.obj
 0001:000206a0       ??1_Init_locks@std@@QEAA@XZ 00000001800216a0 f   libcpmt:xlock.obj
 0001:000206e4       ??1_Lockit@std@@QEAA@XZ    00000001800216e4 f   libcpmt:xlock.obj
 0001:00020718       ??0exception@std@@QEAA@AEBV01@@Z 0000000180021718 f i libcpmt:xonce.obj
 0001:00020750       ??_Gout_of_range@std@@UEAAPEAXI@Z 0000000180021750 f i libcpmt:xthrow.obj
 0001:00020750       ??_Ebad_array_new_length@std@@UEAAPEAXI@Z 0000000180021750 f i LIBCMT:throw_bad_alloc.obj
 0001:00020750       ??_Gbad_exception@std@@UEAAPEAXI@Z 0000000180021750 f i libvcruntime:frame.obj
 0001:00020750       ??_Gexception@std@@UEAAPEAXI@Z 0000000180021750 f i libcpmt:xonce.obj
 0001:00020750       ??_Glogic_error@std@@UEAAPEAXI@Z 0000000180021750 f i libcpmt:xthrow.obj
 0001:00020750       ??_Eout_of_range@std@@UEAAPEAXI@Z 0000000180021750 f i libcpmt:xthrow.obj
 0001:00020750       ??_Elogic_error@std@@UEAAPEAXI@Z 0000000180021750 f i libcpmt:xthrow.obj
 0001:00020750       ??_Elength_error@std@@UEAAPEAXI@Z 0000000180021750 f i libcpmt:xthrow.obj
 0001:00020750       ??_Gbad_alloc@std@@UEAAPEAXI@Z 0000000180021750 f i libcpmt:xthrow.obj
 0001:00020750       ??_Ebad_exception@std@@UEAAPEAXI@Z 0000000180021750 f i libvcruntime:frame.obj
 0001:00020750       ??_Gbad_array_new_length@std@@UEAAPEAXI@Z 0000000180021750 f i LIBCMT:throw_bad_alloc.obj
 0001:00020750       ??_Glength_error@std@@UEAAPEAXI@Z 0000000180021750 f i libcpmt:xthrow.obj
 0001:00020750       ??_Eexception@std@@UEAAPEAXI@Z 0000000180021750 f i libcpmt:xonce.obj
 0001:00020750       ??_Ebad_alloc@std@@UEAAPEAXI@Z 0000000180021750 f i libcpmt:xthrow.obj
 0001:00020794       ?_Execute_once@std@@YAHAEAUonce_flag@1@P6AHPEAX1PEAPEAX@Z1@Z 0000000180021794 f   libcpmt:xonce.obj
 0001:0002079c       ?what@exception@std@@UEBAPEBDXZ 000000018002179c f i libcpmt:xonce.obj
 0001:000207b0       ??1_Fac_tidy_reg_t@std@@QEAA@XZ 00000001800217b0 f i libcpmt:locale0.obj
 0001:00020818       ??4?$_Yarn@D@std@@QEAAAEAV01@PEBD@Z 0000000180021818 f i libcpmt:locale0.obj
 0001:00020890       ??_G_Locimp@locale@std@@MEAAPEAXI@Z 0000000180021890 f i libcpmt:locale0.obj
 0001:00020890       ??_E_Locimp@locale@std@@MEAAPEAXI@Z 0000000180021890 f i libcpmt:locale0.obj
 0001:000208fc       ?_Facet_Register@std@@YAXPEAV_Facet_base@1@@Z 00000001800218fc f   libcpmt:locale0.obj
 0001:00020934       ?_Getgloballocale@locale@std@@CAPEAV_Locimp@12@XZ 0000000180021934 f   libcpmt:locale0.obj
 0001:0002093c       ?_Init@locale@std@@CAPEAV_Locimp@12@_N@Z 000000018002193c f   libcpmt:locale0.obj
 0001:000209e8       ?_Locimp_dtor@_Locimp@locale@std@@CAXPEAV123@@Z 00000001800219e8 f   libcpmt:locale0.obj
 0001:00020a70       ?_Locinfo_ctor@_Locinfo@std@@SAXPEAV12@PEBD@Z 0000000180021a70 f   libcpmt:locale0.obj
 0001:00020adc       ?_Locinfo_dtor@_Locinfo@std@@SAXPEAV12@@Z 0000000180021adc f   libcpmt:locale0.obj
 0001:00020af8       ?_New_Locimp@_Locimp@locale@std@@CAPEAV123@_N@Z 0000000180021af8 f   libcpmt:locale0.obj
 0001:00020b68       ?_Setgloballocale@locale@std@@CAXPEAX@Z 0000000180021b68 f   libcpmt:locale0.obj
 0001:00020b9c       _Deletegloballocale        0000000180021b9c f   libcpmt:locale0.obj
 0001:00020c0c       ??0bad_alloc@std@@QEAA@AEBV01@@Z 0000000180021c0c f i libcpmt:xthrow.obj
 0001:00020c4c       ??0bad_alloc@std@@QEAA@XZ  0000000180021c4c f i libcpmt:xthrow.obj
 0001:00020c6c       ??0length_error@std@@QEAA@AEBV01@@Z 0000000180021c6c f i libcpmt:xthrow.obj
 0001:00020cac       ??0length_error@std@@QEAA@PEBD@Z 0000000180021cac f i libcpmt:xthrow.obj
 0001:00020cf8       ??0logic_error@std@@QEAA@AEBV01@@Z 0000000180021cf8 f i libcpmt:xthrow.obj
 0001:00020d38       ??0out_of_range@std@@QEAA@AEBV01@@Z 0000000180021d38 f i libcpmt:xthrow.obj
 0001:00020d78       ??0out_of_range@std@@QEAA@PEBD@Z 0000000180021d78 f i libcpmt:xthrow.obj
 0001:00020dc4       ??1bad_exception@std@@UEAA@XZ 0000000180021dc4 f i libvcruntime:frame.obj
 0001:00020dc4       ??1bad_alloc@std@@UEAA@XZ  0000000180021dc4 f i libcpmt:xthrow.obj
 0001:00020dc4       ??1length_error@std@@UEAA@XZ 0000000180021dc4 f i libcpmt:xthrow.obj
 0001:00020dc4       ??1out_of_range@std@@UEAA@XZ 0000000180021dc4 f i libcpmt:xthrow.obj
 0001:00020dc4       ??1bad_array_new_length@std@@UEAA@XZ 0000000180021dc4 f i LIBCMT:throw_bad_alloc.obj
 0001:00020dd8       ?_Xbad_alloc@std@@YAXXZ    0000000180021dd8 f   libcpmt:xthrow.obj
 0001:00020dd8       ?__scrt_throw_std_bad_alloc@@YAXXZ 0000000180021dd8 f   LIBCMT:throw_bad_alloc.obj
 0001:00020df8       ?_Xlength_error@std@@YAXPEBD@Z 0000000180021df8 f   libcpmt:xthrow.obj
 0001:00020e1c       ?_Xout_of_range@std@@YAXPEBD@Z 0000000180021e1c f   libcpmt:xthrow.obj
 0001:00020e40       ?_Addstd@ios_base@std@@SAXPEAV12@@Z 0000000180021e40 f   libcpmt:ios.obj
 0001:00020eb8       ?_Ios_base_dtor@ios_base@std@@CAXPEAV12@@Z 0000000180021eb8 f   libcpmt:ios.obj
 0001:00020f38       ?_Tidy@ios_base@std@@AEAAXXZ 0000000180021f38 f i libcpmt:ios.obj
 0001:00020fb8       ??$_Xfiopen@D@std@@YAPEAU_iobuf@@PEBDHH@Z 0000000180021fb8 f i libcpmt:fiopen.obj
 0001:000210c0       ?_Fiopen@std@@YAPEAU_iobuf@@PEBDHH@Z 00000001800220c0 f   libcpmt:fiopen.obj
 0001:000210c8       ?_Syserror_map@std@@YAPEBDH@Z 00000001800220c8 f   libcpmt:syserror.obj
 0001:000210f0       _Getctype                  00000001800220f0 f   libcpmt:_tolower.obj
 0001:000211b8       _Tolower                   00000001800221b8 f   libcpmt:_tolower.obj
 0001:000212e8       _Getcvt                    00000001800222e8 f   libcpmt:xwctomb.obj
 0001:00021378       _Toupper                   0000000180022378 f   libcpmt:_toupper.obj
 0001:000214b8       _Mtxdst                    00000001800224b8 f   libcpmt:xmtx.obj
 0001:000214c0       _Mtxinit                   00000001800224c0 f   libcpmt:xmtx.obj
 0001:000214d0       _Mtxlock                   00000001800224d0 f   libcpmt:xmtx.obj
 0001:000214d8       _Mtxunlock                 00000001800224d8 f   libcpmt:xmtx.obj
 0001:000219b0       __crtInitOnceExecuteOnce   00000001800229b0 f   libcpmt:winapisupp.obj
 0001:00021a7c       __crtInitializeCriticalSectionEx 0000000180022a7c f   libcpmt:winapisupp.obj
 0001:00021aac       ?_Atexit@@YAXP6AXXZ@Z      0000000180022aac f   libcpmt:iosptrs.obj
 0001:00021aec       __crtLCMapStringA          0000000180022aec f   libcpmt:StlLCMapStringA.obj
 0001:00021da0       GetTableIndexFromLocaleName 0000000180022da0 f   libcpmt:winapinls.obj
 0001:00021e30       __crtDownlevelLocaleNameToLCID 0000000180022e30 f   libcpmt:winapinls.obj
 0001:00021e64       __crtLCMapStringEx         0000000180022e64 f   libcpmt:winapinls.obj
 0001:00021f00       __wcsnicmp_ascii           0000000180022f00 f   libcpmt:winapinls.obj
 0001:00021f80       __security_check_cookie    0000000180022f80 f   LIBCMT:amdsecgs.obj
 0001:00021fa4       ??_V@YAXPEAX@Z             0000000180022fa4 f   LIBCMT:delete_array.obj
 0001:00021fa4       ??3@YAXPEAX_K@Z            0000000180022fa4 f   LIBCMT:delete_scalar_size.obj
 0001:00021fac       ??2@YAPEAX_K@Z             0000000180022fac f   LIBCMT:new_scalar.obj
 0001:00021fe8       __scrt_acquire_startup_lock 0000000180022fe8 f   LIBCMT:utility.obj
 0001:00022024       __scrt_dllmain_after_initialize_c 0000000180023024 f   LIBCMT:utility.obj
 0001:00022058       __scrt_dllmain_before_initialize_c 0000000180023058 f   LIBCMT:utility.obj
 0001:00022070       __scrt_dllmain_crt_thread_attach 0000000180023070 f   LIBCMT:utility.obj
 0001:00022098       __scrt_dllmain_crt_thread_detach 0000000180023098 f   LIBCMT:utility.obj
 0001:000220b0       __scrt_dllmain_exception_filter 00000001800230b0 f   LIBCMT:utility.obj
 0001:00022110       __scrt_dllmain_uninitialize_c 0000000180023110 f   LIBCMT:utility.obj
 0001:00022140       __scrt_dllmain_uninitialize_critical 0000000180023140 f   LIBCMT:utility.obj
 0001:00022154       __scrt_initialize_crt      0000000180023154 f   LIBCMT:utility.obj
 0001:000221a0       __scrt_initialize_onexit_tables 00000001800231a0 f   LIBCMT:utility.obj
 0001:00022278       __scrt_is_nonwritable_in_current_image 0000000180023278 f   LIBCMT:utility.obj
 0001:00022314       __scrt_release_startup_lock 0000000180023314 f   LIBCMT:utility.obj
 0001:00022338       __scrt_uninitialize_crt    0000000180023338 f   LIBCMT:utility.obj
 0001:00022364       _onexit                    0000000180023364 f   LIBCMT:utility.obj
 0001:000223b4       atexit                     00000001800233b4 f   LIBCMT:utility.obj
 0001:000226fc       _DllMainCRTStartup         00000001800236fc f   LIBCMT:dll_dllmain.obj
 0001:0002273c       __GSHandlerCheck           000000018002373c f   LIBCMT:gshandler.obj
 0001:0002275c       __GSHandlerCheckCommon     000000018002375c f   LIBCMT:gshandler.obj
 0001:000227b8       __GSHandlerCheck_EH        00000001800237b8 f   LIBCMT:gshandlereh.obj
 0001:00022838       ??_Etype_info@@UEAAPEAXI@Z 0000000180023838 f i LIBCMT:std_type_info_static.obj
 0001:00022838       ??_Gtype_info@@UEAAPEAXI@Z 0000000180023838 f i LIBCMT:std_type_info_static.obj
 0001:00022880       _alloca_probe              0000000180023880 f   LIBCMT:chkstk.obj
 0001:00022880       __chkstk                   0000000180023880 f   LIBCMT:chkstk.obj
 0001:000228d4       __raise_securityfailure    00000001800238d4 f   LIBCMT:gs_report.obj
 0001:00022908       __report_gsfailure         0000000180023908 f   LIBCMT:gs_report.obj
 0001:000229dc       __report_rangecheckfailure 00000001800239dc f   LIBCMT:gs_report.obj
 0001:000229f0       __report_securityfailure   00000001800239f0 f   LIBCMT:gs_report.obj
 0001:00022b70       ??3@YAXPEAX@Z              0000000180023b70 f   LIBCMT:delete_scalar.obj
 0001:00022b78       ??0bad_array_new_length@std@@QEAA@AEBV01@@Z 0000000180023b78 f i LIBCMT:throw_bad_alloc.obj
 0001:00022bb8       ??0bad_array_new_length@std@@QEAA@XZ 0000000180023bb8 f i LIBCMT:throw_bad_alloc.obj
 0001:00022bd8       ?__scrt_throw_std_bad_array_new_length@@YAXXZ 0000000180023bd8 f   LIBCMT:throw_bad_alloc.obj
 0001:00022bf8       __isa_available_init       0000000180023bf8 f   LIBCMT:cpu_disp.obj
 0001:00022db4       __scrt_is_ucrt_dll_in_use  0000000180023db4 f   LIBCMT:ucrt_detection.obj
 0001:00022dc0       __crt_debugger_hook        0000000180023dc0 f   LIBCMT:utility_desktop.obj
 0001:00022dc8       __scrt_fastfail            0000000180023dc8 f   LIBCMT:utility_desktop.obj
 0001:00022f14       __security_init_cookie     0000000180023f14 f   LIBCMT:gs_support.obj
 0001:00022fc0       ?__scrt_initialize_type_info@@YAXXZ 0000000180023fc0 f   LIBCMT:tncleanup.obj
 0001:00022fd0       ?__scrt_uninitialize_type_info@@YAXXZ 0000000180023fd0 f   LIBCMT:tncleanup.obj
 0001:00022fdc       __local_stdio_scanf_options 0000000180023fdc f i LIBCMT:default_local_stdio_options.obj
 0001:00022fe4       __scrt_initialize_default_local_stdio_options 0000000180023fe4 f   LIBCMT:default_local_stdio_options.obj
 0001:00023000       __scrt_get_dyn_tls_init_callback 0000000180024000 f   LIBCMT:dyn_tls_init.obj
 0001:00023008       _RTC_Initialize            0000000180024008 f   LIBCMT:initsect.obj
 0001:00023044       _RTC_Terminate             0000000180024044 f   LIBCMT:initsect.obj
 0001:00023080       ??$_CallSETranslator@V__FrameHandler3@@@@YAHPEAUEHExceptionRecord@@PEA_KPEAU_CONTEXT@@PEAU_xDISPATCHER_CONTEXT@@PEBU_s_FuncInfo@@K1@Z 0000000180024080 f i libvcruntime:risctrnsctrl.obj
 0001:000230d4       ?CatchTryBlock@__FrameHandler3@@SAPEBU_s_TryBlockMapEntry@@PEBU_s_FuncInfo@@H@Z 00000001800240d4 f   libvcruntime:risctrnsctrl.obj
 0001:0002312c       ?ExecutionInCatch@__FrameHandler3@@SA_NPEAU_xDISPATCHER_CONTEXT@@PEBU_s_FuncInfo@@@Z 000000018002412c f   libvcruntime:risctrnsctrl.obj
 0001:00023158       ?FrameUnwindToEmptyState@__FrameHandler3@@SAXPEA_KPEAU_xDISPATCHER_CONTEXT@@PEBU_s_FuncInfo@@@Z 0000000180024158 f   libvcruntime:risctrnsctrl.obj
 0001:000231bc       ?GetEstablisherFrame@__FrameHandler3@@SAPEA_KPEA_KPEAU_xDISPATCHER_CONTEXT@@PEBU_s_FuncInfo@@0@Z 00000001800241bc f   libvcruntime:risctrnsctrl.obj
 0001:00023288       ?GetRangeOfTrysToCheck@__FrameHandler3@@SA?AU?$pair@Viterator@TryBlockMap@__FrameHandler3@@V123@@std@@AEAVTryBlockMap@1@HH@Z 0000000180024288 f   libvcruntime:risctrnsctrl.obj
 0001:000233e4       ?UnwindNestedFrames@__FrameHandler3@@SAXPEA_KPEAUEHExceptionRecord@@PEAU_CONTEXT@@0PEAXPEBU_s_FuncInfo@@HHPEBU_s_HandlerType@@PEAU_xDISPATCHER_CONTEXT@@E@Z 00000001800243e4 f   libvcruntime:risctrnsctrl.obj
 0001:00023508       _CreateFrameInfo           0000000180024508 f   libvcruntime:risctrnsctrl.obj
 0001:00023544       _FindAndUnlinkFrame        0000000180024544 f   libvcruntime:risctrnsctrl.obj
 0001:00023598       _GetImageBase              0000000180024598 f   libvcruntime:risctrnsctrl.obj
 0001:000235ac       _GetThrowImageBase         00000001800245ac f   libvcruntime:risctrnsctrl.obj
 0001:000235c0       _SetImageBase              00000001800245c0 f   libvcruntime:risctrnsctrl.obj
 0001:000235d8       _SetThrowImageBase         00000001800245d8 f   libvcruntime:risctrnsctrl.obj
 0001:000235f0       __CxxFrameHandler3         00000001800245f0 f   libvcruntime:risctrnsctrl.obj
 0001:00023670       __DestructExceptionObject  0000000180024670 f   libvcruntime:ehhelpers.obj
 0001:000236e4       ?_CallMemberFunction0@@YAXQEAX0@Z 00000001800246e4 f i libvcruntime:ehhelpers.obj
 0001:000236e8       _IsExceptionObjectToBeDestroyed 00000001800246e8 f   libvcruntime:ehhelpers.obj
 0001:00023718       __AdjustPointer            0000000180024718 f   libvcruntime:ehhelpers.obj
 0001:0002373c       __FrameUnwindFilter        000000018002473c f   libvcruntime:ehhelpers.obj
 0001:00023788       __std_terminate            0000000180024788 f   libvcruntime:ehhelpers.obj
 0001:00023794       _purecall                  0000000180024794 f   libvcruntime:purevirt.obj
 0001:000237c4       __std_exception_copy       00000001800247c4 f   libvcruntime:std_exception.obj
 0001:00023854       __std_exception_destroy    0000000180024854 f   libvcruntime:std_exception.obj
 0001:0002387c       _CxxThrowException         000000018002487c f   libvcruntime:throw.obj
 0001:00023950       memcpy_repmovs             0000000180024950 f   libvcruntime:memcpy.obj
 0001:00023970       memmove                    0000000180024970 f   libvcruntime:memcpy.obj
 0001:00023970       memcpy                     0000000180024970 f   libvcruntime:memcpy.obj
 0001:00023dc0       memset_repmovs             0000000180024dc0 f   libvcruntime:memset.obj
 0001:00023de0       memset                     0000000180024de0 f   libvcruntime:memset.obj
 0001:00023f80       memchr                     0000000180024f80 f   libvcruntime:memchr.obj
 0001:00024000       memcmp                     0000000180025000 f   libvcruntime:memcmp.obj
 0001:000240c8       __vcrt_initialize          00000001800250c8 f   libvcruntime:initialization.obj
 0001:000240fc       __vcrt_thread_attach       00000001800250fc f   libvcruntime:initialization.obj
 0001:00024110       __vcrt_thread_detach       0000000180025110 f   libvcruntime:initialization.obj
 0001:00024124       __vcrt_uninitialize        0000000180025124 f   libvcruntime:initialization.obj
 0001:00024144       __vcrt_uninitialize_critical 0000000180025144 f   libvcruntime:initialization.obj
 0001:00024154       __C_specific_handler       0000000180025154 f   libvcruntime:riscchandler.obj
 0001:00024360       __std_type_info_compare    0000000180025360 f   libvcruntime:std_type_info.obj
 0001:00024388       __std_type_info_destroy_list 0000000180025388 f   libvcruntime:std_type_info.obj
 0001:000243b4       __vcrt_freefls             00000001800253b4 f   libvcruntime:per_thread_data.obj
 0001:000243d4       __vcrt_freeptd             00000001800253d4 f   libvcruntime:per_thread_data.obj
 0001:00024424       __vcrt_getptd              0000000180025424 f   libvcruntime:per_thread_data.obj
 0001:00024440       __vcrt_getptd_noexit       0000000180025440 f   libvcruntime:per_thread_data.obj
 0001:0002450c       __vcrt_initialize_ptd      000000018002550c f   libvcruntime:per_thread_data.obj
 0001:00024560       __vcrt_uninitialize_ptd    0000000180025560 f   libvcruntime:per_thread_data.obj
 0001:00024584       ?GetCurrentState@__FrameHandler3@@SAHPEA_KPEAU_xDISPATCHER_CONTEXT@@PEBU_s_FuncInfo@@@Z 0000000180025584 f   libvcruntime:ehstate.obj
 0001:000245ac       ?GetUnwindTryBlock@__FrameHandler3@@SAHPEA_KPEAU_xDISPATCHER_CONTEXT@@PEBU_s_FuncInfo@@@Z 00000001800255ac f   libvcruntime:ehstate.obj
 0001:000245d8       ?SetState@__FrameHandler3@@SAXPEA_KPEBU_s_FuncInfo@@H@Z 00000001800255d8 f   libvcruntime:ehstate.obj
 0001:000245e4       ?SetUnwindTryBlock@__FrameHandler3@@SAXPEA_KPEAU_xDISPATCHER_CONTEXT@@PEBU_s_FuncInfo@@H@Z 00000001800255e4 f   libvcruntime:ehstate.obj
 0001:00024620       ?StateFromControlPc@__FrameHandler3@@SAHPEBU_s_FuncInfo@@PEAU_xDISPATCHER_CONTEXT@@@Z 0000000180025620 f   libvcruntime:ehstate.obj
 0001:00024628       ?StateFromIp@__FrameHandler3@@SAHPEBU_s_FuncInfo@@PEAU_xDISPATCHER_CONTEXT@@_K@Z 0000000180025628 f   libvcruntime:ehstate.obj
 0001:000250b4       ??$TypeMatchHelper@V__FrameHandler3@@@@YAHPEBU_s_HandlerType@@PEBU_s_CatchableType@@PEBU_s_ThrowInfo@@@Z 00000001800260b4 f i libvcruntime:frame.obj
 0001:000251f8       ??$__InternalCxxFrameHandler@V__FrameHandler3@@@@YA?AW4_EXCEPTION_DISPOSITION@@PEAUEHExceptionRecord@@PEA_KPEAU_CONTEXT@@PEAU_xDISPATCHER_CONTEXT@@PEBU_s_FuncInfo@@H1E@Z 00000001800261f8 f i libvcruntime:frame.obj
 0001:00025440       ??0bad_exception@std@@QEAA@AEBV01@@Z 0000000180026440 f i libvcruntime:frame.obj
 0001:00025480       ??0bad_exception@std@@QEAA@XZ 0000000180026480 f i libvcruntime:frame.obj
 0001:000254a0       ?CxxCallCatchBlock@__FrameHandler3@@SAPEAXPEAU_EXCEPTION_RECORD@@@Z 00000001800264a0 f   libvcruntime:frame.obj
 0001:00025714       ?FrameUnwindToState@__FrameHandler3@@SAXPEA_KPEAU_xDISPATCHER_CONTEXT@@PEBU_s_FuncInfo@@H@Z 0000000180026714 f   libvcruntime:frame.obj
 0001:000258a8       ?GetHandlerSearchState@__FrameHandler3@@SAHPEA_KPEAU_xDISPATCHER_CONTEXT@@PEBU_s_FuncInfo@@@Z 00000001800268a8 f i libvcruntime:frame.obj
 0001:00025aac       ?_CallMemberFunction1@@YAXQEAX00@Z 0000000180026aac f i libvcruntime:frame.obj
 0001:00025ab8       ?_CallMemberFunction2@@YAXQEAX00H@Z 0000000180026ab8 f i libvcruntime:frame.obj
 0001:00025ac8       __vcrt_initialize_pure_virtual_call_handler 0000000180026ac8 f   libvcruntime:purevirt_data.obj
 0001:00025ad8       __vcrt_initialize_locks    0000000180026ad8 f   libvcruntime:locks.obj
 0001:00025b20       __vcrt_uninitialize_locks  0000000180026b20 f   libvcruntime:locks.obj
 0001:00025d30       __vcrt_FlsAlloc            0000000180026d30 f   libvcruntime:winapi_downlevel.obj
 0001:00025d78       __vcrt_FlsFree             0000000180026d78 f   libvcruntime:winapi_downlevel.obj
 0001:00025dc0       __vcrt_FlsGetValue         0000000180026dc0 f   libvcruntime:winapi_downlevel.obj
 0001:00025e08       __vcrt_FlsSetValue         0000000180026e08 f   libvcruntime:winapi_downlevel.obj
 0001:00025e5c       __vcrt_InitializeCriticalSectionEx 0000000180026e5c f   libvcruntime:winapi_downlevel.obj
 0001:00025ec0       __vcrt_initialize_winapi_thunks 0000000180026ec0 f   libvcruntime:winapi_downlevel.obj
 0001:00025ef0       __vcrt_uninitialize_winapi_thunks 0000000180026ef0 f   libvcruntime:winapi_downlevel.obj
 0001:00025f40       _NLG_Notify                0000000180026f40 f   libvcruntime:notify.obj
 0001:00025f60       __NLG_Dispatch2            0000000180026f60 f   libvcruntime:notify.obj
 0001:00025f70       __NLG_Return2              0000000180026f70 f   libvcruntime:notify.obj
 0001:00025f74       __except_validate_context_record 0000000180026f74 f   libvcruntime:jbcxrval.obj
 0001:00025fc0       _CallSettingFrame          0000000180026fc0 f   libvcruntime:handlers.obj
 0001:00026010       _CallSettingFrameEncoded   0000000180027010 f   libvcruntime:handlers.obj
 0001:00026058       abort                      0000000180027058 f   libucrt:abort.obj
 0001:000260b0       _fputc_nolock              00000001800270b0 f   libucrt:fputc.obj
 0001:000260c8       fputc                      00000001800270c8 f   libucrt:fputc.obj
 0001:000261ec       calloc                     00000001800271ec f   libucrt:calloc.obj
 0001:000261f4       __acrt_call_reportfault    00000001800271f4 f   libucrt:invalid_parameter.obj
 0001:00026350       __acrt_initialize_invalid_parameter_handler 0000000180027350 f   libucrt:invalid_parameter.obj
 0001:00026358       _invalid_parameter         0000000180027358 f   libucrt:invalid_parameter.obj
 0001:00026408       _invalid_parameter_noinfo  0000000180027408 f   libucrt:invalid_parameter.obj
 0001:00026428       _invalid_parameter_noinfo_noreturn 0000000180027428 f   libucrt:invalid_parameter.obj
 0001:00026458       _invoke_watson             0000000180027458 f   libucrt:invalid_parameter.obj
 0001:000266bc       __acrt_stdio_flush_nolock  00000001800276bc f   libucrt:fflush.obj
 0001:00026738       _fflush_nolock             0000000180027738 f   libucrt:fflush.obj
 0001:00026784       _flushall                  0000000180027784 f   libucrt:fflush.obj
 0001:0002678c       fflush                     000000018002778c f   libucrt:fflush.obj
 0001:000267f4       _fclose_nolock             00000001800277f4 f   libucrt:fclose.obj
 0001:00026878       fclose                     0000000180027878 f   libucrt:fclose.obj
 0001:000268dc       ??$__acrt_mbs_to_wcs_cp@U__crt_win32_buffer_internal_dynamic_resizing@@@@YAHQEBDAEAV?$__crt_win32_buffer@_WU__crt_win32_buffer_internal_dynamic_resizing@@@@I@Z 00000001800278dc f i libucrt:strftime.obj
 0001:00026a54       ??$__acrt_wcs_to_mbs_cp@U__crt_win32_buffer_no_resizing@@@@YAHQEB_WAEAV?$__crt_win32_buffer@DU__crt_win32_buffer_no_resizing@@@@I@Z 0000000180027a54 f i libucrt:strftime.obj
 0001:00026b68       ??0_LocaleUpdate@@QEAA@QEAU__crt_locale_pointers@@@Z 0000000180027b68 f i libucrt:strftime.obj
 0001:00026c04       ??1_LocaleUpdate@@QEAA@XZ  0000000180027c04 f i libucrt:strftime.obj
 0001:00026c18       _Strftime_l                0000000180027c18 f   libucrt:strftime.obj
 0001:00026d7c       strftime                   0000000180027d7c f   libucrt:strftime.obj
 0001:00026e40       strcspn                    0000000180027e40 f   libucrt:strcspn.obj
 0001:000275e4       ??$ensure_buffer_is_big_enough@D@formatting_buffer@__crt_stdio_output@@QEAA_N_K@Z 00000001800285e4 f i libucrt:output.obj
 0001:0002768c       ??$ensure_buffer_is_big_enough@_W@formatting_buffer@__crt_stdio_output@@QEAA_N_K@Z 000000018002868c f i libucrt:output.obj
 0001:00027738       ??$is_wide_character_specifier@_W@__crt_stdio_output@@YA_N_K_WW4length_modifier@0@@Z 0000000180028738 f i libucrt:output.obj
 0001:00027778       ??$type_case_integer_parse_into_buffer@I@?$output_processor@DV?$string_output_adapter@D@__crt_stdio_output@@V?$format_validation_base@DV?$string_output_adapter@D@__crt_stdio_output@@@2@@__crt_stdio_output@@AEAAXII_N@Z 0000000180028778 f i libucrt:output.obj
 0001:00027808       ??$type_case_integer_parse_into_buffer@I@?$output_processor@_WV?$stream_output_adapter@_W@__crt_stdio_output@@V?$standard_base@_WV?$stream_output_adapter@_W@__crt_stdio_output@@@2@@__crt_stdio_output@@AEAAXII_N@Z 0000000180028808 f i libucrt:output.obj
 0001:00027808       ??$type_case_integer_parse_into_buffer@I@?$output_processor@_WV?$string_output_adapter@_W@__crt_stdio_output@@V?$standard_base@_WV?$string_output_adapter@_W@__crt_stdio_output@@@2@@__crt_stdio_output@@AEAAXII_N@Z 0000000180028808 f i libucrt:output.obj
 0001:000278ac       ??$type_case_integer_parse_into_buffer@_K@?$output_processor@DV?$string_output_adapter@D@__crt_stdio_output@@V?$format_validation_base@DV?$string_output_adapter@D@__crt_stdio_output@@@2@@__crt_stdio_output@@AEAAX_KI_N@Z 00000001800288ac f i libucrt:output.obj
 0001:00027940       ??$type_case_integer_parse_into_buffer@_K@?$output_processor@_WV?$stream_output_adapter@_W@__crt_stdio_output@@V?$standard_base@_WV?$stream_output_adapter@_W@__crt_stdio_output@@@2@@__crt_stdio_output@@AEAAX_KI_N@Z 0000000180028940 f i libucrt:output.obj
 0001:00027940       ??$type_case_integer_parse_into_buffer@_K@?$output_processor@_WV?$string_output_adapter@_W@__crt_stdio_output@@V?$standard_base@_WV?$string_output_adapter@_W@__crt_stdio_output@@@2@@__crt_stdio_output@@AEAAX_KI_N@Z 0000000180028940 f i libucrt:output.obj
 0001:000279e4       ??$write_multiple_characters@V?$stream_output_adapter@_W@__crt_stdio_output@@D@__crt_stdio_output@@YAXAEBV?$stream_output_adapter@_W@0@DHQEAH@Z 00000001800289e4 f i libucrt:output.obj
 0001:00027a78       ??$write_multiple_characters@V?$string_output_adapter@D@__crt_stdio_output@@D@__crt_stdio_output@@YAXAEBV?$string_output_adapter@D@0@DHQEAH@Z 0000000180028a78 f i libucrt:output.obj
 0001:00027af0       ??$write_multiple_characters@V?$string_output_adapter@_W@__crt_stdio_output@@D@__crt_stdio_output@@YAXAEBV?$string_output_adapter@_W@0@DHQEAH@Z 0000000180028af0 f i libucrt:output.obj
 0001:00027ca0       ?crop_zeroes@__crt_stdio_output@@YAXPEADQEAU__crt_locale_pointers@@@Z 0000000180028ca0 f i libucrt:output.obj
 0001:00027d0c       ?force_decimal_point@__crt_stdio_output@@YAXPEADQEAU__crt_locale_pointers@@@Z 0000000180028d0c f i libucrt:output.obj
 0001:00027d7c       ?parse_int_from_format_string@?$output_processor@DV?$string_output_adapter@D@__crt_stdio_output@@V?$format_validation_base@DV?$string_output_adapter@D@__crt_stdio_output@@@2@@__crt_stdio_output@@AEAA_NQEAH@Z 0000000180028d7c f i libucrt:output.obj
 0001:00027e20       ?parse_int_from_format_string@?$output_processor@_WV?$stream_output_adapter@_W@__crt_stdio_output@@V?$standard_base@_WV?$stream_output_adapter@_W@__crt_stdio_output@@@2@@__crt_stdio_output@@AEAA_NQEAH@Z 0000000180028e20 f i libucrt:output.obj
 0001:00027e20       ?parse_int_from_format_string@?$output_processor@_WV?$string_output_adapter@_W@__crt_stdio_output@@V?$standard_base@_WV?$string_output_adapter@_W@__crt_stdio_output@@@2@@__crt_stdio_output@@AEAA_NQEAH@Z 0000000180028e20 f i libucrt:output.obj
 0001:00027ec4       ?process@?$output_processor@DV?$string_output_adapter@D@__crt_stdio_output@@V?$format_validation_base@DV?$string_output_adapter@D@__crt_stdio_output@@@2@@__crt_stdio_output@@QEAAHXZ 0000000180028ec4 f i libucrt:output.obj
 0001:000280dc       ?process@?$output_processor@_WV?$stream_output_adapter@_W@__crt_stdio_output@@V?$standard_base@_WV?$stream_output_adapter@_W@__crt_stdio_output@@@2@@__crt_stdio_output@@QEAAHXZ 00000001800290dc f i libucrt:output.obj
 0001:00028348       ?process@?$output_processor@_WV?$string_output_adapter@_W@__crt_stdio_output@@V?$standard_base@_WV?$string_output_adapter@_W@__crt_stdio_output@@@2@@__crt_stdio_output@@QEAAHXZ 0000000180029348 f i libucrt:output.obj
 0001:000285c4       ?state_case_normal@?$output_processor@DV?$string_output_adapter@D@__crt_stdio_output@@V?$format_validation_base@DV?$string_output_adapter@D@__crt_stdio_output@@@2@@__crt_stdio_output@@AEAA_NXZ 00000001800295c4 f i libucrt:output.obj
 0001:00028638       ?state_case_normal_tchar@?$output_processor@DV?$string_output_adapter@D@__crt_stdio_output@@V?$format_validation_base@DV?$string_output_adapter@D@__crt_stdio_output@@@2@@__crt_stdio_output@@AEAA_ND@Z 0000000180029638 f i libucrt:output.obj
 0001:000286e0       ?state_case_size@?$output_processor@DV?$string_output_adapter@D@__crt_stdio_output@@V?$format_validation_base@DV?$string_output_adapter@D@__crt_stdio_output@@@2@@__crt_stdio_output@@AEAA_NXZ 00000001800296e0 f i libucrt:output.obj
 0001:00028854       ?state_case_size@?$output_processor@_WV?$stream_output_adapter@_W@__crt_stdio_output@@V?$standard_base@_WV?$stream_output_adapter@_W@__crt_stdio_output@@@2@@__crt_stdio_output@@AEAA_NXZ 0000000180029854 f i libucrt:output.obj
 0001:000289ec       ?state_case_size@?$output_processor@_WV?$string_output_adapter@_W@__crt_stdio_output@@V?$standard_base@_WV?$string_output_adapter@_W@__crt_stdio_output@@@2@@__crt_stdio_output@@AEAA_NXZ 00000001800299ec f i libucrt:output.obj
 0001:00028b84       ?state_case_type@?$output_processor@DV?$string_output_adapter@D@__crt_stdio_output@@V?$format_validation_base@DV?$string_output_adapter@D@__crt_stdio_output@@@2@@__crt_stdio_output@@AEAA_NXZ 0000000180029b84 f i libucrt:output.obj
 0001:00028dec       ?state_case_type@?$output_processor@_WV?$stream_output_adapter@_W@__crt_stdio_output@@V?$standard_base@_WV?$stream_output_adapter@_W@__crt_stdio_output@@@2@@__crt_stdio_output@@AEAA_NXZ 0000000180029dec f i libucrt:output.obj
 0001:000290cc       ?state_case_type@?$output_processor@_WV?$string_output_adapter@_W@__crt_stdio_output@@V?$standard_base@_WV?$string_output_adapter@_W@__crt_stdio_output@@@2@@__crt_stdio_output@@AEAA_NXZ 000000018002a0cc f i libucrt:output.obj
 0001:00029398       ?type_case_Z@?$output_processor@DV?$string_output_adapter@D@__crt_stdio_output@@V?$format_validation_base@DV?$string_output_adapter@D@__crt_stdio_output@@@2@@__crt_stdio_output@@AEAA_NXZ 000000018002a398 f i libucrt:output.obj
 0001:00029410       ?type_case_Z@?$output_processor@_WV?$string_output_adapter@_W@__crt_stdio_output@@V?$standard_base@_WV?$string_output_adapter@_W@__crt_stdio_output@@@2@@__crt_stdio_output@@AEAA_NXZ 000000018002a410 f i libucrt:output.obj
 0001:00029410       ?type_case_Z@?$output_processor@_WV?$stream_output_adapter@_W@__crt_stdio_output@@V?$standard_base@_WV?$stream_output_adapter@_W@__crt_stdio_output@@@2@@__crt_stdio_output@@AEAA_NXZ 000000018002a410 f i libucrt:output.obj
 0001:0002948c       ?type_case_a@?$output_processor@DV?$string_output_adapter@D@__crt_stdio_output@@V?$format_validation_base@DV?$string_output_adapter@D@__crt_stdio_output@@@2@@__crt_stdio_output@@AEAA_NXZ 000000018002a48c f i libucrt:output.obj
 0001:00029648       ?type_case_a@?$output_processor@_WV?$stream_output_adapter@_W@__crt_stdio_output@@V?$standard_base@_WV?$stream_output_adapter@_W@__crt_stdio_output@@@2@@__crt_stdio_output@@AEAA_NXZ 000000018002a648 f i libucrt:output.obj
 0001:00029648       ?type_case_a@?$output_processor@_WV?$string_output_adapter@_W@__crt_stdio_output@@V?$standard_base@_WV?$string_output_adapter@_W@__crt_stdio_output@@@2@@__crt_stdio_output@@AEAA_NXZ 000000018002a648 f i libucrt:output.obj
 0001:00029828       ?type_case_c_tchar@?$output_processor@DV?$string_output_adapter@D@__crt_stdio_output@@V?$format_validation_base@DV?$string_output_adapter@D@__crt_stdio_output@@@2@@__crt_stdio_output@@AEAA_ND@Z 000000018002a828 f i libucrt:output.obj
 0001:000298e4       ?type_case_c_tchar@?$output_processor@_WV?$string_output_adapter@_W@__crt_stdio_output@@V?$standard_base@_WV?$string_output_adapter@_W@__crt_stdio_output@@@2@@__crt_stdio_output@@AEAA_N_W@Z 000000018002a8e4 f i libucrt:output.obj
 0001:000298e4       ?type_case_c_tchar@?$output_processor@_WV?$stream_output_adapter@_W@__crt_stdio_output@@V?$standard_base@_WV?$stream_output_adapter@_W@__crt_stdio_output@@@2@@__crt_stdio_output@@AEAA_N_W@Z 000000018002a8e4 f i libucrt:output.obj
 0001:0002998c       ?type_case_integer@?$output_processor@DV?$string_output_adapter@D@__crt_stdio_output@@V?$format_validation_base@DV?$string_output_adapter@D@__crt_stdio_output@@@2@@__crt_stdio_output@@AEAA_NI_N@Z 000000018002a98c f i libucrt:output.obj
 0001:00029b54       ?type_case_integer@?$output_processor@_WV?$stream_output_adapter@_W@__crt_stdio_output@@V?$standard_base@_WV?$stream_output_adapter@_W@__crt_stdio_output@@@2@@__crt_stdio_output@@AEAA_NI_N@Z 000000018002ab54 f i libucrt:output.obj
 0001:00029b54       ?type_case_integer@?$output_processor@_WV?$string_output_adapter@_W@__crt_stdio_output@@V?$standard_base@_WV?$string_output_adapter@_W@__crt_stdio_output@@@2@@__crt_stdio_output@@AEAA_NI_N@Z 000000018002ab54 f i libucrt:output.obj
 0001:00029d20       ?type_case_n@?$output_processor@_WV?$string_output_adapter@_W@__crt_stdio_output@@V?$standard_base@_WV?$string_output_adapter@_W@__crt_stdio_output@@@2@@__crt_stdio_output@@AEAA_NXZ 000000018002ad20 f i libucrt:output.obj
 0001:00029d20       ?type_case_n@?$output_processor@DV?$string_output_adapter@D@__crt_stdio_output@@V?$format_validation_base@DV?$string_output_adapter@D@__crt_stdio_output@@@2@@__crt_stdio_output@@AEAA_NXZ 000000018002ad20 f i libucrt:output.obj
 0001:00029d20       ?type_case_n@?$output_processor@_WV?$stream_output_adapter@_W@__crt_stdio_output@@V?$standard_base@_WV?$stream_output_adapter@_W@__crt_stdio_output@@@2@@__crt_stdio_output@@AEAA_NXZ 000000018002ad20 f i libucrt:output.obj
 0001:00029dfc       ?type_case_s@?$output_processor@DV?$string_output_adapter@D@__crt_stdio_output@@V?$format_validation_base@DV?$string_output_adapter@D@__crt_stdio_output@@@2@@__crt_stdio_output@@AEAA_NXZ 000000018002adfc f i libucrt:output.obj
 0001:00029e94       ?type_case_s@?$output_processor@_WV?$stream_output_adapter@_W@__crt_stdio_output@@V?$standard_base@_WV?$stream_output_adapter@_W@__crt_stdio_output@@@2@@__crt_stdio_output@@AEAA_NXZ 000000018002ae94 f i libucrt:output.obj
 0001:00029e94       ?type_case_s@?$output_processor@_WV?$string_output_adapter@_W@__crt_stdio_output@@V?$standard_base@_WV?$string_output_adapter@_W@__crt_stdio_output@@@2@@__crt_stdio_output@@AEAA_NXZ 000000018002ae94 f i libucrt:output.obj
 0001:00029f5c       ?write_stored_string_tchar@?$output_processor@DV?$string_output_adapter@D@__crt_stdio_output@@V?$format_validation_base@DV?$string_output_adapter@D@__crt_stdio_output@@@2@@__crt_stdio_output@@AEAA_ND@Z 000000018002af5c f i libucrt:output.obj
 0001:0002a034       ?write_stored_string_tchar@?$output_processor@_WV?$stream_output_adapter@_W@__crt_stdio_output@@V?$standard_base@_WV?$stream_output_adapter@_W@__crt_stdio_output@@@2@@__crt_stdio_output@@AEAA_N_W@Z 000000018002b034 f i libucrt:output.obj
 0001:0002a13c       ?write_stored_string_tchar@?$output_processor@_WV?$string_output_adapter@_W@__crt_stdio_output@@V?$standard_base@_WV?$string_output_adapter@_W@__crt_stdio_output@@@2@@__crt_stdio_output@@AEAA_N_W@Z 000000018002b13c f i libucrt:output.obj
 0001:0002a228       ?write_string@?$string_output_adapter@D@__crt_stdio_output@@QEBAXQEBDHQEAHAEAV__crt_deferred_errno_cache@@@Z 000000018002b228 f i libucrt:output.obj
 0001:0002a2cc       ?write_string@?$string_output_adapter@_W@__crt_stdio_output@@QEBAXQEB_WHQEAHAEAV__crt_deferred_errno_cache@@@Z 000000018002b2cc f i libucrt:output.obj
 0001:0002a374       ?write_string_impl@?$output_adapter_common@_WV?$stream_output_adapter@_W@__crt_stdio_output@@@__crt_stdio_output@@IEBAXQEB_WHQEAHAEAV__crt_deferred_errno_cache@@@Z 000000018002b374 f i libucrt:output.obj
 0001:0002a478       __stdio_common_vfwprintf   000000018002b478 f   libucrt:output.obj
 0001:0002a504       __stdio_common_vsprintf_s  000000018002b504 f   libucrt:output.obj
 0001:0002a568       __stdio_common_vswprintf   000000018002b568 f   libucrt:output.obj
 0001:0002a570       _fgetc_nolock              000000018002b570 f   libucrt:fgetc.obj
 0001:0002a5b4       fgetc                      000000018002b5b4 f   libucrt:fgetc.obj
 0001:0002a6bc       __acrt_initialize_stdio    000000018002b6bc f   libucrt:_file.obj
 0001:0002a7dc       __acrt_iob_func            000000018002b7dc f   libucrt:_file.obj
 0001:0002a7f0       __acrt_uninitialize_stdio  000000018002b7f0 f   libucrt:_file.obj
 0001:0002a84c       _get_stream_buffer_pointers 000000018002b84c f   libucrt:_file.obj
 0001:0002a894       _lock_file                 000000018002b894 f   libucrt:_file.obj
 0001:0002a8a0       _unlock_file               000000018002b8a0 f   libucrt:_file.obj
 0001:0002a8ac       localeconv                 000000018002b8ac f   libucrt:localeconv.obj
 0001:0002a984       _fwrite_nolock             000000018002b984 f   libucrt:fwrite.obj
 0001:0002ab30       fwrite                     000000018002bb30 f   libucrt:fwrite.obj
 0001:0002abb4       fgetpos                    000000018002bbb4 f   libucrt:fgetpos.obj
 0001:0002ad20       setvbuf                    000000018002bd20 f   libucrt:setvbuf.obj
 0001:0002ae54       _time64                    000000018002be54 f   libucrt:time.obj
 0001:0002b18c       _localtime64               000000018002c18c f   libucrt:localtime.obj
 0001:0002b1d4       free                       000000018002c1d4 f   libucrt:free.obj
 0001:0002b1e8       ??$parse_integer@KV?$c_string_character_source@D@__crt_strtox@@@__crt_strtox@@YAKQEAU__crt_locale_pointers@@V?$c_string_character_source@D@0@H_N@Z 000000018002c1e8 f i libucrt:atox.obj
 0001:0002b524       ??$parse_integer@KV?$c_string_character_source@_W@__crt_strtox@@@__crt_strtox@@YAKQEAU__crt_locale_pointers@@V?$c_string_character_source@_W@0@H_N@Z 000000018002c524 f i libucrt:atox.obj
 0001:0002bbd8       _wtol                      000000018002cbd8 f   libucrt:atox.obj
 0001:0002bc04       atol                       000000018002cc04 f   libucrt:atox.obj
 0001:0002bc04       atoi                       000000018002cc04 f   libucrt:atox.obj
 0001:0002bc30       _ungetc_nolock             000000018002cc30 f   libucrt:ungetc.obj
 0001:0002bd58       ungetc                     000000018002cd58 f   libucrt:ungetc.obj
 0001:0002bdb0       frexp                      000000018002cdb0 f   libucrt:frexp.obj
 0001:0002bf1c       ??$parse_floating_point@V?$c_string_character_source@D@__crt_strtox@@N@__crt_strtox@@YA?AW4SLD_STATUS@@QEAU__crt_locale_pointers@@V?$c_string_character_source@D@0@QEAN@Z 000000018002cf1c f i libucrt:atof.obj
 0001:0002bfbc       ??$parse_floating_point_from_source@V?$c_string_character_source@D@__crt_strtox@@@__crt_strtox@@YA?AW4floating_point_parse_result@0@QEAU__crt_locale_pointers@@AEAV?$c_string_character_source@D@0@AEAUfloating_point_string@0@@Z 000000018002cfbc f i libucrt:atof.obj
 0001:0002c4a4       ??$parse_floating_point_possible_infinity@DV?$c_string_character_source@D@__crt_strtox@@PEBD@__crt_strtox@@YA?AW4floating_point_parse_result@0@AEADAEAV?$c_string_character_source@D@0@PEBD@Z 000000018002d4a4 f i libucrt:atof.obj
 0001:0002c600       ??$parse_floating_point_possible_nan@DV?$c_string_character_source@D@__crt_strtox@@PEBD@__crt_strtox@@YA?AW4floating_point_parse_result@0@AEADAEAV?$c_string_character_source@D@0@PEBD@Z 000000018002d600 f i libucrt:atof.obj
 0001:0002c7ec       ??$parse_floating_point_possible_nan_is_ind@DV?$c_string_character_source@D@__crt_strtox@@@__crt_strtox@@YA_NAEADAEAV?$c_string_character_source@D@0@@Z 000000018002d7ec f i libucrt:atof.obj
 0001:0002c830       ??$parse_floating_point_possible_nan_is_snan@DV?$c_string_character_source@D@__crt_strtox@@@__crt_strtox@@YA_NAEADAEAV?$c_string_character_source@D@0@@Z 000000018002d830 f i libucrt:atof.obj
 0001:0002c874       ??$parse_floating_point_write_result@N@__crt_strtox@@YA?AW4SLD_STATUS@@W4floating_point_parse_result@0@AEBUfloating_point_string@0@QEAN@Z 000000018002d874 f i libucrt:atof.obj
 0001:0002ca54       ?as_double@floating_point_value@__crt_strtox@@QEBAAEANXZ 000000018002da54 f i libucrt:atof.obj
 0001:0002ca90       ?as_float@floating_point_value@__crt_strtox@@QEBAAEAMXZ 000000018002da90 f i libucrt:atof.obj
 0001:0002cacc       ?assemble_floating_point_value@__crt_strtox@@YA?AW4SLD_STATUS@@_KH_N1AEBVfloating_point_value@1@@Z 000000018002dacc f i libucrt:atof.obj
 0001:0002ce74       ?assemble_floating_point_value_from_big_integer@__crt_strtox@@YA?AW4SLD_STATUS@@AEBUbig_integer@1@I_N1AEBVfloating_point_value@1@@Z 000000018002de74 f i libucrt:atof.obj
 0001:0002cfd8       ?convert_decimal_string_to_floating_type_common@__crt_strtox@@YA?AW4SLD_STATUS@@AEBUfloating_point_string@1@AEBVfloating_point_value@1@@Z 000000018002dfd8 f i libucrt:atof.obj
 0001:0002ed58       ?convert_hexadecimal_string_to_floating_type_common@__crt_strtox@@YA?AW4SLD_STATUS@@AEBUfloating_point_string@1@AEBVfloating_point_value@1@@Z 000000018002fd58 f i libucrt:atof.obj
 0001:0002ee10       ?divide@__crt_strtox@@YA_KAEAUbig_integer@1@AEBU21@@Z 000000018002fe10 f i libucrt:atof.obj
 0001:0002f23c       atof                       000000018003023c f   libucrt:atof.obj
 0001:0002f2cc       isdigit                    00000001800302cc f i libucrt:_ctype.obj
 0001:0002f360       islower                    0000000180030360 f i libucrt:_ctype.obj
 0001:0002f3f4       isspace                    00000001800303f4 f i libucrt:_ctype.obj
 0001:0002f488       isupper                    0000000180030488 f i libucrt:_ctype.obj
 0001:0002f51c       fsetpos                    000000018003051c f   libucrt:fsetpos.obj
 0001:0002f554       _fread_nolock_s            0000000180030554 f   libucrt:fread.obj
 0001:0002f7e4       fread                      00000001800307e4 f   libucrt:fread.obj
 0001:0002f804       fread_s                    0000000180030804 f   libucrt:fread.obj
 0001:0002fab4       _fseeki64                  0000000180030ab4 f   libucrt:fseek.obj
 0001:0002fabc       fseek                      0000000180030abc f   libucrt:fseek.obj
 0001:000301dc       ??$ftprintf@PEAU_iobuf@@PEB_WAEBQEB_WAEBQEB_WAEBI@?$__crt_char_traits@_W@@SAH$$QEAPEAU_iobuf@@$$QEAPEB_WAEBQEB_W2AEBI@Z 00000001800311dc f i libucrt:assert.obj
 0001:00030204       _wassert                   0000000180031204 f   libucrt:assert.obj
 0001:00030278       fwprintf                   0000000180031278 f i libucrt:assert.obj
 0001:000302bc       swprintf                   00000001800312bc f i libucrt:assert.obj
 0001:00030310       malloc                     0000000180031310 f   libucrt:malloc.obj
 0001:00030318       __ascii_stricmp            0000000180031318 f   libucrt:stricmp.obj
 0001:00030358       _stricmp                   0000000180031358 f   libucrt:stricmp.obj
 0001:000303a0       _stricmp_l                 00000001800313a0 f   libucrt:stricmp.obj
 0001:00030454       __acrt_initialize_locks    0000000180031454 f   libucrt:locks.obj
 0001:0003049c       __acrt_lock                000000018003149c f   libucrt:locks.obj
 0001:000304b8       __acrt_uninitialize_locks  00000001800314b8 f   libucrt:locks.obj
 0001:000304f0       __acrt_unlock              00000001800314f0 f   libucrt:locks.obj
 0001:0003050c       _lock_locales              000000018003150c f   libucrt:locks.obj
 0001:00030528       _unlock_locales            0000000180031528 f   libucrt:locks.obj
 0001:00030538       terminate                  0000000180031538 f   libucrt:terminate.obj
 0001:00030838       setlocale                  0000000180031838 f   libucrt:setlocale.obj
 0001:00030940       _fsopen                    0000000180031940 f   libucrt:fopen.obj
 0001:00030948       __pctype_func              0000000180031948 f   libucrt:ctype.obj
 0001:00030978       _wcsdup                    0000000180031978 f   libucrt:wcsdup.obj
 0001:000309fc       ___lc_codepage_func        00000001800319fc f   libucrt:initctype.obj
 0001:00030a2c       ___lc_locale_name_func     0000000180031a2c f   libucrt:initctype.obj
 0001:00030a60       ___mb_cur_max_func         0000000180031a60 f   libucrt:initctype.obj
 0001:00030a90       __acrt_locale_initialize_ctype 0000000180031a90 f   libucrt:initctype.obj
 0001:000310e0       __acrt_errno_from_os_error 00000001800320e0 f   libucrt:errno.obj
 0001:00031128       __acrt_errno_map_os_error  0000000180032128 f   libucrt:errno.obj
 0001:00031178       __doserrno                 0000000180032178 f   libucrt:errno.obj
 0001:00031198       _errno                     0000000180032198 f   libucrt:errno.obj
 0001:000311c0       pow                        00000001800321c0 f   libucrt:pow.obj
 0001:00032860       powf                       0000000180033860 f   libucrt:powf.obj
 0001:00033728       __strncnt                  0000000180034728 f   libucrt:strncnt.obj
 0001:00033740       ??$__crt_time_is_leap_year@H@@YA_NH@Z 0000000180034740 f i libucrt:wcsftime.obj
 0001:00034e24       _Wcsftime_l                0000000180035e24 f   libucrt:wcsftime.obj
 0001:00035030       _tolower_l                 0000000180036030 f   libucrt:tolower_toupper.obj
 0001:00035170       tolower                    0000000180036170 f   libucrt:tolower_toupper.obj
 0001:0003519c       wcscpy_s                   000000018003619c f   libucrt:wcscpy_s.obj
 0001:00035204       strnlen                    0000000180036204 f   libucrt:strnlen.obj
 0001:00035354       wcsnlen                    0000000180036354 f   libucrt:strnlen.obj
 0001:0003552c       __acrt_initialize_new_handler 000000018003652c f   libucrt:new_handler.obj
 0001:00035534       _callnewh                  0000000180036534 f   libucrt:new_handler.obj
 0001:00035564       _query_new_handler         0000000180036564 f   libucrt:new_handler.obj
 0001:00035598       _seh_filter_dll            0000000180036598 f   libucrt:exception_filter.obj
 0001:000355ac       _seh_filter_exe            00000001800365ac f   libucrt:exception_filter.obj
 0001:0003599c       __acrt_initialize_thread_local_exit_callback 000000018003699c f   libucrt:exit.obj
 0001:000359a4       _cexit                     00000001800369a4 f   libucrt:exit.obj
 0001:000359b4       _exit                      00000001800369b4 f   libucrt:exit.obj
 0001:000359c0       _is_c_termination_complete 00000001800369c0 f   libucrt:exit.obj
 0001:00035b8c       __acrt_allocate_buffer_for_argv 0000000180036b8c f   libucrt:argv_parsing.obj
 0001:00035bec       _configure_narrow_argv     0000000180036bec f   libucrt:argv_parsing.obj
 0001:00036038       __dcrt_get_or_create_narrow_environment_nolock 0000000180037038 f   libucrt:environment_initialization.obj
 0001:00036074       __dcrt_uninitialize_environments_nolock 0000000180037074 f   libucrt:environment_initialization.obj
 0001:000360ac       _initialize_narrow_environment 00000001800370ac f   libucrt:environment_initialization.obj
 0001:000363f4       _crt_atexit                00000001800373f4 f   libucrt:onexit.obj
 0001:00036404       _execute_onexit_table      0000000180037404 f   libucrt:onexit.obj
 0001:00036440       _initialize_onexit_table   0000000180037440 f   libucrt:onexit.obj
 0001:00036468       _register_onexit_function  0000000180037468 f   libucrt:onexit.obj
 0001:000365dc       __acrt_initialize          00000001800375dc f   libucrt:initialization.obj
 0001:000365f0       __acrt_thread_attach       00000001800375f0 f   libucrt:initialization.obj
 0001:00036604       __acrt_thread_detach       0000000180037604 f   libucrt:initialization.obj
 0001:00036614       __acrt_uninitialize        0000000180037614 f   libucrt:initialization.obj
 0001:0003664c       __acrt_uninitialize_critical 000000018003764c f   libucrt:initialization.obj
 0001:0003665c       _initterm                  000000018003765c f   libucrt:initterm.obj
 0001:000366c0       _initterm_e                00000001800376c0 f   libucrt:initterm.obj
 0001:00036700       strcpy_s                   0000000180037700 f   libucrt:strcpy_s.obj
 0001:00036760       wcsncmp                    0000000180037760 f   libucrt:wcsncmp.obj
 0001:000367a0       strncmp                    00000001800377a0 f   libucrt:strncmp.obj
 0001:00036868       __acrt_get_sigabrt_handler 0000000180037868 f   libucrt:signal.obj
 0001:00036898       __acrt_initialize_signal_handlers 0000000180037898 f   libucrt:signal.obj
 0001:000368b8       raise                      00000001800378b8 f   libucrt:signal.obj
 0001:00036b24       _fileno                    0000000180037b24 f   libucrt:fileno.obj
 0001:00036d90       __acrt_stdio_flush_and_write_narrow_nolock 0000000180037d90 f   libucrt:_flsbuf.obj
 0001:00036e7c       __acrt_stdio_flush_and_write_wide_nolock 0000000180037e7c f   libucrt:_flsbuf.obj
 0001:00037164       __acrt_initialize_lowio    0000000180038164 f   libucrt:ioinit.obj
 0001:000371a0       __acrt_uninitialize_lowio  00000001800381a0 f   libucrt:ioinit.obj
 0001:000371e0       _calloc_base               00000001800381e0 f   libucrt:calloc_base.obj
 0001:000375d0       __acrt_freeptd             00000001800385d0 f   libucrt:per_thread_data.obj
 0001:00037614       __acrt_getptd              0000000180038614 f   libucrt:per_thread_data.obj
 0001:000376e8       __acrt_getptd_head         00000001800386e8 f   libucrt:per_thread_data.obj
 0001:00037790       __acrt_getptd_noexit       0000000180038790 f   libucrt:per_thread_data.obj
 0001:0003785c       __acrt_initialize_ptd      000000018003885c f   libucrt:per_thread_data.obj
 0001:00037898       __acrt_uninitialize_ptd    0000000180038898 f   libucrt:per_thread_data.obj
 0001:00037948       _commit                    0000000180038948 f   libucrt:commit.obj
 0001:00038248       _write                     0000000180039248 f   libucrt:write.obj
 0001:00038334       _write_nolock              0000000180039334 f   libucrt:write.obj
 0001:00038610       _free_base                 0000000180039610 f   libucrt:free_base.obj
 0001:000386c4       _close                     00000001800396c4 f   libucrt:close.obj
 0001:00038768       _close_nolock              0000000180039768 f   libucrt:close.obj
 0001:00038828       ?__acrt_stdio_allocate_stream@@YA?AV__crt_stdio_stream@@XZ 0000000180039828 f   libucrt:stream.obj
 0001:00038880       ?__acrt_stdio_free_stream@@YAXV__crt_stdio_stream@@@Z 0000000180039880 f   libucrt:stream.obj
 0001:00038988       __acrt_stdio_free_buffer_nolock 0000000180039988 f   libucrt:_freebuf.obj
 0001:000389c8       _malloc_base               00000001800399c8 f   libucrt:malloc_base.obj
 0001:00038a28       __acrt_MultiByteToWideChar 0000000180039a28 f   libucrt:multibytetowidechar.obj
 0001:00038a84       __acrt_WideCharToMultiByte 0000000180039a84 f   libucrt:widechartomultibyte.obj
 0001:00038b1c       __acrt_update_locale_info  0000000180039b1c f   libucrt:locale_update.obj
 0001:00038b50       __acrt_update_multibyte_info 0000000180039b50 f   libucrt:locale_update.obj
 0001:00038dec       __acrt_copy_locale_name    0000000180039dec f   libucrt:wsetlocale.obj
 0001:00038e70       __acrt_set_locale_changed  0000000180039e70 f   libucrt:wsetlocale.obj
 0001:00038e7c       __acrt_uninitialize_locale 0000000180039e7c f   libucrt:wsetlocale.obj
 0001:00038eac       __lc_lctowcs               0000000180039eac f   libucrt:wsetlocale.obj
 0001:00038f50       __lc_wcstolc               0000000180039f50 f   libucrt:wsetlocale.obj
 0001:0003918c       _expandlocale              000000018003a18c f   libucrt:wsetlocale.obj
 0001:00039570       _wcscats                   000000018003a570 f   libucrt:wsetlocale.obj
 0001:000395d8       _wsetlocale                000000018003a5d8 f   libucrt:wsetlocale.obj
 0001:00039e50       strtol                     000000018003ae50 f   libucrt:strtox.obj
 0001:00039e7c       wcstol                     000000018003ae7c f   libucrt:strtox.obj
 0001:00039ea8       _mbtowc_l                  000000018003aea8 f   libucrt:mbtowc.obj
 0001:0003a024       mbtowc                     000000018003b024 f   libucrt:mbtowc.obj
 0001:0003a02c       _wctomb_s_l                000000018003b02c f   libucrt:wctomb.obj
 0001:0003a1cc       wctomb_s                   000000018003b1cc f   libucrt:wctomb.obj
 0001:0003abb4       __acrt_fp_format           000000018003bbb4 f   libucrt:cvt.obj
 0001:0003ae3c       _fputwc_nolock             000000018003be3c f   libucrt:fputwc.obj
 0001:0003afb8       _get_printf_count_output   000000018003bfb8 f   libucrt:printf_count_output.obj
 0001:0003afd0       __acrt_stdio_begin_temporary_buffering_nolock 000000018003bfd0 f   libucrt:_sftbuf.obj
 0001:0003b0a0       __acrt_stdio_end_temporary_buffering_nolock 000000018003c0a0 f   libucrt:_sftbuf.obj
 0001:0003b0dc       __acrt_stdio_refill_and_read_narrow_nolock 000000018003c0dc f   libucrt:_filbuf.obj
 0001:0003b4c4       __acrt_AppPolicyGetProcessTerminationMethodInternal 000000018003c4c4 f   libucrt:winapi_thunks.obj
 0001:0003b514       __acrt_AppPolicyGetShowDeveloperDiagnosticInternal 000000018003c514 f   libucrt:winapi_thunks.obj
 0001:0003b564       __acrt_AppPolicyGetWindowingModelInternal 000000018003c564 f   libucrt:winapi_thunks.obj
 0001:0003b5b4       __acrt_AreFileApisANSI     000000018003c5b4 f   libucrt:winapi_thunks.obj
 0001:0003b5f0       __acrt_CompareStringEx     000000018003c5f0 f   libucrt:winapi_thunks.obj
 0001:0003b6cc       __acrt_EnumSystemLocalesEx 000000018003c6cc f   libucrt:winapi_thunks.obj
 0001:0003b764       __acrt_FlsAlloc            000000018003c764 f   libucrt:winapi_thunks.obj
 0001:0003b7ac       __acrt_FlsFree             000000018003c7ac f   libucrt:winapi_thunks.obj
 0001:0003b7f4       __acrt_FlsGetValue         000000018003c7f4 f   libucrt:winapi_thunks.obj
 0001:0003b83c       __acrt_FlsSetValue         000000018003c83c f   libucrt:winapi_thunks.obj
 0001:0003b890       __acrt_GetDateFormatEx     000000018003c890 f   libucrt:winapi_thunks.obj
 0001:0003b948       __acrt_GetLocaleInfoEx     000000018003c948 f   libucrt:winapi_thunks.obj
 0001:0003b9cc       __acrt_GetSystemTimePreciseAsFileTime 000000018003c9cc f   libucrt:winapi_thunks.obj
 0001:0003ba14       __acrt_GetTimeFormatEx     000000018003ca14 f   libucrt:winapi_thunks.obj
 0001:0003bac0       __acrt_GetUserDefaultLocaleName 000000018003cac0 f   libucrt:winapi_thunks.obj
 0001:0003bb24       __acrt_InitializeCriticalSectionEx 000000018003cb24 f   libucrt:winapi_thunks.obj
 0001:0003bb88       __acrt_IsValidLocaleName   000000018003cb88 f   libucrt:winapi_thunks.obj
 0001:0003bbe0       __acrt_LCIDToLocaleName    000000018003cbe0 f   libucrt:winapi_thunks.obj
 0001:0003bc50       __acrt_LCMapStringEx       000000018003cc50 f   libucrt:winapi_thunks.obj
 0001:0003bd2c       __acrt_LocaleNameToLCID    000000018003cd2c f   libucrt:winapi_thunks.obj
 0001:0003bd7c       __acrt_MessageBoxW         000000018003cd7c f   libucrt:winapi_thunks.obj
 0001:0003bdf0       __acrt_can_show_message_box 000000018003cdf0 f   libucrt:winapi_thunks.obj
 0001:0003be60       __acrt_can_use_vista_locale_apis 000000018003ce60 f   libucrt:winapi_thunks.obj
 0001:0003be90       __acrt_eagerly_load_locale_apis 000000018003ce90 f   libucrt:winapi_thunks.obj
 0001:0003bfec       __acrt_get_parent_window   000000018003cfec f   libucrt:winapi_thunks.obj
 0001:0003c064       __acrt_initialize_winapi_thunks 000000018003d064 f   libucrt:winapi_thunks.obj
 0001:0003c098       __acrt_is_interactive      000000018003d098 f   libucrt:winapi_thunks.obj
 0001:0003c160       __acrt_uninitialize_winapi_thunks 000000018003d160 f   libucrt:winapi_thunks.obj
 0001:0003c1a4       _fcloseall                 000000018003d1a4 f   libucrt:closeall.obj
 0001:0003c728       _ftelli64                  000000018003d728 f   libucrt:ftell.obj
 0001:0003c730       _ftelli64_nolock           000000018003d730 f   libucrt:ftell.obj
 0001:0003c738       __acrt_initialize_timeset  000000018003d738 f   libucrt:timeset.obj
 0001:0003c77c       __daylight                 000000018003d77c f   libucrt:timeset.obj
 0001:0003c784       __dstbias                  000000018003d784 f   libucrt:timeset.obj
 0001:0003c78c       __timezone                 000000018003d78c f   libucrt:timeset.obj
 0001:0003c794       __tzname                   000000018003d794 f   libucrt:timeset.obj
 0001:0003c79c       _get_daylight              000000018003d79c f   libucrt:timeset.obj
 0001:0003c7cc       _get_dstbias               000000018003d7cc f   libucrt:timeset.obj
 0001:0003c7fc       _get_timezone              000000018003d7fc f   libucrt:timeset.obj
 0001:0003cab0       __getgmtimebuf             000000018003dab0 f   libucrt:gmtime.obj
 0001:0003cafc       _gmtime64_s                000000018003dafc f   libucrt:gmtime.obj
 0001:0003d4a8       __tzset                    000000018003e4a8 f   libucrt:tzset.obj
 0001:0003d4e8       _isindst                   000000018003e4e8 f   libucrt:tzset.obj
 0001:0003d518       iswctype                   000000018003e518 f   libucrt:iswctype.obj
 0001:0003d588       _isctype_l                 000000018003e588 f   libucrt:isctype.obj
 0001:0003d698       __acrt_stdio_allocate_buffer_nolock 000000018003e698 f   libucrt:_getbuf.obj
 0001:0003d700       _dsign                     000000018003e700 f   libucrt:nan.obj
 0001:0003d718       _errcode                   000000018003e718 f   libucrt:fpexcept.obj
 0001:0003d75c       _except1                   000000018003e75c f   libucrt:fpexcept.obj
 0001:0003d850       _handle_exc                000000018003e850 f   libucrt:fpexcept.obj
 0001:0003dab8       _raise_exc                 000000018003eab8 f   libucrt:fpexcept.obj
 0001:0003dae0       _raise_exc_ex              000000018003eae0 f   libucrt:fpexcept.obj
 0001:0003ddf0       _raise_excf                000000018003edf0 f   libucrt:fpexcept.obj
 0001:0003de1c       _set_errno_from_matherr    000000018003ee1c f   libucrt:fpexcept.obj
 0001:0003de4c       _umatherr                  000000018003ee4c f   libucrt:fpexcept.obj
 0001:0003df20       _decomp                    000000018003ef20 f   libucrt:util.obj
 0001:0003e058       _sptype                    000000018003f058 f   libucrt:util.obj
 0001:0003e0cc       _clrfp                     000000018003f0cc f   libucrt:fpctrl.obj
 0001:0003e0ec       _ctrlfp                    000000018003f0ec f   libucrt:fpctrl.obj
 0001:0003e168       _set_statfp                000000018003f168 f   libucrt:fpctrl.obj
 0001:0003e188       _statfp                    000000018003f188 f   libucrt:fpctrl.obj
 0001:0003e19c       fegetround                 000000018003f19c f   libucrt:fegetround.obj
 0001:0003e784       _read                      000000018003f784 f   libucrt:read.obj
 0001:0003e8a0       _read_nolock               000000018003f8a0 f   libucrt:read.obj
 0001:0003ee84       _lseeki64                  000000018003fe84 f   libucrt:lseek.obj
 0001:0003ee8c       _lseeki64_nolock           000000018003fe8c f   libucrt:lseek.obj
 0001:0003ee94       _query_app_type            000000018003fe94 f   libucrt:report_runtime_error.obj
 0001:0003efdc       _itow_s                    000000018003ffdc f   libucrt:xtoa.obj
 0001:0003effc       _set_error_mode            000000018003fffc f   libucrt:set_error_mode.obj
 0001:0003f03c       wcscat_s                   000000018004003c f   libucrt:wcscat_s.obj
 0001:0003f0bc       wcsncat_s                  00000001800400bc f   libucrt:wcsncat_s.obj
 0001:0003f1bc       __acrt_GetModuleFileNameA  00000001800401bc f   libucrt:getmodulefilenamea.obj
 0001:0003f2dc       __acrt_show_wide_message_box 00000001800402dc f   libucrt:crtmbox.obj
 0001:0003f584       _mbstowcs_s_l              0000000180040584 f   libucrt:mbstowcs.obj
 0001:0003f6b8       mbstowcs_s                 00000001800406b8 f   libucrt:mbstowcs.obj
 0001:0003fa40       _wcstombs_s_l              0000000180040a40 f   libucrt:wcstombs.obj
 0001:0003fb2c       ??$__acrt_stdio_parse_mode@D@@YA?AU__acrt_stdio_stream_mode@@QEBD@Z 0000000180040b2c f i libucrt:openfile.obj
 0001:0003fdf0       _openfile                  0000000180040df0 f   libucrt:openfile.obj
 0001:00040008       __acrt_GetLocaleInfoA      0000000180041008 f   libucrt:getlocaleinfoa.obj
 0001:000401d0       __acrt_GetStringTypeA      00000001800411d0 f   libucrt:getstringtypea.obj
 0001:00040678       __acrt_LCMapStringA        0000000180041678 f   libucrt:lcmapstringa.obj
 0001:00040710       _realloc_base              0000000180041710 f   libucrt:realloc_base.obj
 0001:00040790       __acrt_initialize_fma3     0000000180041790 f   libucrt:fma3_available.obj
 0001:00040800       _pow_special               0000000180041800 f   libucrt:pow_special.obj
 0001:00040924       _powf_special              0000000180041924 f   libucrt:pow_special.obj
 0001:00040ab0       _wcsicmp                   0000000180041ab0 f   libucrt:wcsicmp.obj
 0001:00040b48       _wcsicmp_l                 0000000180041b48 f   libucrt:wcsicmp.obj
 0001:00040c48       _isleadbyte_l              0000000180041c48 f i libucrt:_wctype.obj
 0001:00040c94       __acrt_get_developer_information_policy 0000000180041c94 f   libucrt:win_policies.obj
 0001:00040ce8       __acrt_get_process_end_policy 0000000180041ce8 f   libucrt:win_policies.obj
 0001:00040d24       __acrt_get_windowing_model_policy 0000000180041d24 f   libucrt:win_policies.obj
 0001:00040da4       ??$__acrt_wcs_to_mbs_cp@U__crt_win32_buffer_internal_dynamic_resizing@@@@YAHQEB_WAEAV?$__crt_win32_buffer@DU__crt_win32_buffer_internal_dynamic_resizing@@@@I@Z 0000000180041da4 f i libucrt:argv_wildcards.obj
 0001:000415d4       __acrt_expand_narrow_argv_wildcards 00000001800425d4 f   libucrt:argv_wildcards.obj
 0001:00041d08       __acrt_initialize_multibyte 0000000180042d08 f   libucrt:mbctype.obj
 0001:00041d68       __acrt_update_thread_multibyte_data 0000000180042d68 f   libucrt:mbctype.obj
 0001:00041d84       _setmbcp_nolock            0000000180042d84 f   libucrt:mbctype.obj
 0001:000420b8       _ismbblead                 00000001800430b8 f   libucrt:ismbbyte.obj
 0001:000420cc       __acrt_initialize_command_line 00000001800430cc f   libucrt:argv_data.obj
 0001:000420f4       __dcrt_get_narrow_environment_from_os 00000001800430f4 f   libucrt:get_environment_from_os.obj
 0001:00042600       __dcrt_set_variable_in_narrow_environment_nolock 0000000180043600 f   libucrt:setenv.obj
 0001:00042608       _recalloc_base             0000000180043608 f   libucrt:recalloc.obj
 0001:000426a0       __acrt_initialize_heap     00000001800436a0 f   libucrt:heap_handle.obj
 0001:000426bc       __acrt_uninitialize_heap   00000001800436bc f   libucrt:heap_handle.obj
 0001:000426c8       __acrt_execute_initializers 00000001800436c8 f   libucrt:shared_initialization.obj
 0001:00042748       __acrt_execute_uninitializers 0000000180043748 f   libucrt:shared_initialization.obj
 0001:00042784       __acrt_has_user_matherr    0000000180043784 f   libucrt:matherr.obj
 0001:000427a4       __acrt_initialize_user_matherr 00000001800437a4 f   libucrt:matherr.obj
 0001:000427ac       __acrt_invoke_user_matherr 00000001800437ac f   libucrt:matherr.obj
 0001:000427dc       __acrt_lowio_create_handle_array 00000001800437dc f   libucrt:osfinfo.obj
 0001:00042884       __acrt_lowio_destroy_handle_array 0000000180043884 f   libucrt:osfinfo.obj
 0001:000428d4       __acrt_lowio_ensure_fh_exists 00000001800438d4 f   libucrt:osfinfo.obj
 0001:0004297c       __acrt_lowio_lock_fh       000000018004397c f   libucrt:osfinfo.obj
 0001:000429a4       __acrt_lowio_set_os_handle 00000001800439a4 f   libucrt:osfinfo.obj
 0001:00042a64       __acrt_lowio_unlock_fh     0000000180043a64 f   libucrt:osfinfo.obj
 0001:00042a8c       _alloc_osfhnd              0000000180043a8c f   libucrt:osfinfo.obj
 0001:00042bcc       _free_osfhnd               0000000180043bcc f   libucrt:osfinfo.obj
 0001:00042c88       _get_osfhandle             0000000180043c88 f   libucrt:osfinfo.obj
 0001:00042d00       _isatty                    0000000180043d00 f   libucrt:isatty.obj
 0001:00042d60       _query_new_mode            0000000180043d60 f   libucrt:new_mode.obj
 0001:00042d68       __acrt_add_locale_ref      0000000180043d68 f   libucrt:locale_refcounting.obj
 0001:00042df4       __acrt_free_locale         0000000180043df4 f   libucrt:locale_refcounting.obj
 0001:00042f6c       __acrt_locale_add_lc_time_reference 0000000180043f6c f   libucrt:locale_refcounting.obj
 0001:00042f94       __acrt_locale_free_lc_time_if_unreferenced 0000000180043f94 f   libucrt:locale_refcounting.obj
 0001:00042fcc       __acrt_locale_release_lc_time_reference 0000000180043fcc f   libucrt:locale_refcounting.obj
 0001:00042ff4       __acrt_release_locale_ref  0000000180043ff4 f   libucrt:locale_refcounting.obj
 0001:0004309c       __acrt_update_thread_locale_data 000000018004409c f   libucrt:locale_refcounting.obj
 0001:0004310c       _updatetlocinfoEx_nolock   000000018004410c f   libucrt:locale_refcounting.obj
 0001:00043174       ?__mbrtowc_utf8@__crt_mbstring@@YA_KPEA_WPEBD_KPEAU_Mbstatet@@@Z 0000000180044174 f   libucrt:mbrtowc.obj
 0001:000431b0       ?__mbsrtowcs_utf8@__crt_mbstring@@YA_KPEA_WPEAPEBD_KPEAU_Mbstatet@@@Z 00000001800441b0 f   libucrt:mbrtowc.obj
 0001:00043328       _putwch_nolock             0000000180044328 f   libucrt:putwch.obj
 0001:00043364       __acrt_locale_free_monetary 0000000180044364 f   libucrt:initmon.obj
 0001:00043470       __acrt_locale_initialize_monetary 0000000180044470 f   libucrt:initmon.obj
 0001:000439a4       __acrt_locale_free_numeric 00000001800449a4 f   libucrt:initnum.obj
 0001:00043a10       __acrt_locale_initialize_numeric 0000000180044a10 f   libucrt:initnum.obj
 0001:00044090       __acrt_locale_free_time    0000000180045090 f   libucrt:inittime.obj
 0001:00044198       __acrt_locale_initialize_time 0000000180045198 f   libucrt:inittime.obj
 0001:00044234       wcsncpy_s                  0000000180045234 f   libucrt:wcsncpy_s.obj
 0001:00044318       wcscspn                    0000000180045318 f   libucrt:wcscspn.obj
 0001:00044358       wcspbrk                    0000000180045358 f   libucrt:wcspbrk.obj
 0001:00044b40       __acrt_get_qualified_locale 0000000180045b40 f   libucrt:get_qualified_locale.obj
 0001:00045574       __acrt_get_qualified_locale_downlevel 0000000180046574 f   libucrt:getqloc_downlevel.obj
 0001:000457f4       ?__c32rtomb_utf8@__crt_mbstring@@YA_KPEAD_UPEAU_Mbstatet@@@Z 00000001800467f4 f   libucrt:c32rtomb.obj
 0001:000458ac       c32rtomb                   00000001800468ac f   libucrt:c32rtomb.obj
 0001:000458b4       __acrt_fp_strflt_to_string 00000001800468b4 f   libucrt:_fptostr.obj
 0001:00045998       __acrt_fltout              0000000180046998 f   libucrt:cfout.obj
 0001:00046cb4       __acrt_DownlevelLCIDToLocaleName 0000000180047cb4 f   libucrt:lcidtoname_downlevel.obj
 0001:00046da8       __acrt_DownlevelLocaleNameToLCID 0000000180047da8 f   libucrt:lcidtoname_downlevel.obj
 0001:00046f60       getenv_s                   0000000180047f60 f   libucrt:getenv.obj
 0001:00046f68       strncpy_s                  0000000180047f68 f   libucrt:strncpy_s.obj
 0001:0004703c       __acrt_GetStringTypeW      000000018004803c f   libucrt:getstringtypew.obj
 0001:00047060       _get_fpsr                  0000000180048060 f   libucrt:fpsr.obj
 0001:00047070       _set_fpsr                  0000000180048070 f   libucrt:fpsr.obj
 0001:0004707a       _fclrf                     000000018004807a f   libucrt:fpsr.obj
 0001:0004708e       _frnd                      000000018004808e f   libucrt:fpsr.obj
 0001:000470b0       __acrt_fenv_get_common_round_control 00000001800480b0 f   libucrt:_fenvutils.obj
 0001:000470bc       __acrt_fenv_get_control    00000001800480bc f   libucrt:_fenvutils.obj
 0001:000471b0       __acrt_fenv_get_status     00000001800481b0 f   libucrt:_fenvutils.obj
 0001:00047204       __acrt_fenv_set_control    0000000180048204 f   libucrt:_fenvutils.obj
 0001:0004734c       __acrt_fenv_set_status     000000018004834c f   libucrt:_fenvutils.obj
 0001:000473d0       ?__wcsrtombs_utf8@__crt_mbstring@@YA_KPEADPEAPEB_W_KPEAU_Mbstatet@@@Z 00000001800483d0 f   libucrt:wcrtomb.obj
 0001:000474ec       _wcsnicmp                  00000001800484ec f   libucrt:wcsnicmp.obj
 0001:00047598       _wcsnicmp_l                0000000180048598 f   libucrt:wcsnicmp.obj
 0001:000476c0       __ascii_strnicmp           00000001800486c0 f   libucrt:strnicmp.obj
 0001:0004771c       _strnicmp                  000000018004871c f   libucrt:strnicmp.obj
 0001:0004776c       _strnicmp_l                000000018004876c f   libucrt:strnicmp.obj
 0001:00047e70       _sopen_nolock              0000000180048e70 f   libucrt:open.obj
 0001:00047f88       _sopen_s                   0000000180048f88 f   libucrt:open.obj
 0001:00047fbc       _wsopen_nolock             0000000180048fbc f   libucrt:open.obj
 0001:000484c8       _handle_error              00000001800494c8 f   libucrt:libm_error.obj
 0001:000485f0       _handle_errorf             00000001800495f0 f   libucrt:libm_error.obj
 0001:00048724       _handle_nan                0000000180049724 f   libucrt:libm_error.obj
 0001:00048740       _handle_nanf               0000000180049740 f   libucrt:libm_error.obj
 0001:00048750       _towlower_l                0000000180049750 f   libucrt:towlower.obj
 0001:00048820       qsort                      0000000180049820 f   libucrt:qsort.obj
 0001:00048c80       strpbrk                    0000000180049c80 f   libucrt:strpbrk.obj
 0001:00049060       _mbsdec                    000000018004a060 f   libucrt:mbsdec.obj
 0001:00049068       _mbsdec_l                  000000018004a068 f   libucrt:mbsdec.obj
 0001:00049114       _strnicoll                 000000018004a114 f   libucrt:strnicol.obj
 0001:0004912c       _strnicoll_l               000000018004a12c f   libucrt:strnicol.obj
 0001:0004922c       __acrt_SetEnvironmentVariableA 000000018004a22c f   libucrt:setenvironmentvariablea.obj
 0001:000493c4       _msize_base                000000018004a3c4 f   libucrt:msize.obj
 0001:00049400       ?__mbrtoc32_utf8@__crt_mbstring@@YA_KPEA_UPEBD_KPEAU_Mbstatet@@@Z 000000018004a400 f   libucrt:mbrtoc32.obj
 0001:000495dc       __dcrt_lowio_ensure_console_output_initialized 000000018004a5dc f   libucrt:initcon.obj
 0001:00049630       __dcrt_terminate_console_output 000000018004a630 f   libucrt:initcon.obj
 0001:0004964c       __dcrt_write_console       000000018004a64c f   libucrt:initcon.obj
 0001:0004970c       wcscmp                     000000018004a70c f   libucrt:wcscmp.obj
 0001:00049744       fegetenv                   000000018004a744 f   libucrt:fegetenv.obj
 0001:00049764       fesetenv                   000000018004a764 f   libucrt:fesetenv.obj
 0001:000497b4       feholdexcept               000000018004a7b4 f   libucrt:feholdexcept.obj
 0001:00049804       ceil                       000000018004a804 f   libucrt:ceil.obj
 0001:000498d0       log10                      000000018004a8d0 f   libucrt:log10.obj
 0001:00049e7c       ?__c16rtomb_utf8@__crt_mbstring@@YA_KPEAD_SPEAU_Mbstatet@@@Z 000000018004ae7c f   libucrt:c16rtomb.obj
 0001:00049f24       _get_fmode                 000000018004af24 f   libucrt:setmode.obj
 0001:00049f54       _setmode_nolock            000000018004af54 f   libucrt:setmode.obj
 0001:0004a034       _chsize_nolock             000000018004b034 f   libucrt:chsize.obj
 0001:0004a1a0       __acrt_LCMapStringW        000000018004b1a0 f   libucrt:lcmapstringw.obj
 0001:0004a588       __acrt_CompareStringA      000000018004b588 f   libucrt:comparestringa.obj
 0001:0004a614       _clearfp                   000000018004b614 f   libucrt:ieee.obj
 0001:0004a690       _log10_special             000000018004b690 f   libucrt:log_special.obj
 0001:0004a6b0       _log_special               000000018004b6b0 f   libucrt:log_special.obj
 0001:0004a766       IsProcessorFeaturePresent  000000018004b766 f   kernel32:KERNEL32.dll
 0001:0004a76c       ?DloadAcquireSectionWriteAccess@@YAXXZ 000000018004b76c f i DelayImp:delayhlp.obj
 0001:0004a818       ?DloadGetSRWLockFunctionPointers@@YAEXZ 000000018004b818 f i DelayImp:delayhlp.obj
 0001:0004a8b4       ?DloadMakePermanentImageCommit@@YAXPEAX_K@Z 000000018004b8b4 f i DelayImp:delayhlp.obj
 0001:0004a94c       ?DloadObtainSection@@YAPEAXPEAK0@Z 000000018004b94c f i DelayImp:delayhlp.obj
 0001:0004a9e8       ?DloadProtectSection@@YAXKPEAK@Z 000000018004b9e8 f i DelayImp:delayhlp.obj
 0001:0004aa78       ?DloadReleaseSectionWriteAccess@@YAXXZ 000000018004ba78 f i DelayImp:delayhlp.obj
 0001:0004ab0c       __delayLoadHelper2         000000018004bb0c f   DelayImp:delayhlp.obj
 0001:0004add0       _FindPESection             000000018004bdd0 f   LIBCMT:pesect.obj
 0001:0004ae20       _IsNonwritableInCurrentImage 000000018004be20 f   LIBCMT:pesect.obj
 0001:0004ae70       _ValidateImageBase         000000018004be70 f   LIBCMT:pesect.obj
 0001:0004aea0       _local_unwind              000000018004bea0 f   libvcruntime:jmpuwind.obj
 0001:0004aecc       strrchr                    000000018004becc f   libvcruntime:strrchr.obj
 0001:0004b018       strchr                     000000018004c018 f   libvcruntime:strchr.obj
 0001:0004b0a4       wcschr                     000000018004c0a4 f   libvcruntime:wcschr.obj
 0001:0004b140       log                        000000018004c140 f   libucrt:log.obj
 0001:0004b680       _guard_dispatch_icall_nop  000000018004c680 f   LIBCMT:guard_dispatch.obj
 0002:00000000       __imp_GetModuleHandleA     000000018004f000     kernel32:KERNEL32.dll
 0002:00000008       __imp_LoadLibraryExA       000000018004f008     kernel32:KERNEL32.dll
 0002:00000010       __imp_GetLastError         000000018004f010     kernel32:KERNEL32.dll
 0002:00000018       __imp_WideCharToMultiByte  000000018004f018     kernel32:KERNEL32.dll
 0002:00000020       __imp_EnterCriticalSection 000000018004f020     kernel32:KERNEL32.dll
 0002:00000028       __imp_LeaveCriticalSection 000000018004f028     kernel32:KERNEL32.dll
 0002:00000030       __imp_DeleteCriticalSection 000000018004f030     kernel32:KERNEL32.dll
 0002:00000038       __imp_SetLastError         000000018004f038     kernel32:KERNEL32.dll
 0002:00000040       __imp_InitializeCriticalSectionAndSpinCount 000000018004f040     kernel32:KERNEL32.dll
 0002:00000048       __imp_SwitchToThread       000000018004f048     kernel32:KERNEL32.dll
 0002:00000050       __imp_TlsAlloc             000000018004f050     kernel32:KERNEL32.dll
 0002:00000058       __imp_TlsGetValue          000000018004f058     kernel32:KERNEL32.dll
 0002:00000060       __imp_TlsSetValue          000000018004f060     kernel32:KERNEL32.dll
 0002:00000068       __imp_TlsFree              000000018004f068     kernel32:KERNEL32.dll
 0002:00000070       __imp_GetSystemTimeAsFileTime 000000018004f070     kernel32:KERNEL32.dll
 0002:00000078       __imp_GetModuleHandleW     000000018004f078     kernel32:KERNEL32.dll
 0002:00000080       __imp_GetProcAddress       000000018004f080     kernel32:KERNEL32.dll
 0002:00000088       __imp_EncodePointer        000000018004f088     kernel32:KERNEL32.dll
 0002:00000090       __imp_DecodePointer        000000018004f090     kernel32:KERNEL32.dll
 0002:00000098       __imp_MultiByteToWideChar  000000018004f098     kernel32:KERNEL32.dll
 0002:000000a0       __imp_CompareStringW       000000018004f0a0     kernel32:KERNEL32.dll
 0002:000000a8       __imp_LCMapStringW         000000018004f0a8     kernel32:KERNEL32.dll
 0002:000000b0       __imp_GetLocaleInfoW       000000018004f0b0     kernel32:KERNEL32.dll
 0002:000000b8       __imp_GetStringTypeW       000000018004f0b8     kernel32:KERNEL32.dll
 0002:000000c0       __imp_GetCPInfo            000000018004f0c0     kernel32:KERNEL32.dll
 0002:000000c8       __imp_RtlCaptureContext    000000018004f0c8     kernel32:KERNEL32.dll
 0002:000000d0       __imp_RtlLookupFunctionEntry 000000018004f0d0     kernel32:KERNEL32.dll
 0002:000000d8       __imp_RtlVirtualUnwind     000000018004f0d8     kernel32:KERNEL32.dll
 0002:000000e0       __imp_UnhandledExceptionFilter 000000018004f0e0     kernel32:KERNEL32.dll
 0002:000000e8       __imp_SetUnhandledExceptionFilter 000000018004f0e8     kernel32:KERNEL32.dll
 0002:000000f0       __imp_GetCurrentProcess    000000018004f0f0     kernel32:KERNEL32.dll
 0002:000000f8       __imp_TerminateProcess     000000018004f0f8     kernel32:KERNEL32.dll
 0002:00000100       __imp_IsProcessorFeaturePresent 000000018004f100     kernel32:KERNEL32.dll
 0002:00000108       __imp_IsDebuggerPresent    000000018004f108     kernel32:KERNEL32.dll
 0002:00000110       __imp_GetStartupInfoW      000000018004f110     kernel32:KERNEL32.dll
 0002:00000118       __imp_QueryPerformanceCounter 000000018004f118     kernel32:KERNEL32.dll
 0002:00000120       __imp_GetCurrentProcessId  000000018004f120     kernel32:KERNEL32.dll
 0002:00000128       __imp_GetCurrentThreadId   000000018004f128     kernel32:KERNEL32.dll
 0002:00000130       __imp_InitializeSListHead  000000018004f130     kernel32:KERNEL32.dll
 0002:00000138       __imp_RtlUnwindEx          000000018004f138     kernel32:KERNEL32.dll
 0002:00000140       __imp_RtlPcToFileHeader    000000018004f140     kernel32:KERNEL32.dll
 0002:00000148       __imp_RaiseException       000000018004f148     kernel32:KERNEL32.dll
 0002:00000150       __imp_InterlockedFlushSList 000000018004f150     kernel32:KERNEL32.dll
 0002:00000158       __imp_FreeLibrary          000000018004f158     kernel32:KERNEL32.dll
 0002:00000160       __imp_LoadLibraryExW       000000018004f160     kernel32:KERNEL32.dll
 0002:00000168       __imp_GetStdHandle         000000018004f168     kernel32:KERNEL32.dll
 0002:00000170       __imp_GetFileType          000000018004f170     kernel32:KERNEL32.dll
 0002:00000178       __imp_GetModuleFileNameW   000000018004f178     kernel32:KERNEL32.dll
 0002:00000180       __imp_GetModuleHandleExW   000000018004f180     kernel32:KERNEL32.dll
 0002:00000188       __imp_WriteConsoleW        000000018004f188     kernel32:KERNEL32.dll
 0002:00000190       __imp_ExitProcess          000000018004f190     kernel32:KERNEL32.dll
 0002:00000198       __imp_GetFileSizeEx        000000018004f198     kernel32:KERNEL32.dll
 0002:000001a0       __imp_SetFilePointerEx     000000018004f1a0     kernel32:KERNEL32.dll
 0002:000001a8       __imp_HeapAlloc            000000018004f1a8     kernel32:KERNEL32.dll
 0002:000001b0       __imp_FlushFileBuffers     000000018004f1b0     kernel32:KERNEL32.dll
 0002:000001b8       __imp_WriteFile            000000018004f1b8     kernel32:KERNEL32.dll
 0002:000001c0       __imp_GetConsoleCP         000000018004f1c0     kernel32:KERNEL32.dll
 0002:000001c8       __imp_GetConsoleMode       000000018004f1c8     kernel32:KERNEL32.dll
 0002:000001d0       __imp_HeapFree             000000018004f1d0     kernel32:KERNEL32.dll
 0002:000001d8       __imp_CloseHandle          000000018004f1d8     kernel32:KERNEL32.dll
 0002:000001e0       __imp_GetDateFormatW       000000018004f1e0     kernel32:KERNEL32.dll
 0002:000001e8       __imp_GetTimeFormatW       000000018004f1e8     kernel32:KERNEL32.dll
 0002:000001f0       __imp_IsValidLocale        000000018004f1f0     kernel32:KERNEL32.dll
 0002:000001f8       __imp_GetUserDefaultLCID   000000018004f1f8     kernel32:KERNEL32.dll
 0002:00000200       __imp_EnumSystemLocalesW   000000018004f200     kernel32:KERNEL32.dll
 0002:00000208       __imp_ReadFile             000000018004f208     kernel32:KERNEL32.dll
 0002:00000210       __imp_GetTimeZoneInformation 000000018004f210     kernel32:KERNEL32.dll
 0002:00000218       __imp_ReadConsoleW         000000018004f218     kernel32:KERNEL32.dll
 0002:00000220       __imp_OutputDebugStringW   000000018004f220     kernel32:KERNEL32.dll
 0002:00000228       __imp_HeapReAlloc          000000018004f228     kernel32:KERNEL32.dll
 0002:00000230       __imp_FindClose            000000018004f230     kernel32:KERNEL32.dll
 0002:00000238       __imp_FindFirstFileExW     000000018004f238     kernel32:KERNEL32.dll
 0002:00000240       __imp_FindNextFileW        000000018004f240     kernel32:KERNEL32.dll
 0002:00000248       __imp_IsValidCodePage      000000018004f248     kernel32:KERNEL32.dll
 0002:00000250       __imp_GetACP               000000018004f250     kernel32:KERNEL32.dll
 0002:00000258       __imp_GetOEMCP             000000018004f258     kernel32:KERNEL32.dll
 0002:00000260       __imp_GetCommandLineA      000000018004f260     kernel32:KERNEL32.dll
 0002:00000268       __imp_GetCommandLineW      000000018004f268     kernel32:KERNEL32.dll
 0002:00000270       __imp_GetEnvironmentStringsW 000000018004f270     kernel32:KERNEL32.dll
 0002:00000278       __imp_FreeEnvironmentStringsW 000000018004f278     kernel32:KERNEL32.dll
 0002:00000280       __imp_SetEnvironmentVariableW 000000018004f280     kernel32:KERNEL32.dll
 0002:00000288       __imp_GetProcessHeap       000000018004f288     kernel32:KERNEL32.dll
 0002:00000290       __imp_SetStdHandle         000000018004f290     kernel32:KERNEL32.dll
 0002:00000298       __imp_CreateFileW          000000018004f298     kernel32:KERNEL32.dll
 0002:000002a0       __imp_HeapSize             000000018004f2a0     kernel32:KERNEL32.dll
 0002:000002a8       __imp_SetEndOfFile         000000018004f2a8     kernel32:KERNEL32.dll
 0002:000002b0       __imp_GetSystemInfo        000000018004f2b0     kernel32:KERNEL32.dll
 0002:000002b8       __imp_VirtualProtect       000000018004f2b8     kernel32:KERNEL32.dll
 0002:000002c0       __imp_VirtualQuery         000000018004f2c0     kernel32:KERNEL32.dll
 0002:000002c8       __imp_RtlUnwind            000000018004f2c8     kernel32:KERNEL32.dll
 0002:000002d0       \177KERNEL32_NULL_THUNK_DATA 000000018004f2d0     kernel32:KERNEL32.dll
 0002:000002d8       __guard_check_icall_fptr   000000018004f2d8     LIBCMT:guard_support.obj
 0002:000002e0       __guard_dispatch_icall_fptr 000000018004f2e0     LIBCMT:guard_support.obj
 0002:000002e8       __xc_a                     000000018004f2e8     LIBCMT:initializers.obj
 0002:00000348       _register_nodejieba_       000000018004f348     index.obj
 0002:00000350       __xc_z                     000000018004f350     LIBCMT:initializers.obj
 0002:00000358       __xi_a                     000000018004f358     LIBCMT:initializers.obj
 0002:00000368       __acrt_stdio_initializer   000000018004f368     libucrt:stdio_initializer.obj
 0002:00000370       __acrt_timeset_initializer 000000018004f370     libucrt:timeset_initializer.obj
 0002:00000378       __acrt_tran_fma3_initializer 000000018004f378     libucrt:fma3_initializer.obj
 0002:00000380       __acrt_multibyte_initializer 000000018004f380     libucrt:multibyte_initializer.obj
 0002:00000388       __xi_z                     000000018004f388     LIBCMT:initializers.obj
 0002:00000390       __xp_a                     000000018004f390     LIBCMT:initializers.obj
 0002:00000398       __acrt_locale_terminator   000000018004f398     libucrt:locale_initializer.obj
 0002:000003a0       __dcrt_console_output_terminator 000000018004f3a0     libucrt:console_output_initializer.obj
 0002:000003a8       __acrt_stdio_terminator    000000018004f3a8     libucrt:stdio_initializer.obj
 0002:000003b0       __xp_z                     000000018004f3b0     LIBCMT:initializers.obj
 0002:000003b8       __xt_a                     000000018004f3b8     LIBCMT:initializers.obj
 0002:000003c0       __xt_z                     000000018004f3c0     LIBCMT:initializers.obj
 0002:000003d0       __sz_node_exe              000000018004f3d0     node:node.exe
 0002:000003e8       ??_7exception@std@@6B@     000000018004f3e8     libcpmt:xonce.obj
 0002:000003f8       ??_C@_0BC@EOODALEL@Unknown?5exception@ 000000018004f3f8     libcpmt:xonce.obj
 0002:00000418       ??_7runtime_error@std@@6B@ 000000018004f418     libcpmt:xonce.obj
 0002:00000430       ??_7_System_error@std@@6B@ 000000018004f430     libcpmt:xonce.obj
 0002:00000440       ??_C@_0O@BFJCFAAK@unknown?5error@ 000000018004f440     libcpmt:xonce.obj
 0002:00000520       ??_7_Facet_base@std@@6B@   000000018004f520     libcpmt:locale0.obj
 0002:00000540       ??_7_Locimp@locale@std@@6B@ 000000018004f540     libcpmt:locale0.obj
 0002:00000558       ??_C@_01NBENCBCI@?$CK@     000000018004f558     libcpmt:locale0.obj
 0002:0000055c       ??_C@_01GFHCPBMG@C@        000000018004f55c     libcpmt:locale0.obj
 0002:00000568       ??_7bad_alloc@std@@6B@     000000018004f568     libcpmt:xthrow.obj
 0002:00000578       ??_C@_0P@GHFPNOJB@bad?5allocation@ 000000018004f578     libcpmt:xthrow.obj
 0002:00000590       ??_7logic_error@std@@6B@   000000018004f590     libcpmt:xthrow.obj
 0002:000005a8       ??_7length_error@std@@6B@  000000018004f5a8     libcpmt:xthrow.obj
 0002:000005c0       ??_7out_of_range@std@@6B@  000000018004f5c0     libcpmt:xthrow.obj
 0002:00000600       ??_7?$ctype@D@std@@6B@     000000018004f600     libcpmt:cerr.obj
 0002:00000660       ??_7_Iostream_error_category@std@@6B@ 000000018004f660     libcpmt:cerr.obj
 0002:00000698       ??_7failure@ios_base@std@@6B@ 000000018004f698     libcpmt:cerr.obj
 0002:000006b0       ??_7ios_base@std@@6B@      000000018004f6b0     libcpmt:cerr.obj
 0002:000006c0       ??_7?$basic_streambuf@DU?$char_traits@D@std@@@std@@6B@ 000000018004f6c0     libcpmt:cerr.obj
 0002:00000740       ??_7?$basic_filebuf@DU?$char_traits@D@std@@@std@@6B@ 000000018004f740     libcpmt:cerr.obj
 0002:000007c0       ??_7?$basic_ios@DU?$char_traits@D@std@@@std@@6B@ 000000018004f7c0     libcpmt:cerr.obj
 0002:000007d0       ??_7?$basic_ostream@DU?$char_traits@D@std@@@std@@6B@ 000000018004f7d0     libcpmt:cerr.obj
 0002:000007e0       ??_7?$codecvt@DDU_Mbstatet@@@std@@6B@ 000000018004f7e0     libcpmt:cerr.obj
 0002:00000830       ?_BADOFF@std@@3_JB         000000018004f830     libcpmt:ios.obj
 0002:000008d8       ??_C@_01KDCPPGHE@r@        000000018004f8d8     libcpmt:fiopen.obj
 0002:000008dc       ??_C@_01NOFIACDB@w@        000000018004f8dc     libcpmt:fiopen.obj
 0002:000008e0       ??_C@_01MCMALHOG@a@        000000018004f8e0     libcpmt:fiopen.obj
 0002:000008e4       ??_C@_02JDPG@rb@           000000018004f8e4     libcpmt:fiopen.obj
 0002:000008e8       ??_C@_02GMLFBBN@wb@        000000018004f8e8     libcpmt:fiopen.obj
 0002:000008ec       ??_C@_02BOGAIONP@ab@       000000018004f8ec     libcpmt:fiopen.obj
 0002:000008f0       ??_C@_02CBLLGHLK@r?$CL@    000000018004f8f0     libcpmt:fiopen.obj
 0002:000008f4       ??_C@_02CHHAKFFB@w?$CL@    000000018004f8f4     libcpmt:fiopen.obj
 0002:000008f8       ??_C@_02DPNLHKJD@a?$CL@    000000018004f8f8     libcpmt:fiopen.obj
 0002:000008fc       ??_C@_03HMFOOINA@r?$CLb@   000000018004f8fc     libcpmt:fiopen.obj
 0002:00000900       ??_C@_03ELIABIOC@w?$CLb@   000000018004f900     libcpmt:fiopen.obj
 0002:00000904       ??_C@_03DOPCBAKB@a?$CLb@   000000018004f904     libcpmt:fiopen.obj
 0002:00000908       ?valid@?1???$_Xfiopen@D@std@@YAPEAU_iobuf@@PEBDHH@Z@4QBHB 000000018004f908     libcpmt:fiopen.obj
 0002:000010a0       ??_C@_0BN@LKKBCCDB@address?5family?5not?5supported@ 00000001800500a0     libcpmt:syserror.obj
 0002:000010c0       ??_C@_0P@LDMLAFHI@address?5in?5use@ 00000001800500c0     libcpmt:syserror.obj
 0002:000010d0       ??_C@_0BG@DHPCNBJB@address?5not?5available@ 00000001800500d0     libcpmt:syserror.obj
 0002:000010e8       ??_C@_0BC@DFIBIBIL@already?5connected@ 00000001800500e8     libcpmt:syserror.obj
 0002:00001100       ??_C@_0BH@CAKOHOMI@argument?5list?5too?5long@ 0000000180050100     libcpmt:syserror.obj
 0002:00001118       ??_C@_0BH@CGIMPKIM@argument?5out?5of?5domain@ 0000000180050118     libcpmt:syserror.obj
 0002:00001130       ??_C@_0M@KGHGGJGL@bad?5address@ 0000000180050130     libcpmt:syserror.obj
 0002:00001140       ??_C@_0BE@MPJPGCEO@bad?5file?5descriptor@ 0000000180050140     libcpmt:syserror.obj
 0002:00001158       ??_C@_0M@PMMIEFCP@bad?5message@ 0000000180050158     libcpmt:syserror.obj
 0002:00001168       ??_C@_0M@KPHOFDBE@broken?5pipe@ 0000000180050168     libcpmt:syserror.obj
 0002:00001178       ??_C@_0BD@MGNDDEGM@connection?5aborted@ 0000000180050178     libcpmt:syserror.obj
 0002:00001190       ??_C@_0BP@KAIHPOGN@connection?5already?5in?5progress@ 0000000180050190     libcpmt:syserror.obj
 0002:000011b0       ??_C@_0BD@PJLIIJEL@connection?5refused@ 00000001800501b0     libcpmt:syserror.obj
 0002:000011c8       ??_C@_0BB@IECNJNOI@connection?5reset@ 00000001800501c8     libcpmt:syserror.obj
 0002:000011e0       ??_C@_0BC@PPHBOELF@cross?5device?5link@ 00000001800501e0     libcpmt:syserror.obj
 0002:000011f8       ??_C@_0BN@KDMIFEIP@destination?5address?5required@ 00000001800501f8     libcpmt:syserror.obj
 0002:00001218       ??_C@_0BI@NGCEHDD@device?5or?5resource?5busy@ 0000000180050218     libcpmt:syserror.obj
 0002:00001230       ??_C@_0BE@JIDOCPHM@directory?5not?5empty@ 0000000180050230     libcpmt:syserror.obj
 0002:00001248       ??_C@_0BI@BNCLIGPB@executable?5format?5error@ 0000000180050248     libcpmt:syserror.obj
 0002:00001260       ??_C@_0M@MIDIAGJP@file?5exists@ 0000000180050260     libcpmt:syserror.obj
 0002:00001270       ??_C@_0P@DNAJLBJK@file?5too?5large@ 0000000180050270     libcpmt:syserror.obj
 0002:00001280       ??_C@_0BC@EJHOMAAK@filename?5too?5long@ 0000000180050280     libcpmt:syserror.obj
 0002:00001298       ??_C@_0BH@KEFGLDAF@function?5not?5supported@ 0000000180050298     libcpmt:syserror.obj
 0002:000012b0       ??_C@_0BB@DHFDFGDM@host?5unreachable@ 00000001800502b0     libcpmt:syserror.obj
 0002:000012c8       ??_C@_0BD@JPHBMONG@identifier?5removed@ 00000001800502c8     libcpmt:syserror.obj
 0002:000012e0       ??_C@_0BG@CDNPAGJK@illegal?5byte?5sequence@ 00000001800502e0     libcpmt:syserror.obj
 0002:000012f8       ??_C@_0CD@BNPLBMNA@inappropriate?5io?5control?5operat@ 00000001800502f8     libcpmt:syserror.obj
 0002:00001320       ??_C@_0M@EGEKIIMP@interrupted@ 0000000180050320     libcpmt:syserror.obj
 0002:00001330       ??_C@_0BB@FCMFBGOM@invalid?5argument@ 0000000180050330     libcpmt:syserror.obj
 0002:00001348       ??_C@_0N@OHAFKDEK@invalid?5seek@ 0000000180050348     libcpmt:syserror.obj
 0002:00001358       ??_C@_08GLNPIFBN@io?5error@ 0000000180050358     libcpmt:syserror.obj
 0002:00001368       ??_C@_0P@FLLDBIDK@is?5a?5directory@ 0000000180050368     libcpmt:syserror.obj
 0002:00001378       ??_C@_0N@IFLPBIOP@message?5size@ 0000000180050378     libcpmt:syserror.obj
 0002:00001388       ??_C@_0N@KIIEAAIO@network?5down@ 0000000180050388     libcpmt:syserror.obj
 0002:00001398       ??_C@_0O@FNPDBHEE@network?5reset@ 0000000180050398     libcpmt:syserror.obj
 0002:000013a8       ??_C@_0BE@IFNCKGE@network?5unreachable@ 00000001800503a8     libcpmt:syserror.obj
 0002:000013c0       ??_C@_0BA@PFFCAOFK@no?5buffer?5space@ 00000001800503c0     libcpmt:syserror.obj
 0002:000013d0       ??_C@_0BB@IEPBLJHK@no?5child?5process@ 00000001800503d0     libcpmt:syserror.obj
 0002:000013e8       ??_C@_07PLECNNKG@no?5link@ 00000001800503e8     libcpmt:syserror.obj
 0002:000013f0       ??_C@_0BC@NJECKMKE@no?5lock?5available@ 00000001800503f0     libcpmt:syserror.obj
 0002:00001408       ??_C@_0BF@PBGGPKKE@no?5message?5available@ 0000000180050408     libcpmt:syserror.obj
 0002:00001420       ??_C@_0L@EDOLMPAK@no?5message@ 0000000180050420     libcpmt:syserror.obj
 0002:00001430       ??_C@_0BD@EAMBFIDF@no?5protocol?5option@ 0000000180050430     libcpmt:syserror.obj
 0002:00001448       ??_C@_0BD@IJDJKDEA@no?5space?5on?5device@ 0000000180050448     libcpmt:syserror.obj
 0002:00001460       ??_C@_0BE@MKFDAFMP@no?5stream?5resources@ 0000000180050460     libcpmt:syserror.obj
 0002:00001478       ??_C@_0BK@IMCPHCBI@no?5such?5device?5or?5address@ 0000000180050478     libcpmt:syserror.obj
 0002:00001498       ??_C@_0P@FDINDDOK@no?5such?5device@ 0000000180050498     libcpmt:syserror.obj
 0002:000014a8       ??_C@_0BK@NDOCBPGE@no?5such?5file?5or?5directory@ 00000001800504a8     libcpmt:syserror.obj
 0002:000014c8       ??_C@_0BA@ENLPPKBN@no?5such?5process@ 00000001800504c8     libcpmt:syserror.obj
 0002:000014d8       ??_C@_0BA@DOCPFFJG@not?5a?5directory@ 00000001800504d8     libcpmt:syserror.obj
 0002:000014e8       ??_C@_0N@POEIPGGF@not?5a?5socket@ 00000001800504e8     libcpmt:syserror.obj
 0002:000014f8       ??_C@_0N@LGAPMMPI@not?5a?5stream@ 00000001800504f8     libcpmt:syserror.obj
 0002:00001508       ??_C@_0O@GLMIBBEG@not?5connected@ 0000000180050508     libcpmt:syserror.obj
 0002:00001518       ??_C@_0BC@ENOOLCNF@not?5enough?5memory@ 0000000180050518     libcpmt:syserror.obj
 0002:00001530       ??_C@_0O@NHEDABJP@not?5supported@ 0000000180050530     libcpmt:syserror.obj
 0002:00001540       ??_C@_0BD@MOLBPMEA@operation?5canceled@ 0000000180050540     libcpmt:syserror.obj
 0002:00001558       ??_C@_0BG@KDKHOPCO@operation?5in?5progress@ 0000000180050558     libcpmt:syserror.obj
 0002:00001570       ??_C@_0BI@OHIEJAAB@operation?5not?5permitted@ 0000000180050570     libcpmt:syserror.obj
 0002:00001588       ??_C@_0BI@LNEGIFLN@operation?5not?5supported@ 0000000180050588     libcpmt:syserror.obj
 0002:000015a0       ??_C@_0BG@OEMDKMEE@operation?5would?5block@ 00000001800505a0     libcpmt:syserror.obj
 0002:000015b8       ??_C@_0L@BLPOFLNJ@owner?5dead@ 00000001800505b8     libcpmt:syserror.obj
 0002:000015c8       ??_C@_0BC@CIJDGCDI@permission?5denied@ 00000001800505c8     libcpmt:syserror.obj
 0002:000015e0       ??_C@_0P@FNPOCJBE@protocol?5error@ 00000001800505e0     libcpmt:syserror.obj
 0002:000015f0       ??_C@_0BH@JPPPLHJB@protocol?5not?5supported@ 00000001800505f0     libcpmt:syserror.obj
 0002:00001608       ??_C@_0BG@EICBIHDP@read?5only?5file?5system@ 0000000180050608     libcpmt:syserror.obj
 0002:00001620       ??_C@_0BO@BJBOMOEJ@resource?5deadlock?5would?5occur@ 0000000180050620     libcpmt:syserror.obj
 0002:00001640       ??_C@_0BP@LKNGHENJ@resource?5unavailable?5try?5again@ 0000000180050640     libcpmt:syserror.obj
 0002:00001660       ??_C@_0BE@GOIPJJHG@result?5out?5of?5range@ 0000000180050660     libcpmt:syserror.obj
 0002:00001678       ??_C@_0BG@MPLKFPAE@state?5not?5recoverable@ 0000000180050678     libcpmt:syserror.obj
 0002:00001690       ??_C@_0P@DIIFGFCG@stream?5timeout@ 0000000180050690     libcpmt:syserror.obj
 0002:000016a0       ??_C@_0P@IPFDMIFL@text?5file?5busy@ 00000001800506a0     libcpmt:syserror.obj
 0002:000016b0       ??_C@_09KJPPMAOI@timed?5out@ 00000001800506b0     libcpmt:syserror.obj
 0002:000016c0       ??_C@_0BO@HACHBEKI@too?5many?5files?5open?5in?5system@ 00000001800506c0     libcpmt:syserror.obj
 0002:000016e0       ??_C@_0BE@GHAFMPAH@too?5many?5files?5open@ 00000001800506e0     libcpmt:syserror.obj
 0002:000016f8       ??_C@_0P@HCOMKFCC@too?5many?5links@ 00000001800506f8     libcpmt:syserror.obj
 0002:00001708       ??_C@_0BO@EFGOJEF@too?5many?5symbolic?5link?5levels@ 0000000180050708     libcpmt:syserror.obj
 0002:00001728       ??_C@_0BA@KGKGOOJA@value?5too?5large@ 0000000180050728     libcpmt:syserror.obj
 0002:00001738       ??_C@_0BE@MIEJDDNH@wrong?5protocol?5type@ 0000000180050738     libcpmt:syserror.obj
 0002:00001750       ??_C@_1BK@MGMFAEKH@?$AAk?$AAe?$AAr?$AAn?$AAe?$AAl?$AA3?$AA2?$AA?4?$AAd?$AAl?$AAl@ 0000000180050750     libcpmt:winapisupp.obj
 0002:00001770       ??_C@_08KNHFBNJ@FlsAlloc@  0000000180050770     libcpmt:winapisupp.obj
 0002:00001780       ??_C@_07PEJMOBNF@FlsFree@  0000000180050780     libcpmt:winapisupp.obj
 0002:00001788       ??_C@_0M@GDNOONDI@FlsGetValue@ 0000000180050788     libcpmt:winapisupp.obj
 0002:00001798       ??_C@_0M@JCPCPOEF@FlsSetValue@ 0000000180050798     libcpmt:winapisupp.obj
 0002:000017a8       ??_C@_0BM@HCFOFFN@InitializeCriticalSectionEx@ 00000001800507a8     libcpmt:winapisupp.obj
 0002:000017c8       ??_C@_0BE@GPLMMCMH@InitOnceExecuteOnce@ 00000001800507c8     libcpmt:winapisupp.obj
 0002:000017e0       ??_C@_0P@DLHPPCNH@CreateEventExW@ 00000001800507e0     libcpmt:winapisupp.obj
 0002:000017f0       ??_C@_0BB@MEFPJLHN@CreateSemaphoreW@ 00000001800507f0     libcpmt:winapisupp.obj
 0002:00001808       ??_C@_0BD@KIEEOEEH@CreateSemaphoreExW@ 0000000180050808     libcpmt:winapisupp.obj
 0002:00001820       ??_C@_0BG@OGFAJCKC@CreateThreadpoolTimer@ 0000000180050820     libcpmt:winapisupp.obj
 0002:00001838       ??_C@_0BD@LPLEMMDI@SetThreadpoolTimer@ 0000000180050838     libcpmt:winapisupp.obj
 0002:00001850       ??_C@_0CA@FMNJENH@WaitForThreadpoolTimerCallbacks@ 0000000180050850     libcpmt:winapisupp.obj
 0002:00001870       ??_C@_0BF@DCFCCNOC@CloseThreadpoolTimer@ 0000000180050870     libcpmt:winapisupp.obj
 0002:00001888       ??_C@_0BF@FLABGKKM@CreateThreadpoolWait@ 0000000180050888     libcpmt:winapisupp.obj
 0002:000018a0       ??_C@_0BC@MGCOHNA@SetThreadpoolWait@ 00000001800508a0     libcpmt:winapisupp.obj
 0002:000018b8       ??_C@_0BE@OCIOMIMP@CloseThreadpoolWait@ 00000001800508b8     libcpmt:winapisupp.obj
 0002:000018d0       ??_C@_0BJ@LKGHFHBO@FlushProcessWriteBuffers@ 00000001800508d0     libcpmt:winapisupp.obj
 0002:000018f0       ??_C@_0BP@KALKKPMO@FreeLibraryWhenCallbackReturns@ 00000001800508f0     libcpmt:winapisupp.obj
 0002:00001910       ??_C@_0BK@DFNBACLA@GetCurrentProcessorNumber@ 0000000180050910     libcpmt:winapisupp.obj
 0002:00001930       ??_C@_0BE@FKKLLFLM@CreateSymbolicLinkW@ 0000000180050930     libcpmt:winapisupp.obj
 0002:00001948       ??_C@_0BE@JOGNEJCI@GetCurrentPackageId@ 0000000180050948     libcpmt:winapisupp.obj
 0002:00001960       ??_C@_0P@CDHHOHKP@GetTickCount64@ 0000000180050960     libcpmt:winapisupp.obj
 0002:00001970       ??_C@_0BN@NEEHBBPO@GetFileInformationByHandleEx@ 0000000180050970     libcpmt:winapisupp.obj
 0002:00001990       ??_C@_0BL@KBBHGKCM@SetFileInformationByHandle@ 0000000180050990     libcpmt:winapisupp.obj
 0002:000019b0       ??_C@_0BP@FPNJPEJC@GetSystemTimePreciseAsFileTime@ 00000001800509b0     libcpmt:winapisupp.obj
 0002:000019d0       ??_C@_0BM@HLJJNPAH@InitializeConditionVariable@ 00000001800509d0     libcpmt:winapisupp.obj
 0002:000019f0       ??_C@_0BG@BFNILBLN@WakeConditionVariable@ 00000001800509f0     libcpmt:winapisupp.obj
 0002:00001a08       ??_C@_0BJ@PGPPEPCC@WakeAllConditionVariable@ 0000000180050a08     libcpmt:winapisupp.obj
 0002:00001a28       ??_C@_0BJ@JEBJOJFJ@SleepConditionVariableCS@ 0000000180050a28     libcpmt:winapisupp.obj
 0002:00001a48       ??_C@_0BC@MMLHEBPB@InitializeSRWLock@ 0000000180050a48     libcpmt:winapisupp.obj
 0002:00001a60       ??_C@_0BI@OMNLIJDB@AcquireSRWLockExclusive@ 0000000180050a60     libcpmt:winapisupp.obj
 0002:00001a78       ??_C@_0BL@OGHFEMNA@TryAcquireSRWLockExclusive@ 0000000180050a78     libcpmt:winapisupp.obj
 0002:00001a98       ??_C@_0BI@HMIEPCNJ@ReleaseSRWLockExclusive@ 0000000180050a98     libcpmt:winapisupp.obj
 0002:00001ab0       ??_C@_0BK@LGACAGIC@SleepConditionVariableSRW@ 0000000180050ab0     libcpmt:winapisupp.obj
 0002:00001ad0       ??_C@_0BF@GGPHFPJA@CreateThreadpoolWork@ 0000000180050ad0     libcpmt:winapisupp.obj
 0002:00001ae8       ??_C@_0BF@NHDAIMMO@SubmitThreadpoolWork@ 0000000180050ae8     libcpmt:winapisupp.obj
 0002:00001b00       ??_C@_0BE@NPHIPNPD@CloseThreadpoolWork@ 0000000180050b00     libcpmt:winapisupp.obj
 0002:00001b18       ??_C@_0BA@IHGNDAEB@CompareStringEx@ 0000000180050b18     libcpmt:winapisupp.obj
 0002:00001b28       ??_C@_0BA@ONOKGCMP@GetLocaleInfoEx@ 0000000180050b28     libcpmt:winapisupp.obj
 0002:00001b38       ??_C@_0O@KKBNKAPF@LCMapStringEx@ 0000000180050b38     libcpmt:winapisupp.obj
 0002:00001b50       ??_7?$num_put@DV?$ostreambuf_iterator@DU?$char_traits@D@std@@@std@@@std@@6B@ 0000000180050b50     libcpmt:locale.obj
 0002:00001bb0       ??_7?$numpunct@D@std@@6B@  0000000180050bb0     libcpmt:locale.obj
 0002:00001c18       ??_C@_11LOCGONAA@@         0000000180050c18     libcpmt:wlocale.obj
 0002:00001c1c       ??_C@_01JOAMLHOP@?9@       0000000180050c1c     libcpmt:wlocale.obj
 0002:00001c20       __xmm@80000000000000008000000000000000 0000000180050c20     libcpmt:wlocale.obj
 0002:00003950       ??_C@_15EMKDOKLE@?$AAa?$AAr@ 0000000180052950     libcpmt:winapinls.obj
 0002:00003958       ??_C@_15KNPADPLH@?$AAb?$AAg@ 0000000180052958     libcpmt:winapinls.obj
 0002:00003960       ??_C@_15EDMHLDMO@?$AAc?$AAa@ 0000000180052960     libcpmt:winapinls.obj
 0002:00003968       ??_C@_1O@BPEAJADD@?$AAz?$AAh?$AA?9?$AAC?$AAH?$AAS@ 0000000180052968     libcpmt:winapinls.obj
 0002:00003978       ??_C@_15LJNHCMNK@?$AAc?$AAs@ 0000000180052978     libcpmt:winapinls.obj
 0002:00003980       ??_C@_15FOMCIDHG@?$AAd?$AAa@ 0000000180052980     libcpmt:winapinls.obj
 0002:00003988       ??_C@_15NBKABECB@?$AAd?$AAe@ 0000000180052988     libcpmt:winapinls.obj
 0002:00003990       ??_C@_15GHPEIIAO@?$AAe?$AAl@ 0000000180052990     libcpmt:winapinls.obj
 0002:00003998       ??_C@_15MNPNEAIF@?$AAe?$AAn@ 0000000180052998     libcpmt:winapinls.obj
 0002:000039a0       ??_C@_15GPIOMPMH@?$AAe?$AAs@ 00000001800529a0     libcpmt:winapinls.obj
 0002:000039a8       ??_C@_15NGLOAKJC@?$AAf?$AAi@ 00000001800529a8     libcpmt:winapinls.obj
 0002:000039b0       ??_C@_15FBKGNKAM@?$AAf?$AAr@ 00000001800529b0     libcpmt:winapinls.obj
 0002:000039b8       ??_C@_15KGGCNEFK@?$AAh?$AAe@ 00000001800529b8     libcpmt:winapinls.obj
 0002:000039c0       ??_C@_15PGHLIDMF@?$AAh?$AAu@ 00000001800529c0     libcpmt:winapinls.obj
 0002:000039c8       ??_C@_15BIEMAPLM@?$AAi?$AAs@ 00000001800529c8     libcpmt:winapinls.obj
 0002:000039d0       ??_C@_15IFJLDHAF@?$AAi?$AAt@ 00000001800529d0     libcpmt:winapinls.obj
 0002:000039d8       ??_C@_15GEMIOCAG@?$AAj?$AAa@ 00000001800529d8     libcpmt:winapinls.obj
 0002:000039e0       ??_C@_15EPELEGJA@?$AAk?$AAo@ 00000001800529e0     libcpmt:winapinls.obj
 0002:000039e8       ??_C@_15NDDHIMN@?$AAn?$AAl@ 00000001800529e8     libcpmt:winapinls.obj
 0002:000039f0       ??_C@_15BPIGNHCD@?$AAn?$AAo@ 00000001800529f0     libcpmt:winapinls.obj
 0002:000039f8       ??_C@_15DEOPBLCG@?$AAp?$AAl@ 00000001800529f8     libcpmt:winapinls.obj
 0002:00003a00       ??_C@_15KBECGEFG@?$AAp?$AAt@ 0000000180052a00     libcpmt:winapinls.obj
 0002:00003a08       ??_C@_15GLJCBFMD@?$AAr?$AAo@ 0000000180052a08     libcpmt:winapinls.obj
 0002:00003a10       ??_C@_15FEDGKCDI@?$AAr?$AAu@ 0000000180052a10     libcpmt:winapinls.obj
 0002:00003a18       ??_C@_15GLKMLLHM@?$AAh?$AAr@ 0000000180052a18     libcpmt:winapinls.obj
 0002:00003a20       ??_C@_15CPKMFBDB@?$AAs?$AAk@ 0000000180052a20     libcpmt:winapinls.obj
 0002:00003a28       ??_C@_15BAAIOGMK@?$AAs?$AAq@ 0000000180052a28     libcpmt:winapinls.obj
 0002:00003a30       ??_C@_15INNPNOHD@?$AAs?$AAv@ 0000000180052a30     libcpmt:winapinls.obj
 0002:00003a38       ??_C@_15CABMMOGH@?$AAt?$AAh@ 0000000180052a38     libcpmt:winapinls.obj
 0002:00003a40       ??_C@_15BPLIHJJM@?$AAt?$AAr@ 0000000180052a40     libcpmt:winapinls.obj
 0002:00003a48       ??_C@_15NEOEKKDJ@?$AAu?$AAr@ 0000000180052a48     libcpmt:winapinls.obj
 0002:00003a50       ??_C@_15NFICGAJK@?$AAi?$AAd@ 0000000180052a50     libcpmt:winapinls.obj
 0002:00003a58       ??_C@_15PJPFLCCM@?$AAu?$AAk@ 0000000180052a58     libcpmt:winapinls.obj
 0002:00003a60       ??_C@_15HPJPHDM@?$AAb?$AAe@ 0000000180052a60     libcpmt:winapinls.obj
 0002:00003a68       ??_C@_15LCHLGJII@?$AAs?$AAl@ 0000000180052a68     libcpmt:winapinls.obj
 0002:00003a70       ??_C@_15PCFJPHHO@?$AAe?$AAt@ 0000000180052a70     libcpmt:winapinls.obj
 0002:00003a78       ??_C@_15HPFPGODN@?$AAl?$AAv@ 0000000180052a78     libcpmt:winapinls.obj
 0002:00003a80       ??_C@_15NFFGKGLG@?$AAl?$AAt@ 0000000180052a80     libcpmt:winapinls.obj
 0002:00003a88       ??_C@_15BDAKCCHN@?$AAf?$AAa@ 0000000180052a88     libcpmt:winapinls.obj
 0002:00003a90       ??_C@_15NFGIAIAJ@?$AAv?$AAi@ 0000000180052a90     libcpmt:winapinls.obj
 0002:00003a98       ??_C@_15LMKNDMHN@?$AAh?$AAy@ 0000000180052a98     libcpmt:winapinls.obj
 0002:00003aa0       ??_C@_15IJBHMCFL@?$AAa?$AAz@ 0000000180052aa0     libcpmt:winapinls.obj
 0002:00003aa8       ??_C@_15EKOFJABL@?$AAe?$AAu@ 0000000180052aa8     libcpmt:winapinls.obj
 0002:00003ab0       ??_C@_15BGHADCNK@?$AAm?$AAk@ 0000000180052ab0     libcpmt:winapinls.obj
 0002:00003ab8       ??_C@_15JDNICKHM@?$AAa?$AAf@ 0000000180052ab8     libcpmt:winapinls.obj
 0002:00003ac0       ??_C@_15KPJEDBKD@?$AAk?$AAa@ 0000000180052ac0     libcpmt:winapinls.obj
 0002:00003ac8       ??_C@_15PDNFFFEO@?$AAf?$AAo@ 0000000180052ac8     libcpmt:winapinls.obj
 0002:00003ad0       ??_C@_15OMLEGLOC@?$AAh?$AAi@ 0000000180052ad0     libcpmt:winapinls.obj
 0002:00003ad8       ??_C@_15IDNNENKK@?$AAm?$AAs@ 0000000180052ad8     libcpmt:winapinls.obj
 0002:00003ae0       ??_C@_15MACJNBMH@?$AAk?$AAk@ 0000000180052ae0     libcpmt:winapinls.obj
 0002:00003ae8       ??_C@_15DKDJEOND@?$AAk?$AAy@ 0000000180052ae8     libcpmt:winapinls.obj
 0002:00003af0       ??_C@_15DFGDLJBG@?$AAs?$AAw@ 0000000180052af0     libcpmt:winapinls.obj
 0002:00003af8       ??_C@_15BBFAICNG@?$AAu?$AAz@ 0000000180052af8     libcpmt:winapinls.obj
 0002:00003b00       ??_C@_15DKNDCGEA@?$AAt?$AAt@ 0000000180052b00     libcpmt:winapinls.obj
 0002:00003b08       ??_C@_15MGIFMDPL@?$AAp?$AAa@ 0000000180052b08     libcpmt:winapinls.obj
 0002:00003b10       ??_C@_15HCNDBBA@?$AAg?$AAu@ 0000000180052b10     libcpmt:winapinls.obj
 0002:00003b18       ??_C@_15FNBEIBON@?$AAt?$AAa@ 0000000180052b18     libcpmt:winapinls.obj
 0002:00003b20       ??_C@_15NCHGBGLK@?$AAt?$AAe@ 0000000180052b20     libcpmt:winapinls.obj
 0002:00003b28       ??_C@_15PHPHCBPF@?$AAk?$AAn@ 0000000180052b28     libcpmt:winapinls.obj
 0002:00003b30       ??_C@_15DLGBCKMP@?$AAm?$AAr@ 0000000180052b30     libcpmt:winapinls.obj
 0002:00003b38       ??_C@_15EABBLBFF@?$AAs?$AAa@ 0000000180052b38     libcpmt:winapinls.obj
 0002:00003b40       ??_C@_15CBKOMCOI@?$AAm?$AAn@ 0000000180052b40     libcpmt:winapinls.obj
 0002:00003b48       ??_C@_15CKDMCJAF@?$AAg?$AAl@ 0000000180052b48     libcpmt:winapinls.obj
 0002:00003b50       ??_C@_17CNJFBPG@?$AAk?$AAo?$AAk@ 0000000180052b50     libcpmt:winapinls.obj
 0002:00003b58       ??_C@_17FFBJICPL@?$AAs?$AAy?$AAr@ 0000000180052b58     libcpmt:winapinls.obj
 0002:00003b60       ??_C@_17KPNDCPAF@?$AAd?$AAi?$AAv@ 0000000180052b60     libcpmt:winapinls.obj
 0002:00003b68       ??_C@_1M@OKAHONE@?$AAa?$AAr?$AA?9?$AAS?$AAA@ 0000000180052b68     libcpmt:winapinls.obj
 0002:00003b78       ??_C@_1M@FFFIGIGK@?$AAb?$AAg?$AA?9?$AAB?$AAG@ 0000000180052b78     libcpmt:winapinls.obj
 0002:00003b88       ??_C@_1M@BJNKEDC@?$AAc?$AAa?$AA?9?$AAE?$AAS@ 0000000180052b88     libcpmt:winapinls.obj
 0002:00003b98       ??_C@_1M@CLNBBOPM@?$AAz?$AAh?$AA?9?$AAT?$AAW@ 0000000180052b98     libcpmt:winapinls.obj
 0002:00003ba8       ??_C@_1M@IJJHFJHA@?$AAc?$AAs?$AA?9?$AAC?$AAZ@ 0000000180052ba8     libcpmt:winapinls.obj
 0002:00003bb8       ??_C@_1M@CLPEOBGI@?$AAd?$AAa?$AA?9?$AAD?$AAK@ 0000000180052bb8     libcpmt:winapinls.obj
 0002:00003bc8       ??_C@_1M@MCMADGCB@?$AAd?$AAe?$AA?9?$AAD?$AAE@ 0000000180052bc8     libcpmt:winapinls.obj
 0002:00003bd8       ??_C@_1M@OOCKEMAM@?$AAe?$AAl?$AA?9?$AAG?$AAR@ 0000000180052bd8     libcpmt:winapinls.obj
 0002:00003be8       ??_C@_1M@BMHNFIME@?$AAe?$AAn?$AA?9?$AAU?$AAS@ 0000000180052be8     libcpmt:winapinls.obj
 0002:00003bf8       ??_C@_1M@DDNJFGID@?$AAf?$AAi?$AA?9?$AAF?$AAI@ 0000000180052bf8     libcpmt:winapinls.obj
 0002:00003c08       ??_C@_1M@GLIPPMAC@?$AAf?$AAr?$AA?9?$AAF?$AAR@ 0000000180052c08     libcpmt:winapinls.obj
 0002:00003c18       ??_C@_1M@GFMCHPE@?$AAh?$AAe?$AA?9?$AAI?$AAL@ 0000000180052c18     libcpmt:winapinls.obj
 0002:00003c28       ??_C@_1M@MHLPGNKM@?$AAh?$AAu?$AA?9?$AAH?$AAU@ 0000000180052c28     libcpmt:winapinls.obj
 0002:00003c38       ??_C@_1M@LPDDNNPN@?$AAi?$AAs?$AA?9?$AAI?$AAS@ 0000000180052c38     libcpmt:winapinls.obj
 0002:00003c48       ??_C@_1M@MADIPODN@?$AAi?$AAt?$AA?9?$AAI?$AAT@ 0000000180052c48     libcpmt:winapinls.obj
 0002:00003c58       ??_C@_1M@HPNHIDJI@?$AAj?$AAa?$AA?9?$AAJ?$AAP@ 0000000180052c58     libcpmt:winapinls.obj
 0002:00003c68       ??_C@_1M@JLOOOEGK@?$AAk?$AAo?$AA?9?$AAK?$AAR@ 0000000180052c68     libcpmt:winapinls.obj
 0002:00003c78       ??_C@_1M@IHBJJGG@?$AAn?$AAl?$AA?9?$AAN?$AAL@ 0000000180052c78     libcpmt:winapinls.obj
 0002:00003c88       ??_C@_1M@EANAGDL@?$AAn?$AAb?$AA?9?$AAN?$AAO@ 0000000180052c88     libcpmt:winapinls.obj
 0002:00003c98       ??_C@_1M@NEIEMEGP@?$AAp?$AAl?$AA?9?$AAP?$AAL@ 0000000180052c98     libcpmt:winapinls.obj
 0002:00003ca8       ??_C@_1M@BOCFIGEP@?$AAp?$AAt?$AA?9?$AAB?$AAR@ 0000000180052ca8     libcpmt:winapinls.obj
 0002:00003cb8       ??_C@_1M@IMPFOPBG@?$AAr?$AAo?$AA?9?$AAR?$AAO@ 0000000180052cb8     libcpmt:winapinls.obj
 0002:00003cc8       ??_C@_1M@IDNNEJMM@?$AAr?$AAu?$AA?9?$AAR?$AAU@ 0000000180052cc8     libcpmt:winapinls.obj
 0002:00003cd8       ??_C@_1M@LILEEOGM@?$AAh?$AAr?$AA?9?$AAH?$AAR@ 0000000180052cd8     libcpmt:winapinls.obj
 0002:00003ce8       ??_C@_1M@FKIFEHPB@?$AAs?$AAk?$AA?9?$AAS?$AAK@ 0000000180052ce8     libcpmt:winapinls.obj
 0002:00003cf8       ??_C@_1M@LJMAMNPJ@?$AAs?$AAq?$AA?9?$AAA?$AAL@ 0000000180052cf8     libcpmt:winapinls.obj
 0002:00003d08       ??_C@_1M@GIAKDKJK@?$AAs?$AAv?$AA?9?$AAS?$AAE@ 0000000180052d08     libcpmt:winapinls.obj
 0002:00003d18       ??_C@_1M@MKJKIKCL@?$AAt?$AAh?$AA?9?$AAT?$AAH@ 0000000180052d18     libcpmt:winapinls.obj
 0002:00003d28       ??_C@_1M@MFLCCMPB@?$AAt?$AAr?$AA?9?$AAT?$AAR@ 0000000180052d28     libcpmt:winapinls.obj
 0002:00003d38       ??_C@_1M@OIJHDKJN@?$AAu?$AAr?$AA?9?$AAP?$AAK@ 0000000180052d38     libcpmt:winapinls.obj
 0002:00003d48       ??_C@_1M@LHIPCIEK@?$AAi?$AAd?$AA?9?$AAI?$AAD@ 0000000180052d48     libcpmt:winapinls.obj
 0002:00003d58       ??_C@_1M@MFMOBGI@?$AAu?$AAk?$AA?9?$AAU?$AAA@ 0000000180052d58     libcpmt:winapinls.obj
 0002:00003d68       ??_C@_1M@OBGLJIPL@?$AAb?$AAe?$AA?9?$AAB?$AAY@ 0000000180052d68     libcpmt:winapinls.obj
 0002:00003d78       ??_C@_1M@BCFAJEAD@?$AAs?$AAl?$AA?9?$AAS?$AAI@ 0000000180052d78     libcpmt:winapinls.obj
 0002:00003d88       ??_C@_1M@FKFFEDDN@?$AAe?$AAt?$AA?9?$AAE?$AAE@ 0000000180052d88     libcpmt:winapinls.obj
 0002:00003d98       ??_C@_1M@KGKKAACI@?$AAl?$AAv?$AA?9?$AAL?$AAV@ 0000000180052d98     libcpmt:winapinls.obj
 0002:00003da8       ??_C@_1M@IFGBIJO@?$AAl?$AAt?$AA?9?$AAL?$AAT@ 0000000180052da8     libcpmt:winapinls.obj
 0002:00003db8       ??_C@_1M@FGEAHEDM@?$AAf?$AAa?$AA?9?$AAI?$AAR@ 0000000180052db8     libcpmt:winapinls.obj
 0002:00003dc8       ??_C@_1M@KBMAIBFN@?$AAv?$AAi?$AA?9?$AAV?$AAN@ 0000000180052dc8     libcpmt:winapinls.obj
 0002:00003dd8       ??_C@_1M@GPCBKDJK@?$AAh?$AAy?$AA?9?$AAA?$AAM@ 0000000180052dd8     libcpmt:winapinls.obj
 0002:00003de8       ??_C@_1BG@BECMDDJB@?$AAa?$AAz?$AA?9?$AAA?$AAZ?$AA?9?$AAL?$AAa?$AAt?$AAn@ 0000000180052de8     libcpmt:winapinls.obj
 0002:00003e00       ??_C@_1M@MAOFCAEA@?$AAe?$AAu?$AA?9?$AAE?$AAS@ 0000000180052e00     libcpmt:winapinls.obj
 0002:00003e10       ??_C@_1M@IGHABKPI@?$AAm?$AAk?$AA?9?$AAM?$AAK@ 0000000180052e10     libcpmt:winapinls.obj
 0002:00003e20       ??_C@_1M@IAIGNEJG@?$AAt?$AAn?$AA?9?$AAZ?$AAA@ 0000000180052e20     libcpmt:winapinls.obj
 0002:00003e30       ??_C@_1M@IIJCOJFA@?$AAx?$AAh?$AA?9?$AAZ?$AAA@ 0000000180052e30     libcpmt:winapinls.obj
 0002:00003e40       ??_C@_1M@LGPJHNJH@?$AAz?$AAu?$AA?9?$AAZ?$AAA@ 0000000180052e40     libcpmt:winapinls.obj
 0002:00003e50       ??_C@_1M@HOKAOIO@?$AAa?$AAf?$AA?9?$AAZ?$AAA@ 0000000180052e50     libcpmt:winapinls.obj
 0002:00003e60       ??_C@_1M@DPCLHLIE@?$AAk?$AAa?$AA?9?$AAG?$AAE@ 0000000180052e60     libcpmt:winapinls.obj
 0002:00003e70       ??_C@_1M@BLKMHJBI@?$AAf?$AAo?$AA?9?$AAF?$AAO@ 0000000180052e70     libcpmt:winapinls.obj
 0002:00003e80       ??_C@_1M@LGGJAPPB@?$AAh?$AAi?$AA?9?$AAI?$AAN@ 0000000180052e80     libcpmt:winapinls.obj
 0002:00003e90       ??_C@_1M@FIKPIHFE@?$AAm?$AAt?$AA?9?$AAM?$AAT@ 0000000180052e90     libcpmt:winapinls.obj
 0002:00003ea0       ??_C@_1M@HEGGPBFA@?$AAs?$AAe?$AA?9?$AAN?$AAO@ 0000000180052ea0     libcpmt:winapinls.obj
 0002:00003eb0       ??_C@_1M@EIBJEEPA@?$AAm?$AAs?$AA?9?$AAM?$AAY@ 0000000180052eb0     libcpmt:winapinls.obj
 0002:00003ec0       ??_C@_1M@FHLBGMPP@?$AAk?$AAk?$AA?9?$AAK?$AAZ@ 0000000180052ec0     libcpmt:winapinls.obj
 0002:00003ed0       ??_C@_1M@NGJJLCGI@?$AAk?$AAy?$AA?9?$AAK?$AAG@ 0000000180052ed0     libcpmt:winapinls.obj
 0002:00003ee0       ??_C@_1M@GIENNBFC@?$AAs?$AAw?$AA?9?$AAK?$AAE@ 0000000180052ee0     libcpmt:winapinls.obj
 0002:00003ef0       ??_C@_1BG@NDGMJIMJ@?$AAu?$AAz?$AA?9?$AAU?$AAZ?$AA?9?$AAL?$AAa?$AAt?$AAn@ 0000000180052ef0     libcpmt:winapinls.obj
 0002:00003f08       ??_C@_1M@IDCCIHBC@?$AAt?$AAt?$AA?9?$AAR?$AAU@ 0000000180052f08     libcpmt:winapinls.obj
 0002:00003f18       ??_C@_1M@LOICPMOJ@?$AAb?$AAn?$AA?9?$AAI?$AAN@ 0000000180052f18     libcpmt:winapinls.obj
 0002:00003f28       ??_C@_1M@KPKKNEAH@?$AAp?$AAa?$AA?9?$AAI?$AAN@ 0000000180052f28     libcpmt:winapinls.obj
 0002:00003f38       ??_C@_1M@PJGPPBOG@?$AAg?$AAu?$AA?9?$AAI?$AAN@ 0000000180052f38     libcpmt:winapinls.obj
 0002:00003f48       ??_C@_1M@KMKMOPHI@?$AAt?$AAa?$AA?9?$AAI?$AAN@ 0000000180052f48     libcpmt:winapinls.obj
 0002:00003f58       ??_C@_1M@KFEHEPAC@?$AAt?$AAe?$AA?9?$AAI?$AAN@ 0000000180052f58     libcpmt:winapinls.obj
 0002:00003f68       ??_C@_1M@CDCLMGHI@?$AAk?$AAn?$AA?9?$AAI?$AAN@ 0000000180052f68     libcpmt:winapinls.obj
 0002:00003f78       ??_C@_1M@MIODLDKF@?$AAm?$AAl?$AA?9?$AAI?$AAN@ 0000000180052f78     libcpmt:winapinls.obj
 0002:00003f88       ??_C@_1M@PBIEACPO@?$AAm?$AAr?$AA?9?$AAI?$AAN@ 0000000180052f88     libcpmt:winapinls.obj
 0002:00003f98       ??_C@_1M@NIDEAGPH@?$AAs?$AAa?$AA?9?$AAI?$AAN@ 0000000180052f98     libcpmt:winapinls.obj
 0002:00003fa8       ??_C@_1M@FHIHCBIO@?$AAm?$AAn?$AA?9?$AAM?$AAN@ 0000000180052fa8     libcpmt:winapinls.obj
 0002:00003fb8       ??_C@_1M@JAIJPENP@?$AAc?$AAy?$AA?9?$AAG?$AAB@ 0000000180052fb8     libcpmt:winapinls.obj
 0002:00003fc8       ??_C@_1M@PHGFBEPN@?$AAg?$AAl?$AA?9?$AAE?$AAS@ 0000000180052fc8     libcpmt:winapinls.obj
 0002:00003fd8       ??_C@_1O@KPIPDNCP@?$AAk?$AAo?$AAk?$AA?9?$AAI?$AAN@ 0000000180052fd8     libcpmt:winapinls.obj
 0002:00003fe8       ??_C@_1O@KNHJLDJA@?$AAs?$AAy?$AAr?$AA?9?$AAS?$AAY@ 0000000180052fe8     libcpmt:winapinls.obj
 0002:00003ff8       ??_C@_1O@MKEKBLAH@?$AAd?$AAi?$AAv?$AA?9?$AAM?$AAV@ 0000000180052ff8     libcpmt:winapinls.obj
 0002:00004008       ??_C@_1O@OHDCKDDF@?$AAq?$AAu?$AAz?$AA?9?$AAB?$AAO@ 0000000180053008     libcpmt:winapinls.obj
 0002:00004018       ??_C@_1M@LEPJNLFD@?$AAn?$AAs?$AA?9?$AAZ?$AAA@ 0000000180053018     libcpmt:winapinls.obj
 0002:00004028       ??_C@_1M@OMLEIIJB@?$AAm?$AAi?$AA?9?$AAN?$AAZ@ 0000000180053028     libcpmt:winapinls.obj
 0002:00004038       ??_C@_1M@PMPEAILG@?$AAa?$AAr?$AA?9?$AAI?$AAQ@ 0000000180053038     libcpmt:winapinls.obj
 0002:00004048       ??_C@_1M@BIBDDEMK@?$AAz?$AAh?$AA?9?$AAC?$AAN@ 0000000180053048     libcpmt:winapinls.obj
 0002:00004058       ??_C@_1M@CNKPNOEE@?$AAd?$AAe?$AA?9?$AAC?$AAH@ 0000000180053058     libcpmt:winapinls.obj
 0002:00004068       ??_C@_1M@LKMGMLKO@?$AAe?$AAn?$AA?9?$AAG?$AAB@ 0000000180053068     libcpmt:winapinls.obj
 0002:00004078       ??_C@_1M@PGKJFFGL@?$AAe?$AAs?$AA?9?$AAM?$AAX@ 0000000180053078     libcpmt:winapinls.obj
 0002:00004088       ??_C@_1M@DNNANBDC@?$AAf?$AAr?$AA?9?$AAB?$AAE@ 0000000180053088     libcpmt:winapinls.obj
 0002:00004098       ??_C@_1M@HLGMDFHM@?$AAi?$AAt?$AA?9?$AAC?$AAH@ 0000000180053098     libcpmt:winapinls.obj
 0002:000040a8       ??_C@_1M@CLLBGJH@?$AAn?$AAl?$AA?9?$AAB?$AAE@ 00000001800530a8     libcpmt:winapinls.obj
 0002:000040b8       ??_C@_1M@BODBOGLF@?$AAn?$AAn?$AA?9?$AAN?$AAO@ 00000001800530b8     libcpmt:winapinls.obj
 0002:000040c8       ??_C@_1M@HFFAHKAD@?$AAp?$AAt?$AA?9?$AAP?$AAT@ 00000001800530c8     libcpmt:winapinls.obj
 0002:000040d8       ??_C@_1BG@LNOAKHIE@?$AAs?$AAr?$AA?9?$AAS?$AAP?$AA?9?$AAL?$AAa?$AAt?$AAn@ 00000001800530d8     libcpmt:winapinls.obj
 0002:000040f0       ??_C@_1M@HBMHBGAK@?$AAs?$AAv?$AA?9?$AAF?$AAI@ 00000001800530f0     libcpmt:winapinls.obj
 0002:00004100       ??_C@_1BG@DGCJGJBE@?$AAa?$AAz?$AA?9?$AAA?$AAZ?$AA?9?$AAC?$AAy?$AAr?$AAl@ 0000000180053100     libcpmt:winapinls.obj
 0002:00004118       ??_C@_1M@KEJDAAHB@?$AAs?$AAe?$AA?9?$AAS?$AAE@ 0000000180053118     libcpmt:winapinls.obj
 0002:00004128       ??_C@_1M@HEIBJJAD@?$AAm?$AAs?$AA?9?$AAB?$AAN@ 0000000180053128     libcpmt:winapinls.obj
 0002:00004138       ??_C@_1BG@PBGJMCEM@?$AAu?$AAz?$AA?9?$AAU?$AAZ?$AA?9?$AAC?$AAy?$AAr?$AAl@ 0000000180053138     libcpmt:winapinls.obj
 0002:00004150       ??_C@_1O@LAOBCMDF@?$AAq?$AAu?$AAz?$AA?9?$AAE?$AAC@ 0000000180053150     libcpmt:winapinls.obj
 0002:00004160       ??_C@_1M@POEEMAIO@?$AAa?$AAr?$AA?9?$AAE?$AAG@ 0000000180053160     libcpmt:winapinls.obj
 0002:00004170       ??_C@_1M@EFAKDEDL@?$AAz?$AAh?$AA?9?$AAH?$AAK@ 0000000180053170     libcpmt:winapinls.obj
 0002:00004180       ??_C@_1M@HKKIJHGI@?$AAd?$AAe?$AA?9?$AAA?$AAT@ 0000000180053180     libcpmt:winapinls.obj
 0002:00004190       ??_C@_1M@KBFBEHJF@?$AAe?$AAn?$AA?9?$AAA?$AAU@ 0000000180053190     libcpmt:winapinls.obj
 0002:000041a0       ??_C@_1M@MNPLFAAH@?$AAe?$AAs?$AA?9?$AAE?$AAS@ 00000001800531a0     libcpmt:winapinls.obj
 0002:000041b0       ??_C@_1M@HJOOJFMA@?$AAf?$AAr?$AA?9?$AAC?$AAA@ 00000001800531b0     libcpmt:winapinls.obj
 0002:000041c0       ??_C@_1BG@JPOFPNAB@?$AAs?$AAr?$AA?9?$AAS?$AAP?$AA?9?$AAC?$AAy?$AAr?$AAl@ 00000001800531c0     libcpmt:winapinls.obj
 0002:000041d8       ??_C@_1M@LNFOCMOB@?$AAs?$AAe?$AA?9?$AAF?$AAI@ 00000001800531d8     libcpmt:winapinls.obj
 0002:000041e8       ??_C@_1O@MGJBOAMB@?$AAq?$AAu?$AAz?$AA?9?$AAP?$AAE@ 00000001800531e8     libcpmt:winapinls.obj
 0002:000041f8       ??_C@_1M@GJINLBOK@?$AAa?$AAr?$AA?9?$AAL?$AAY@ 00000001800531f8     libcpmt:winapinls.obj
 0002:00004208       ??_C@_1M@GGMNHJNL@?$AAz?$AAh?$AA?9?$AAS?$AAG@ 0000000180053208     libcpmt:winapinls.obj
 0002:00004218       ??_C@_1M@HOIKODND@?$AAd?$AAe?$AA?9?$AAL?$AAU@ 0000000180053218     libcpmt:winapinls.obj
 0002:00004228       ??_C@_1M@DDOCCGFG@?$AAe?$AAn?$AA?9?$AAC?$AAA@ 0000000180053228     libcpmt:winapinls.obj
 0002:00004238       ??_C@_1M@BNOEMJLF@?$AAe?$AAs?$AA?9?$AAG?$AAT@ 0000000180053238     libcpmt:winapinls.obj
 0002:00004248       ??_C@_1M@EOGNKEK@?$AAf?$AAr?$AA?9?$AAC?$AAH@ 0000000180053248     libcpmt:winapinls.obj
 0002:00004258       ??_C@_1M@FLIDJFHL@?$AAh?$AAr?$AA?9?$AAB?$AAA@ 0000000180053258     libcpmt:winapinls.obj
 0002:00004268       ??_C@_1O@FMCELNAJ@?$AAs?$AAm?$AAj?$AA?9?$AAN?$AAO@ 0000000180053268     libcpmt:winapinls.obj
 0002:00004278       ??_C@_1M@JHGLJMGJ@?$AAa?$AAr?$AA?9?$AAD?$AAZ@ 0000000180053278     libcpmt:winapinls.obj
 0002:00004288       ??_C@_1M@JKKFDCNP@?$AAz?$AAh?$AA?9?$AAM?$AAO@ 0000000180053288     libcpmt:winapinls.obj
 0002:00004298       ??_C@_1M@GEEFALPE@?$AAd?$AAe?$AA?9?$AAL?$AAI@ 0000000180053298     libcpmt:winapinls.obj
 0002:000042a8       ??_C@_1M@IGEOFBG@?$AAe?$AAn?$AA?9?$AAN?$AAZ@ 00000001800532a8     libcpmt:winapinls.obj
 0002:000042b8       ??_C@_1M@KDBONEHP@?$AAe?$AAs?$AA?9?$AAC?$AAR@ 00000001800532b8     libcpmt:winapinls.obj
 0002:000042c8       ??_C@_1M@FHMDOHNN@?$AAf?$AAr?$AA?9?$AAL?$AAU@ 00000001800532c8     libcpmt:winapinls.obj
 0002:000042d8       ??_C@_1BG@NFKKMAFG@?$AAb?$AAs?$AA?9?$AAB?$AAA?$AA?9?$AAL?$AAa?$AAt?$AAn@ 00000001800532d8     libcpmt:winapinls.obj
 0002:000042f0       ??_C@_1O@IMNBEMCI@?$AAs?$AAm?$AAj?$AA?9?$AAS?$AAE@ 00000001800532f0     libcpmt:winapinls.obj
 0002:00004300       ??_C@_1M@DHHMBNDP@?$AAa?$AAr?$AA?9?$AAM?$AAA@ 0000000180053300     libcpmt:winapinls.obj
 0002:00004310       ??_C@_1M@BNBLJCGH@?$AAe?$AAn?$AA?9?$AAI?$AAE@ 0000000180053310     libcpmt:winapinls.obj
 0002:00004320       ??_C@_1M@GEPAFMDL@?$AAe?$AAs?$AA?9?$AAP?$AAA@ 0000000180053320     libcpmt:winapinls.obj
 0002:00004330       ??_C@_1M@OJONDMDL@?$AAf?$AAr?$AA?9?$AAM?$AAC@ 0000000180053330     libcpmt:winapinls.obj
 0002:00004340       ??_C@_1BG@OBCNFJB@?$AAs?$AAr?$AA?9?$AAB?$AAA?$AA?9?$AAL?$AAa?$AAt?$AAn@ 0000000180053340     libcpmt:winapinls.obj
 0002:00004358       ??_C@_1O@KEMEEGPO@?$AAs?$AAm?$AAa?$AA?9?$AAN?$AAO@ 0000000180053358     libcpmt:winapinls.obj
 0002:00004368       ??_C@_1M@ELMGFODK@?$AAa?$AAr?$AA?9?$AAT?$AAN@ 0000000180053368     libcpmt:winapinls.obj
 0002:00004378       ??_C@_1M@BHDLHFAF@?$AAe?$AAn?$AA?9?$AAZ?$AAA@ 0000000180053378     libcpmt:winapinls.obj
 0002:00004388       ??_C@_1M@BMGIGLIF@?$AAe?$AAs?$AA?9?$AAD?$AAO@ 0000000180053388     libcpmt:winapinls.obj
 0002:00004398       ??_C@_1BG@CMBHIPBE@?$AAs?$AAr?$AA?9?$AAB?$AAA?$AA?9?$AAC?$AAy?$AAr?$AAl@ 0000000180053398     libcpmt:winapinls.obj
 0002:000043b0       ??_C@_1O@HEDBLHNP@?$AAs?$AAm?$AAa?$AA?9?$AAS?$AAE@ 00000001800533b0     libcpmt:winapinls.obj
 0002:000043c0       ??_C@_1M@DAGCADIM@?$AAa?$AAr?$AA?9?$AAO?$AAM@ 00000001800533c0     libcpmt:winapinls.obj
 0002:000043d0       ??_C@_1M@FODLMICG@?$AAe?$AAn?$AA?9?$AAJ?$AAM@ 00000001800533d0     libcpmt:winapinls.obj
 0002:000043e0       ??_C@_1M@DNMLCIHB@?$AAe?$AAs?$AA?9?$AAV?$AAE@ 00000001800533e0     libcpmt:winapinls.obj
 0002:000043f0       ??_C@_1O@EOKHMKJK@?$AAs?$AAm?$AAs?$AA?9?$AAF?$AAI@ 00000001800533f0     libcpmt:winapinls.obj
 0002:00004400       ??_C@_1M@CAFJMKOF@?$AAa?$AAr?$AA?9?$AAY?$AAE@ 0000000180053400     libcpmt:winapinls.obj
 0002:00004410       ??_C@_1M@CBFHIJLI@?$AAe?$AAn?$AA?9?$AAC?$AAB@ 0000000180053410     libcpmt:winapinls.obj
 0002:00004420       ??_C@_1M@BGNFLDN@?$AAe?$AAs?$AA?9?$AAC?$AAO@ 0000000180053420     libcpmt:winapinls.obj
 0002:00004430       ??_C@_1O@JMPHMAMC@?$AAs?$AAm?$AAn?$AA?9?$AAF?$AAI@ 0000000180053430     libcpmt:winapinls.obj
 0002:00004440       ??_C@_1M@JLANABKE@?$AAa?$AAr?$AA?9?$AAS?$AAY@ 0000000180053440     libcpmt:winapinls.obj
 0002:00004450       ??_C@_1M@HPKGCFGN@?$AAe?$AAn?$AA?9?$AAB?$AAZ@ 0000000180053450     libcpmt:winapinls.obj
 0002:00004460       ??_C@_1M@OLJCMLGM@?$AAe?$AAs?$AA?9?$AAP?$AAE@ 0000000180053460     libcpmt:winapinls.obj
 0002:00004470       ??_C@_1M@MKKGFKLE@?$AAa?$AAr?$AA?9?$AAJ?$AAO@ 0000000180053470     libcpmt:winapinls.obj
 0002:00004480       ??_C@_1M@EKPGLDNI@?$AAe?$AAn?$AA?9?$AAT?$AAT@ 0000000180053480     libcpmt:winapinls.obj
 0002:00004490       ??_C@_1M@OONGHFHE@?$AAe?$AAs?$AA?9?$AAA?$AAR@ 0000000180053490     libcpmt:winapinls.obj
 0002:000044a0       ??_C@_1M@OOJFGBHE@?$AAa?$AAr?$AA?9?$AAL?$AAB@ 00000001800534a0     libcpmt:winapinls.obj
 0002:000044b0       ??_C@_1M@GCEJHNEG@?$AAe?$AAn?$AA?9?$AAZ?$AAW@ 00000001800534b0     libcpmt:winapinls.obj
 0002:000044c0       ??_C@_1M@JNOCAHJI@?$AAe?$AAs?$AA?9?$AAE?$AAC@ 00000001800534c0     libcpmt:winapinls.obj
 0002:000044d0       ??_C@_1M@JEFHPGGB@?$AAa?$AAr?$AA?9?$AAK?$AAW@ 00000001800534d0     libcpmt:winapinls.obj
 0002:000044e0       ??_C@_1M@MLKIBJOJ@?$AAe?$AAn?$AA?9?$AAP?$AAH@ 00000001800534e0     libcpmt:winapinls.obj
 0002:000044f0       ??_C@_1M@BDNIPEND@?$AAe?$AAs?$AA?9?$AAC?$AAL@ 00000001800534f0     libcpmt:winapinls.obj
 0002:00004500       ??_C@_1M@MPNMEKBD@?$AAa?$AAr?$AA?9?$AAA?$AAE@ 0000000180053500     libcpmt:winapinls.obj
 0002:00004510       ??_C@_1M@KBJALCPI@?$AAe?$AAs?$AA?9?$AAU?$AAY@ 0000000180053510     libcpmt:winapinls.obj
 0002:00004520       ??_C@_1M@LLCCOAGA@?$AAa?$AAr?$AA?9?$AAB?$AAH@ 0000000180053520     libcpmt:winapinls.obj
 0002:00004530       ??_C@_1M@PBFNCDEL@?$AAe?$AAs?$AA?9?$AAP?$AAY@ 0000000180053530     libcpmt:winapinls.obj
 0002:00004540       ??_C@_1M@EDGINPNP@?$AAa?$AAr?$AA?9?$AAQ?$AAA@ 0000000180053540     libcpmt:winapinls.obj
 0002:00004550       ??_C@_1M@MKDBIIJI@?$AAe?$AAs?$AA?9?$AAB?$AAO@ 0000000180053550     libcpmt:winapinls.obj
 0002:00004560       ??_C@_1M@CPKKEBLD@?$AAe?$AAs?$AA?9?$AAS?$AAV@ 0000000180053560     libcpmt:winapinls.obj
 0002:00004570       ??_C@_1M@NDBGMMJL@?$AAe?$AAs?$AA?9?$AAH?$AAN@ 0000000180053570     libcpmt:winapinls.obj
 0002:00004580       ??_C@_1M@JIJIBHDP@?$AAe?$AAs?$AA?9?$AAN?$AAI@ 0000000180053580     libcpmt:winapinls.obj
 0002:00004590       ??_C@_1M@CGFMKEEK@?$AAe?$AAs?$AA?9?$AAP?$AAR@ 0000000180053590     libcpmt:winapinls.obj
 0002:000045a0       ??_C@_1O@ICJHKIIK@?$AAz?$AAh?$AA?9?$AAC?$AAH?$AAT@ 00000001800535a0     libcpmt:winapinls.obj
 0002:000045b0       ??_C@_15CLNEJCE@?$AAs?$AAr@ 00000001800535b0     libcpmt:winapinls.obj
 0002:000045b8       ??_C@_1M@KAHEKEIG@?$AAa?$AAf?$AA?9?$AAz?$AAa@ 00000001800535b8     libcpmt:winapinls.obj
 0002:000045c8       ??_C@_1M@GIECOABL@?$AAa?$AAr?$AA?9?$AAa?$AAe@ 00000001800535c8     libcpmt:winapinls.obj
 0002:000045d8       ??_C@_1M@BMLMEKGI@?$AAa?$AAr?$AA?9?$AAb?$AAh@ 00000001800535d8     libcpmt:winapinls.obj
 0002:000045e8       ??_C@_1M@DAPFDGGB@?$AAa?$AAr?$AA?9?$AAd?$AAz@ 00000001800535e8     libcpmt:winapinls.obj
 0002:000045f8       ??_C@_1M@FJNKGKIG@?$AAa?$AAr?$AA?9?$AAe?$AAg@ 00000001800535f8     libcpmt:winapinls.obj
 0002:00004608       ??_C@_1M@FLGKKCLO@?$AAa?$AAr?$AA?9?$AAi?$AAq@ 0000000180053608     libcpmt:winapinls.obj
 0002:00004618       ??_C@_1M@GNDIPALM@?$AAa?$AAr?$AA?9?$AAj?$AAo@ 0000000180053618     libcpmt:winapinls.obj
 0002:00004628       ??_C@_1M@DDMJFMGJ@?$AAa?$AAr?$AA?9?$AAk?$AAw@ 0000000180053628     libcpmt:winapinls.obj
 0002:00004638       ??_C@_1M@EJALMLHM@?$AAa?$AAr?$AA?9?$AAl?$AAb@ 0000000180053638     libcpmt:winapinls.obj
 0002:00004648       ??_C@_1M@MOBDBLOC@?$AAa?$AAr?$AA?9?$AAl?$AAy@ 0000000180053648     libcpmt:winapinls.obj
 0002:00004658       ??_C@_1M@JAOCLHDH@?$AAa?$AAr?$AA?9?$AAm?$AAa@ 0000000180053658     libcpmt:winapinls.obj
 0002:00004668       ??_C@_1M@JHPMKJIE@?$AAa?$AAr?$AA?9?$AAo?$AAm@ 0000000180053668     libcpmt:winapinls.obj
 0002:00004678       ??_C@_1M@OEPGHFNH@?$AAa?$AAr?$AA?9?$AAq?$AAa@ 0000000180053678     libcpmt:winapinls.obj
 0002:00004688       ??_C@_1M@KJDONENM@?$AAa?$AAr?$AA?9?$AAs?$AAa@ 0000000180053688     libcpmt:winapinls.obj
 0002:00004698       ??_C@_1M@DMJDKLKM@?$AAa?$AAr?$AA?9?$AAs?$AAy@ 0000000180053698     libcpmt:winapinls.obj
 0002:000046a8       ??_C@_1M@OMFIPEDC@?$AAa?$AAr?$AA?9?$AAt?$AAn@ 00000001800536a8     libcpmt:winapinls.obj
 0002:000046b8       ??_C@_1M@IHMHGAON@?$AAa?$AAr?$AA?9?$AAy?$AAe@ 00000001800536b8     libcpmt:winapinls.obj
 0002:000046c8       ??_C@_1BG@KDCPGJGB@?$AAa?$AAz?$AA?9?$AAa?$AAz?$AA?9?$AAc?$AAy?$AAr?$AAl@ 00000001800536c8     libcpmt:winapinls.obj
 0002:000046e0       ??_C@_1BG@IBCKDDOE@?$AAa?$AAz?$AA?9?$AAa?$AAz?$AA?9?$AAl?$AAa?$AAt?$AAn@ 00000001800536e0     libcpmt:winapinls.obj
 0002:000046f8       ??_C@_1M@EGPFDCPD@?$AAb?$AAe?$AA?9?$AAb?$AAy@ 00000001800536f8     libcpmt:winapinls.obj
 0002:00004708       ??_C@_1M@PCMGMCGC@?$AAb?$AAg?$AA?9?$AAb?$AAg@ 0000000180053708     libcpmt:winapinls.obj
 0002:00004718       ??_C@_1M@BJBMFGOB@?$AAb?$AAn?$AA?9?$AAi?$AAn@ 0000000180053718     libcpmt:winapinls.obj
 0002:00004728       ??_C@_1BG@EAKMMACD@?$AAb?$AAs?$AA?9?$AAb?$AAa?$AA?9?$AAl?$AAa?$AAt?$AAn@ 0000000180053728     libcpmt:winapinls.obj
 0002:00004740       ??_C@_1M@KGADAODK@?$AAc?$AAa?$AA?9?$AAe?$AAs@ 0000000180053740     libcpmt:winapinls.obj
 0002:00004750       ??_C@_1M@COAJPDHI@?$AAc?$AAs?$AA?9?$AAc?$AAz@ 0000000180053750     libcpmt:winapinls.obj
 0002:00004760       ??_C@_1M@DHBHFONH@?$AAc?$AAy?$AA?9?$AAg?$AAb@ 0000000180053760     libcpmt:winapinls.obj
 0002:00004770       ??_C@_1M@IMGKELGA@?$AAd?$AAa?$AA?9?$AAd?$AAk@ 0000000180053770     libcpmt:winapinls.obj
 0002:00004780       ??_C@_1M@NNDGDNGA@?$AAd?$AAe?$AA?9?$AAa?$AAt@ 0000000180053780     libcpmt:winapinls.obj
 0002:00004790       ??_C@_1M@IKDBHEEM@?$AAd?$AAe?$AA?9?$AAc?$AAh@ 0000000180053790     libcpmt:winapinls.obj
 0002:000047a0       ??_C@_1M@GFFOJMCJ@?$AAd?$AAe?$AA?9?$AAd?$AAe@ 00000001800537a0     libcpmt:winapinls.obj
 0002:000047b0       ??_C@_1M@MDNLKBPM@?$AAd?$AAe?$AA?9?$AAl?$AAi@ 00000001800537b0     libcpmt:winapinls.obj
 0002:000047c0       ??_C@_1M@NJBEEJNL@?$AAd?$AAe?$AA?9?$AAl?$AAu@ 00000001800537c0     libcpmt:winapinls.obj
 0002:000047d0       ??_C@_1O@GNNELBAP@?$AAd?$AAi?$AAv?$AA?9?$AAm?$AAv@ 00000001800537d0     libcpmt:winapinls.obj
 0002:000047e0       ??_C@_1M@EJLEOGAE@?$AAe?$AAl?$AA?9?$AAg?$AAr@ 00000001800537e0     libcpmt:winapinls.obj
 0002:000047f0       ??_C@_1M@GMPONJN@?$AAe?$AAn?$AA?9?$AAa?$AAu@ 00000001800537f0     libcpmt:winapinls.obj
 0002:00004800       ??_C@_1M@NIDIIPGF@?$AAe?$AAn?$AA?9?$AAb?$AAz@ 0000000180053800     libcpmt:winapinls.obj
 0002:00004810       ??_C@_1M@JEHMIMFO@?$AAe?$AAn?$AA?9?$AAc?$AAa@ 0000000180053810     libcpmt:winapinls.obj
 0002:00004820       ??_C@_1M@IGMJCDLA@?$AAe?$AAn?$AA?9?$AAc?$AAb@ 0000000180053820     libcpmt:winapinls.obj
 0002:00004830       ??_C@_1M@BNFIGBKG@?$AAe?$AAn?$AA?9?$AAg?$AAb@ 0000000180053830     libcpmt:winapinls.obj
 0002:00004840       ??_C@_1M@LKIFDIGP@?$AAe?$AAn?$AA?9?$AAi?$AAe@ 0000000180053840     libcpmt:winapinls.obj
 0002:00004850       ??_C@_1M@PJKFGCCO@?$AAe?$AAn?$AA?9?$AAj?$AAm@ 0000000180053850     libcpmt:winapinls.obj
 0002:00004860       ??_C@_1M@KPPKEPBO@?$AAe?$AAn?$AA?9?$AAn?$AAz@ 0000000180053860     libcpmt:winapinls.obj
 0002:00004870       ??_C@_1M@GMDGLDOB@?$AAe?$AAn?$AA?9?$AAp?$AAh@ 0000000180053870     libcpmt:winapinls.obj
 0002:00004880       ??_C@_1M@ONGIBJNA@?$AAe?$AAn?$AA?9?$AAt?$AAt@ 0000000180053880     libcpmt:winapinls.obj
 0002:00004890       ??_C@_1M@LLODPCMM@?$AAe?$AAn?$AA?9?$AAu?$AAs@ 0000000180053890     libcpmt:winapinls.obj
 0002:000048a0       ??_C@_1M@LAKFNPAN@?$AAe?$AAn?$AA?9?$AAz?$AAa@ 00000001800538a0     libcpmt:winapinls.obj
 0002:000048b0       ??_C@_1M@MFNHNHEO@?$AAe?$AAn?$AA?9?$AAz?$AAw@ 00000001800538b0     libcpmt:winapinls.obj
 0002:000048c0       ??_C@_1M@EJEINPHM@?$AAe?$AAs?$AA?9?$AAa?$AAr@ 00000001800538c0     libcpmt:winapinls.obj
 0002:000048d0       ??_C@_1M@GNKPCCJA@?$AAe?$AAs?$AA?9?$AAb?$AAo@ 00000001800538d0     libcpmt:winapinls.obj
 0002:000048e0       ??_C@_1M@LEEGFONL@?$AAe?$AAs?$AA?9?$AAc?$AAl@ 00000001800538e0     libcpmt:winapinls.obj
 0002:000048f0       ??_C@_1M@KGPDPBDF@?$AAe?$AAs?$AA?9?$AAc?$AAo@ 00000001800538f0     libcpmt:winapinls.obj
 0002:00004900       ??_C@_1M@EIAHOHH@?$AAe?$AAs?$AA?9?$AAc?$AAr@ 0000000180053900     libcpmt:winapinls.obj
 0002:00004910       ??_C@_1M@LLPGMBIN@?$AAe?$AAs?$AA?9?$AAd?$AAo@ 0000000180053910     libcpmt:winapinls.obj
 0002:00004920       ??_C@_1M@DKHMKNJA@?$AAe?$AAs?$AA?9?$AAe?$AAc@ 0000000180053920     libcpmt:winapinls.obj
 0002:00004930       ??_C@_1M@GKGFPKAP@?$AAe?$AAs?$AA?9?$AAe?$AAs@ 0000000180053930     libcpmt:winapinls.obj
 0002:00004940       ??_C@_1M@LKHKGDLN@?$AAe?$AAs?$AA?9?$AAg?$AAt@ 0000000180053940     libcpmt:winapinls.obj
 0002:00004950       ??_C@_1M@HEIIGGJD@?$AAe?$AAs?$AA?9?$AAh?$AAn@ 0000000180053950     libcpmt:winapinls.obj
 0002:00004960       ??_C@_1M@FBDHPPGD@?$AAe?$AAs?$AA?9?$AAm?$AAx@ 0000000180053960     libcpmt:winapinls.obj
 0002:00004970       ??_C@_1M@DPAGLNDH@?$AAe?$AAs?$AA?9?$AAn?$AAi@ 0000000180053970     libcpmt:winapinls.obj
 0002:00004980       ??_C@_1M@MDGOPGDD@?$AAe?$AAs?$AA?9?$AAp?$AAa@ 0000000180053980     libcpmt:winapinls.obj
 0002:00004990       ??_C@_1M@EMAMGBGE@?$AAe?$AAs?$AA?9?$AAp?$AAe@ 0000000180053990     libcpmt:winapinls.obj
 0002:000049a0       ??_C@_1M@IBMCAOEC@?$AAe?$AAs?$AA?9?$AAp?$AAr@ 00000001800539a0     libcpmt:winapinls.obj
 0002:000049b0       ??_C@_1M@FGMDIJED@?$AAe?$AAs?$AA?9?$AAp?$AAy@ 00000001800539b0     libcpmt:winapinls.obj
 0002:000049c0       ??_C@_1M@IIDEOLLL@?$AAe?$AAs?$AA?9?$AAs?$AAv@ 00000001800539c0     libcpmt:winapinls.obj
 0002:000049d0       ??_C@_1M@GAOBIPA@?$AAe?$AAs?$AA?9?$AAu?$AAy@ 00000001800539d0     libcpmt:winapinls.obj
 0002:000049e0       ??_C@_1M@JKFFICHJ@?$AAe?$AAs?$AA?9?$AAv?$AAe@ 00000001800539e0     libcpmt:winapinls.obj
 0002:000049f0       ??_C@_1M@PNMLOJDF@?$AAe?$AAt?$AA?9?$AAe?$AAe@ 00000001800539f0     libcpmt:winapinls.obj
 0002:00004a00       ??_C@_1M@GHHLIKEI@?$AAe?$AAu?$AA?9?$AAe?$AAs@ 0000000180053a00     libcpmt:winapinls.obj
 0002:00004a10       ??_C@_1M@PBNONODE@?$AAf?$AAa?$AA?9?$AAi?$AAr@ 0000000180053a10     libcpmt:winapinls.obj
 0002:00004a20       ??_C@_1M@JEEHPMIL@?$AAf?$AAi?$AA?9?$AAf?$AAi@ 0000000180053a20     libcpmt:winapinls.obj
 0002:00004a30       ??_C@_1M@LMDCNDBA@?$AAf?$AAo?$AA?9?$AAf?$AAo@ 0000000180053a30     libcpmt:winapinls.obj
 0002:00004a40       ??_C@_1M@JKEOHLDK@?$AAf?$AAr?$AA?9?$AAb?$AAe@ 0000000180053a40     libcpmt:winapinls.obj
 0002:00004a50       ??_C@_1M@NOHADPMI@?$AAf?$AAr?$AA?9?$AAc?$AAa@ 0000000180053a50     libcpmt:winapinls.obj
 0002:00004a60       ??_C@_1M@KDHIHAEC@?$AAf?$AAr?$AA?9?$AAc?$AAh@ 0000000180053a60     libcpmt:winapinls.obj
 0002:00004a70       ??_C@_1M@MMBBFGAK@?$AAf?$AAr?$AA?9?$AAf?$AAr@ 0000000180053a70     libcpmt:winapinls.obj
 0002:00004a80       ??_C@_1M@PAFNENNF@?$AAf?$AAr?$AA?9?$AAl?$AAu@ 0000000180053a80     libcpmt:winapinls.obj
 0002:00004a90       ??_C@_1M@EOHDJGDD@?$AAf?$AAr?$AA?9?$AAm?$AAc@ 0000000180053a90     libcpmt:winapinls.obj
 0002:00004aa0       ??_C@_1M@FAPLLOPF@?$AAg?$AAl?$AA?9?$AAe?$AAs@ 0000000180053aa0     libcpmt:winapinls.obj
 0002:00004ab0       ??_C@_1M@FOPBFLOO@?$AAg?$AAu?$AA?9?$AAi?$AAn@ 0000000180053ab0     libcpmt:winapinls.obj
 0002:00004ac0       ??_C@_1M@KBMCINPM@?$AAh?$AAe?$AA?9?$AAi?$AAl@ 0000000180053ac0     libcpmt:winapinls.obj
 0002:00004ad0       ??_C@_1M@BBPHKFPJ@?$AAh?$AAi?$AA?9?$AAi?$AAn@ 0000000180053ad0     libcpmt:winapinls.obj
 0002:00004ae0       ??_C@_1M@PMBNDPHD@?$AAh?$AAr?$AA?9?$AAb?$AAa@ 0000000180053ae0     libcpmt:winapinls.obj
 0002:00004af0       ??_C@_1M@BPCKOEGE@?$AAh?$AAr?$AA?9?$AAh?$AAr@ 0000000180053af0     libcpmt:winapinls.obj
 0002:00004b00       ??_C@_1M@GACBMHKE@?$AAh?$AAu?$AA?9?$AAh?$AAu@ 0000000180053b00     libcpmt:winapinls.obj
 0002:00004b10       ??_C@_1M@MILPAJJC@?$AAh?$AAy?$AA?9?$AAa?$AAm@ 0000000180053b10     libcpmt:winapinls.obj
 0002:00004b20       ??_C@_1M@BABBICEC@?$AAi?$AAd?$AA?9?$AAi?$AAd@ 0000000180053b20     libcpmt:winapinls.obj
 0002:00004b30       ??_C@_1M@BIKNHHPF@?$AAi?$AAs?$AA?9?$AAi?$AAs@ 0000000180053b30     libcpmt:winapinls.obj
 0002:00004b40       ??_C@_1M@NMPCJPHE@?$AAi?$AAt?$AA?9?$AAc?$AAh@ 0000000180053b40     libcpmt:winapinls.obj
 0002:00004b50       ??_C@_1M@GHKGFEDF@?$AAi?$AAt?$AA?9?$AAi?$AAt@ 0000000180053b50     libcpmt:winapinls.obj
 0002:00004b60       ??_C@_1M@NIEJCJJA@?$AAj?$AAa?$AA?9?$AAj?$AAp@ 0000000180053b60     libcpmt:winapinls.obj
 0002:00004b70       ??_C@_1M@JILFNBIM@?$AAk?$AAa?$AA?9?$AAg?$AAe@ 0000000180053b70     libcpmt:winapinls.obj
 0002:00004b80       ??_C@_1M@PACPMGPH@?$AAk?$AAk?$AA?9?$AAk?$AAz@ 0000000180053b80     libcpmt:winapinls.obj
 0002:00004b90       ??_C@_1M@IELFGMHA@?$AAk?$AAn?$AA?9?$AAi?$AAn@ 0000000180053b90     libcpmt:winapinls.obj
 0002:00004ba0       ??_C@_1M@DMHAEOGC@?$AAk?$AAo?$AA?9?$AAk?$AAr@ 0000000180053ba0     libcpmt:winapinls.obj
 0002:00004bb0       ??_C@_1O@IBBJHCH@?$AAk?$AAo?$AAk?$AA?9?$AAi?$AAn@ 0000000180053bb0     libcpmt:winapinls.obj
 0002:00004bc0       ??_C@_1M@HBAHBIGA@?$AAk?$AAy?$AA?9?$AAk?$AAg@ 0000000180053bc0     libcpmt:winapinls.obj
 0002:00004bd0       ??_C@_1M@KPMILCJG@?$AAl?$AAt?$AA?9?$AAl?$AAt@ 0000000180053bd0     libcpmt:winapinls.obj
 0002:00004be0       ??_C@_1M@BDEKKCA@?$AAl?$AAv?$AA?9?$AAl?$AAv@ 0000000180053be0     libcpmt:winapinls.obj
 0002:00004bf0       ??_C@_1M@ELCKCCJJ@?$AAm?$AAi?$AA?9?$AAn?$AAz@ 0000000180053bf0     libcpmt:winapinls.obj
 0002:00004c00       ??_C@_1M@CBOOLAPA@?$AAm?$AAk?$AA?9?$AAm?$AAk@ 0000000180053c00     libcpmt:winapinls.obj
 0002:00004c10       ??_C@_1M@GPHNBJKN@?$AAm?$AAl?$AA?9?$AAi?$AAn@ 0000000180053c10     libcpmt:winapinls.obj
 0002:00004c20       ??_C@_1M@PABJILIG@?$AAm?$AAn?$AA?9?$AAm?$AAn@ 0000000180053c20     libcpmt:winapinls.obj
 0002:00004c30       ??_C@_1M@FGBKKIPG@?$AAm?$AAr?$AA?9?$AAi?$AAn@ 0000000180053c30     libcpmt:winapinls.obj
 0002:00004c40       ??_C@_1M@NDBPDDAL@?$AAm?$AAs?$AA?9?$AAb?$AAn@ 0000000180053c40     libcpmt:winapinls.obj
 0002:00004c50       ??_C@_1M@OPIHOOPI@?$AAm?$AAs?$AA?9?$AAm?$AAy@ 0000000180053c50     libcpmt:winapinls.obj
 0002:00004c60       ??_C@_1M@PPDBCNFM@?$AAm?$AAt?$AA?9?$AAm?$AAt@ 0000000180053c60     libcpmt:winapinls.obj
 0002:00004c70       ??_C@_1M@KDJDKMDD@?$AAn?$AAb?$AA?9?$AAn?$AAo@ 0000000180053c70     libcpmt:winapinls.obj
 0002:00004c80       ??_C@_1M@KFCFLMJP@?$AAn?$AAl?$AA?9?$AAb?$AAe@ 0000000180053c80     libcpmt:winapinls.obj
 0002:00004c90       ??_C@_1M@KPOPDDGO@?$AAn?$AAl?$AA?9?$AAn?$AAl@ 0000000180053c90     libcpmt:winapinls.obj
 0002:00004ca0       ??_C@_1M@LJKPEMLN@?$AAn?$AAn?$AA?9?$AAn?$AAo@ 0000000180053ca0     libcpmt:winapinls.obj
 0002:00004cb0       ??_C@_1M@BDGHHBFL@?$AAn?$AAs?$AA?9?$AAz?$AAa@ 0000000180053cb0     libcpmt:winapinls.obj
 0002:00004cc0       ??_C@_1M@IDEHOAP@?$AAp?$AAa?$AA?9?$AAi?$AAn@ 0000000180053cc0     libcpmt:winapinls.obj
 0002:00004cd0       ??_C@_1M@HDBKGOGH@?$AAp?$AAl?$AA?9?$AAp?$AAl@ 0000000180053cd0     libcpmt:winapinls.obj
 0002:00004ce0       ??_C@_1M@LJLLCMEH@?$AAp?$AAt?$AA?9?$AAb?$AAr@ 0000000180053ce0     libcpmt:winapinls.obj
 0002:00004cf0       ??_C@_1M@NCMONAAL@?$AAp?$AAt?$AA?9?$AAp?$AAt@ 0000000180053cf0     libcpmt:winapinls.obj
 0002:00004d00       ??_C@_1O@EAKMAJDN@?$AAq?$AAu?$AAz?$AA?9?$AAb?$AAo@ 0000000180053d00     libcpmt:winapinls.obj
 0002:00004d10       ??_C@_1O@BHHPIGDN@?$AAq?$AAu?$AAz?$AA?9?$AAe?$AAc@ 0000000180053d10     libcpmt:winapinls.obj
 0002:00004d20       ??_C@_1O@GBAPEKMJ@?$AAq?$AAu?$AAz?$AA?9?$AAp?$AAe@ 0000000180053d20     libcpmt:winapinls.obj
 0002:00004d30       ??_C@_1M@CLGLEFBO@?$AAr?$AAo?$AA?9?$AAr?$AAo@ 0000000180053d30     libcpmt:winapinls.obj
 0002:00004d40       ??_C@_1M@CEEDODME@?$AAr?$AAu?$AA?9?$AAr?$AAu@ 0000000180053d40     libcpmt:winapinls.obj
 0002:00004d50       ??_C@_1M@HPKKKMPP@?$AAs?$AAa?$AA?9?$AAi?$AAn@ 0000000180053d50     libcpmt:winapinls.obj
 0002:00004d60       ??_C@_1M@BKMAIGOJ@?$AAs?$AAe?$AA?9?$AAf?$AAi@ 0000000180053d60     libcpmt:winapinls.obj
 0002:00004d70       ??_C@_1M@NDPIFLFI@?$AAs?$AAe?$AA?9?$AAn?$AAo@ 0000000180053d70     libcpmt:winapinls.obj
 0002:00004d80       ??_C@_1M@DANKKHJ@?$AAs?$AAe?$AA?9?$AAs?$AAe@ 0000000180053d80     libcpmt:winapinls.obj
 0002:00004d90       ??_C@_1M@PNBLONPJ@?$AAs?$AAk?$AA?9?$AAs?$AAk@ 0000000180053d90     libcpmt:winapinls.obj
 0002:00004da0       ??_C@_1M@LFMODOAL@?$AAs?$AAl?$AA?9?$AAs?$AAi@ 0000000180053da0     libcpmt:winapinls.obj
 0002:00004db0       ??_C@_1O@DFKOMPG@?$AAs?$AAm?$AAa?$AA?9?$AAn?$AAo@ 0000000180053db0     libcpmt:winapinls.obj
 0002:00004dc0       ??_C@_1O@NDKPBNNH@?$AAs?$AAm?$AAa?$AA?9?$AAs?$AAe@ 0000000180053dc0     libcpmt:winapinls.obj
 0002:00004dd0       ??_C@_1O@PLLKBHAB@?$AAs?$AAm?$AAj?$AA?9?$AAn?$AAo@ 0000000180053dd0     libcpmt:winapinls.obj
 0002:00004de0       ??_C@_1O@CLEPOGCA@?$AAs?$AAm?$AAj?$AA?9?$AAs?$AAe@ 0000000180053de0     libcpmt:winapinls.obj
 0002:00004df0       ??_C@_1O@DLGJGKMK@?$AAs?$AAm?$AAn?$AA?9?$AAf?$AAi@ 0000000180053df0     libcpmt:winapinls.obj
 0002:00004e00       ??_C@_1O@OJDJGAJC@?$AAs?$AAm?$AAs?$AA?9?$AAf?$AAi@ 0000000180053e00     libcpmt:winapinls.obj
 0002:00004e10       ??_C@_1M@BOFOGHPB@?$AAs?$AAq?$AA?9?$AAa?$AAl@ 0000000180053e10     libcpmt:winapinls.obj
 0002:00004e20       ??_C@_1BG@LJBBIPGB@?$AAs?$AAr?$AA?9?$AAb?$AAa?$AA?9?$AAc?$AAy?$AAr?$AAl@ 0000000180053e20     libcpmt:winapinls.obj
 0002:00004e38       ??_C@_1BG@JLBENFOE@?$AAs?$AAr?$AA?9?$AAb?$AAa?$AA?9?$AAl?$AAa?$AAt?$AAn@ 0000000180053e38     libcpmt:winapinls.obj
 0002:00004e50       ??_C@_1BG@KODPNHE@?$AAs?$AAr?$AA?9?$AAs?$AAp?$AA?9?$AAc?$AAy?$AAr?$AAl@ 0000000180053e50     libcpmt:winapinls.obj
 0002:00004e68       ??_C@_1BG@CIOGKHPB@?$AAs?$AAr?$AA?9?$AAs?$AAp?$AA?9?$AAl?$AAa?$AAt?$AAn@ 0000000180053e68     libcpmt:winapinls.obj
 0002:00004e80       ??_C@_1M@NGFJLMAC@?$AAs?$AAv?$AA?9?$AAf?$AAi@ 0000000180053e80     libcpmt:winapinls.obj
 0002:00004e90       ??_C@_1M@MPJEJAJC@?$AAs?$AAv?$AA?9?$AAs?$AAe@ 0000000180053e90     libcpmt:winapinls.obj
 0002:00004ea0       ??_C@_1M@MPNDHLFK@?$AAs?$AAw?$AA?9?$AAk?$AAe@ 0000000180053ea0     libcpmt:winapinls.obj
 0002:00004eb0       ??_C@_1O@KOHBJJI@?$AAs?$AAy?$AAr?$AA?9?$AAs?$AAy@ 0000000180053eb0     libcpmt:winapinls.obj
 0002:00004ec0       ??_C@_1M@LDCEFHA@?$AAt?$AAa?$AA?9?$AAi?$AAn@ 0000000180053ec0     libcpmt:winapinls.obj
 0002:00004ed0       ??_C@_1M@CNJOFAK@?$AAt?$AAe?$AA?9?$AAi?$AAn@ 0000000180053ed0     libcpmt:winapinls.obj
 0002:00004ee0       ??_C@_1M@GNAECACD@?$AAt?$AAh?$AA?9?$AAt?$AAh@ 0000000180053ee0     libcpmt:winapinls.obj
 0002:00004ef0       ??_C@_1M@CHBIHOJO@?$AAt?$AAn?$AA?9?$AAz?$AAa@ 0000000180053ef0     libcpmt:winapinls.obj
 0002:00004f00       ??_C@_1M@GCCMIGPJ@?$AAt?$AAr?$AA?9?$AAt?$AAr@ 0000000180053f00     libcpmt:winapinls.obj
 0002:00004f10       ??_C@_1M@CELMCNBK@?$AAt?$AAt?$AA?9?$AAr?$AAu@ 0000000180053f10     libcpmt:winapinls.obj
 0002:00004f20       ??_C@_1M@KLMCELGA@?$AAu?$AAk?$AA?9?$AAu?$AAa@ 0000000180053f20     libcpmt:winapinls.obj
 0002:00004f30       ??_C@_1M@EPAJJAJF@?$AAu?$AAr?$AA?9?$AAp?$AAk@ 0000000180053f30     libcpmt:winapinls.obj
 0002:00004f40       ??_C@_1BG@GEGPMCDJ@?$AAu?$AAz?$AA?9?$AAu?$AAz?$AA?9?$AAc?$AAy?$AAr?$AAl@ 0000000180053f40     libcpmt:winapinls.obj
 0002:00004f58       ??_C@_1BG@EGGKJILM@?$AAu?$AAz?$AA?9?$AAu?$AAz?$AA?9?$AAl?$AAa?$AAt?$AAn@ 0000000180053f58     libcpmt:winapinls.obj
 0002:00004f70       ??_C@_1M@GFOCLFF@?$AAv?$AAi?$AA?9?$AAv?$AAn@ 0000000180053f70     libcpmt:winapinls.obj
 0002:00004f80       ??_C@_1M@CPAMEDFI@?$AAx?$AAh?$AA?9?$AAz?$AAa@ 0000000180053f80     libcpmt:winapinls.obj
 0002:00004f90       ??_C@_1O@EBKIFIGN@?$AAz?$AAh?$AA?9?$AAc?$AAh?$AAs@ 0000000180053f90     libcpmt:winapinls.obj
 0002:00004fa0       ??_C@_1O@NMHPGANE@?$AAz?$AAh?$AA?9?$AAc?$AAh?$AAt@ 0000000180053fa0     libcpmt:winapinls.obj
 0002:00004fb0       ??_C@_1M@LPINJOMC@?$AAz?$AAh?$AA?9?$AAc?$AAn@ 0000000180053fb0     libcpmt:winapinls.obj
 0002:00004fc0       ??_C@_1M@OCJEJODD@?$AAz?$AAh?$AA?9?$AAh?$AAk@ 0000000180053fc0     libcpmt:winapinls.obj
 0002:00004fd0       ??_C@_1M@DNDLJINH@?$AAz?$AAh?$AA?9?$AAm?$AAo@ 0000000180053fd0     libcpmt:winapinls.obj
 0002:00004fe0       ??_C@_1M@MBFDNDND@?$AAz?$AAh?$AA?9?$AAs?$AAg@ 0000000180053fe0     libcpmt:winapinls.obj
 0002:00004ff0       ??_C@_1M@IMEPLEPE@?$AAz?$AAh?$AA?9?$AAt?$AAw@ 0000000180053ff0     libcpmt:winapinls.obj
 0002:00005000       ??_C@_1M@BBGHNHJP@?$AAz?$AAu?$AA?9?$AAz?$AAa@ 0000000180054000     libcpmt:winapinls.obj
 0002:00005010       _pDefaultRawDllMain        0000000180054010     LIBCMT:dll_dllmain.obj
 0002:00005010       _pRawDllMain               0000000180054010     LIBCMT:dll_dllmain.obj
 0002:00005020       ??_7type_info@@6B@         0000000180054020     LIBCMT:std_type_info_static.obj
 0002:00005040       ??_7bad_array_new_length@std@@6B@ 0000000180054040     LIBCMT:throw_bad_alloc.obj
 0002:00005050       ??_C@_0BF@KINCDENJ@bad?5array?5new?5length@ 0000000180054050     LIBCMT:throw_bad_alloc.obj
 0002:00005108       _pDestructExceptionObject  0000000180054108     libvcruntime:ehhelpers.obj
 0002:00005158       ??_7bad_exception@std@@6B@ 0000000180054158     libvcruntime:frame.obj
 0002:00005168       ??_C@_0O@DPKOEFFH@bad?5exception@ 0000000180054168     libvcruntime:frame.obj
 0002:00005190       ??_C@_1DM@KHCHBNEB@?$AAa?$AAp?$AAi?$AA?9?$AAm?$AAs?$AA?9?$AAw?$AAi?$AAn?$AA?9?$AAc?$AAo?$AAr?$AAe@ 0000000180054190     libvcruntime:winapi_downlevel.obj
 0002:000051d0       ??_C@_1DK@LPPGFMPP@?$AAa?$AAp?$AAi?$AA?9?$AAm?$AAs?$AA?9?$AAw?$AAi?$AAn?$AA?9?$AAc?$AAo?$AAr?$AAe@ 00000001800541d0     libvcruntime:winapi_downlevel.obj
 0002:00005210       ??_C@_1BC@GDMECMAK@?$AAk?$AAe?$AAr?$AAn?$AAe?$AAl?$AA3?$AA2@ 0000000180054210     libvcruntime:winapi_downlevel.obj
 0002:00005228       ??_C@_1BA@PFFKHIOG@?$AAa?$AAp?$AAi?$AA?9?$AAm?$AAs?$AA?9@ 0000000180054228     libvcruntime:winapi_downlevel.obj
 0002:00005238       ??_C@_1BA@IAIFMGEF@?$AAe?$AAx?$AAt?$AA?9?$AAm?$AAs?$AA?9@ 0000000180054238     libvcruntime:winapi_downlevel.obj
 0002:000055a8       ??_C@_08EHJDFFNH@__based?$CI@ 00000001800545a8     libvcruntime:undname.obj
 0002:000055b8       ??_C@_07KOLFKCDI@__cdecl@  00000001800545b8     libvcruntime:undname.obj
 0002:000055c0       ??_C@_08GHMPAG@__pascal@   00000001800545c0     libvcruntime:undname.obj
 0002:000055d0       ??_C@_09IFJBGAPI@__stdcall@ 00000001800545d0     libvcruntime:undname.obj
 0002:000055e0       ??_C@_0L@NPHFGOKO@__thiscall@ 00000001800545e0     libvcruntime:undname.obj
 0002:000055f0       ??_C@_0L@JMKHOMEK@__fastcall@ 00000001800545f0     libvcruntime:undname.obj
 0002:00005600       ??_C@_0N@BCKKPABJ@__vectorcall@ 0000000180054600     libvcruntime:undname.obj
 0002:00005610       ??_C@_09HIJEGCPM@__clrcall@ 0000000180054610     libvcruntime:undname.obj
 0002:0000561c       ??_C@_06GHPCKEAG@__eabi@   000000018005461c     libvcruntime:undname.obj
 0002:00005628       ??_C@_09IOPIDJLG@__swift_1@ 0000000180054628     libvcruntime:undname.obj
 0002:00005638       ??_C@_09KFNFGKHF@__swift_2@ 0000000180054638     libvcruntime:undname.obj
 0002:00005648       ??_C@_07JOMMBBKO@__ptr64@  0000000180054648     libvcruntime:undname.obj
 0002:00005650       ??_C@_0L@PILCLIHE@__restrict@ 0000000180054650     libvcruntime:undname.obj
 0002:00005660       ??_C@_0M@GFIIJFMG@__unaligned@ 0000000180054660     libvcruntime:undname.obj
 0002:00005670       ??_C@_09DHDLOLLB@restrict?$CI@ 0000000180054670     libvcruntime:undname.obj
 0002:0000567c       ??_C@_04NIHEBCM@?5new@     000000018005467c     libvcruntime:undname.obj
 0002:00005688       ??_C@_07FPCDHGMM@?5delete@ 0000000180054688     libvcruntime:undname.obj
 0002:00005690       ??_C@_01NEMOKFLO@?$DN@     0000000180054690     libvcruntime:undname.obj
 0002:00005694       ??_C@_02GPIOPFAK@?$DO?$DO@ 0000000180054694     libvcruntime:undname.obj
 0002:00005698       ??_C@_02FODMEDOG@?$DM?$DM@ 0000000180054698     libvcruntime:undname.obj
 0002:0000569c       ??_C@_01DCLJPIOD@?$CB@     000000018005469c     libvcruntime:undname.obj
 0002:000056a0       ??_C@_02EGOFBIJA@?$DN?$DN@ 00000001800546a0     libvcruntime:undname.obj
 0002:000056a4       ??_C@_02FDNJECIE@?$CB?$DN@ 00000001800546a4     libvcruntime:undname.obj
 0002:000056a8       ??_C@_02GPECMEKF@?$FL?$FN@ 00000001800546a8     libvcruntime:undname.obj
 0002:000056b0       ??_C@_08LHJFAFGD@operator@ 00000001800546b0     libvcruntime:undname.obj
 0002:000056bc       ??_C@_02HBOOOICD@?9?$DO@   00000001800546bc     libvcruntime:undname.obj
 0002:000056c0       ??_C@_02ECNGHCIF@?$CL?$CL@ 00000001800546c0     libvcruntime:undname.obj
 0002:000056c4       ??_C@_02BAABKJLB@?9?9@     00000001800546c4     libvcruntime:undname.obj
 0002:000056c8       ??_C@_01MIFGBAGJ@?$CL@     00000001800546c8     libvcruntime:undname.obj
 0002:000056cc       ??_C@_01HNPIGOCE@?$CG@     00000001800546cc     libvcruntime:undname.obj
 0002:000056d0       ??_C@_03MNHNFDLC@?9?$DO?$CK@ 00000001800546d0     libvcruntime:undname.obj
 0002:000056d4       ??_C@_01FGNFDNOH@?$CF@     00000001800546d4     libvcruntime:undname.obj
 0002:000056d8       ??_C@_01MNNFJEPP@?$DM@     00000001800546d8     libvcruntime:undname.obj
 0002:000056dc       ??_C@_02EHCHHCKH@?$DM?$DN@ 00000001800546dc     libvcruntime:undname.obj
 0002:000056e0       ??_C@_01PPODPGHN@?$DO@     00000001800546e0     libvcruntime:undname.obj
 0002:000056e4       ??_C@_02EEKDKGMJ@?$DO?$DN@ 00000001800546e4     libvcruntime:undname.obj
 0002:000056e8       ??_C@_02HCKGKOFO@?$CI?$CJ@ 00000001800546e8     libvcruntime:undname.obj
 0002:000056ec       ??_C@_01PJKLJHI@?$HO@      00000001800546ec     libvcruntime:undname.obj
 0002:000056f0       ??_C@_01JKBOJNNK@?$FO@     00000001800546f0     libvcruntime:undname.obj
 0002:000056f4       ??_C@_01DNKMNLPK@?$HM@     00000001800546f4     libvcruntime:undname.obj
 0002:000056f8       ??_C@_02PPKAJPJL@?$CG?$CG@ 00000001800546f8     libvcruntime:undname.obj
 0002:000056fc       ??_C@_02NONPIBCD@?$HM?$HM@ 00000001800546fc     libvcruntime:undname.obj
 0002:00005700       ??_C@_02FPIMKNGF@?$CK?$DN@ 0000000180054700     libvcruntime:undname.obj
 0002:00005704       ??_C@_02FOEOMHFC@?$CL?$DN@ 0000000180054704     libvcruntime:undname.obj
 0002:00005708       ??_C@_02FKMDLLOA@?9?$DN@   0000000180054708     libvcruntime:undname.obj
 0002:0000570c       ??_C@_02FJEHGPIO@?1?$DN@   000000018005470c     libvcruntime:undname.obj
 0002:00005710       ??_C@_02FENAOKFI@?$CF?$DN@ 0000000180054710     libvcruntime:undname.obj
 0002:00005714       ??_C@_03IKFCCPFF@?$DO?$DO?$DN@ 0000000180054714     libvcruntime:undname.obj
 0002:00005718       ??_C@_03CDNPDDLA@?$DM?$DM?$DN@ 0000000180054718     libvcruntime:undname.obj
 0002:0000571c       ??_C@_02FGJGFEAB@?$CG?$DN@ 000000018005471c     libvcruntime:undname.obj
 0002:00005720       ??_C@_02DHLNPPGH@?$HM?$DN@ 0000000180054720     libvcruntime:undname.obj
 0002:00005724       ??_C@_02MHEGNOJ@?$FO?$DN@  0000000180054724     libvcruntime:undname.obj
 0002:00005728       ??_C@_09IFPLHPGF@?$GAvftable?8@ 0000000180054728     libvcruntime:undname.obj
 0002:00005738       ??_C@_09BLBHBJP@?$GAvbtable?8@ 0000000180054738     libvcruntime:undname.obj
 0002:00005748       ??_C@_07FEEIOKP@?$GAvcall?8@ 0000000180054748     libvcruntime:undname.obj
 0002:00005750       ??_C@_08LLFFHHDJ@?$GAtypeof?8@ 0000000180054750     libvcruntime:undname.obj
 0002:00005760       ??_C@_0BF@KDPPACIK@?$GAlocal?5static?5guard?8@ 0000000180054760     libvcruntime:undname.obj
 0002:00005778       ??_C@_08OBABFOLI@?$GAstring?8@ 0000000180054778     libvcruntime:undname.obj
 0002:00005788       ??_C@_0BD@JDLKDPAB@?$GAvbase?5destructor?8@ 0000000180054788     libvcruntime:undname.obj
 0002:000057a0       ??_C@_0BN@DEGPLNFK@?$GAvector?5deleting?5destructor?8@ 00000001800547a0     libvcruntime:undname.obj
 0002:000057c0       ??_C@_0BO@OBMKPJIG@?$GAdefault?5constructor?5closure?8@ 00000001800547c0     libvcruntime:undname.obj
 0002:000057e0       ??_C@_0BN@IMDCHIKM@?$GAscalar?5deleting?5destructor?8@ 00000001800547e0     libvcruntime:undname.obj
 0002:00005800       ??_C@_0BO@PFGOCPJJ@?$GAvector?5constructor?5iterator?8@ 0000000180054800     libvcruntime:undname.obj
 0002:00005820       ??_C@_0BN@LFPFMEDL@?$GAvector?5destructor?5iterator?8@ 0000000180054820     libvcruntime:undname.obj
 0002:00005840       ??_C@_0CE@IKBNEHA@?$GAvector?5vbase?5constructor?5itera@ 0000000180054840     libvcruntime:undname.obj
 0002:00005868       ??_C@_0BL@NILFHHPC@?$GAvirtual?5displacement?5map?8@ 0000000180054868     libvcruntime:undname.obj
 0002:00005888       ??_C@_0CB@JONCMFFK@?$GAeh?5vector?5constructor?5iterator@ 0000000180054888     libvcruntime:undname.obj
 0002:000058b0       ??_C@_0CA@GCEOPDGL@?$GAeh?5vector?5destructor?5iterator?8@ 00000001800548b0     libvcruntime:undname.obj
 0002:000058d0       ??_C@_0CH@OOJPLCPH@?$GAeh?5vector?5vbase?5constructor?5it@ 00000001800548d0     libvcruntime:undname.obj
 0002:000058f8       ??_C@_0BL@LLKPOHJI@?$GAcopy?5constructor?5closure?8@ 00000001800548f8     libvcruntime:undname.obj
 0002:00005918       ??_C@_0BA@KBCDOMBN@?$GAudt?5returning?8@ 0000000180054918     libvcruntime:undname.obj
 0002:00005928       ??_C@_03KLGMFNMG@?$GAEH@   0000000180054928     libvcruntime:undname.obj
 0002:0000592c       ??_C@_05KHLCHHI@?$GARTTI@  000000018005492c     libvcruntime:undname.obj
 0002:00005938       ??_C@_0BA@KKLDJDLB@?$GAlocal?5vftable?8@ 0000000180054938     libvcruntime:undname.obj
 0002:00005948       ??_C@_0CE@IIHCMGGL@?$GAlocal?5vftable?5constructor?5clos@ 0000000180054948     libvcruntime:undname.obj
 0002:0000596c       ??_C@_06FHBGPFGH@?5new?$FL?$FN@ 000000018005496c     libvcruntime:undname.obj
 0002:00005978       ??_C@_09LBNFPBCA@?5delete?$FL?$FN@ 0000000180054978     libvcruntime:undname.obj
 0002:00005988       ??_C@_0P@HJKNJFNN@?$GAomni?5callsig?8@ 0000000180054988     libvcruntime:undname.obj
 0002:00005998       ??_C@_0BL@CNOONJFP@?$GAplacement?5delete?5closure?8@ 0000000180054998     libvcruntime:undname.obj
 0002:000059b8       ??_C@_0BN@CKNJLHMB@?$GAplacement?5delete?$FL?$FN?5closure?8@ 00000001800549b8     libvcruntime:undname.obj
 0002:000059d8       ??_C@_0CG@CFDHKGGD@?$GAmanaged?5vector?5constructor?5ite@ 00000001800549d8     libvcruntime:undname.obj
 0002:00005a00       ??_C@_0CF@IMGKMJNO@?$GAmanaged?5vector?5destructor?5iter@ 0000000180054a00     libvcruntime:undname.obj
 0002:00005a28       ??_C@_0CG@HLDDJMAG@?$GAeh?5vector?5copy?5constructor?5ite@ 0000000180054a28     libvcruntime:undname.obj
 0002:00005a50       ??_C@_0CM@FCBBDIGB@?$GAeh?5vector?5vbase?5copy?5construct@ 0000000180054a50     libvcruntime:undname.obj
 0002:00005a80       ??_C@_0BL@CLIPGLGB@?$GAdynamic?5initializer?5for?5?8@ 0000000180054a80     libvcruntime:undname.obj
 0002:00005aa0       ??_C@_0CB@PDBIFEP@?$GAdynamic?5atexit?5destructor?5for?5@ 0000000180054aa0     libvcruntime:undname.obj
 0002:00005ac8       ??_C@_0CD@CGAJBKEJ@?$GAvector?5copy?5constructor?5iterat@ 0000000180054ac8     libvcruntime:undname.obj
 0002:00005af0       ??_C@_0CJ@GJELGAMM@?$GAvector?5vbase?5copy?5constructor?5@ 0000000180054af0     libvcruntime:undname.obj
 0002:00005b20       ??_C@_0CL@FGIJHLCE@?$GAmanaged?5vector?5copy?5constructo@ 0000000180054b20     libvcruntime:undname.obj
 0002:00005b50       ??_C@_0BM@PMGGMLDN@?$GAlocal?5static?5thread?5guard?8@ 0000000180054b50     libvcruntime:undname.obj
 0002:00005b70       ??_C@_0N@BDNMDMOL@operator?5?$CC?$CC?5@ 0000000180054b70     libvcruntime:undname.obj
 0002:00005b80       ??_C@_0BC@GGEBGALA@operator?5co_await@ 0000000180054b80     libvcruntime:undname.obj
 0002:00005b98       ??_C@_0BC@DAFEJGAK@?5Type?5Descriptor?8@ 0000000180054b98     libvcruntime:undname.obj
 0002:00005bb0       ??_C@_0BM@LDKODKLH@?5Base?5Class?5Descriptor?5at?5?$CI@ 0000000180054bb0     libvcruntime:undname.obj
 0002:00005bd0       ??_C@_0BD@LGICGFMM@?5Base?5Class?5Array?8@ 0000000180054bd0     libvcruntime:undname.obj
 0002:00005be8       ??_C@_0BN@MECKDCOJ@?5Class?5Hierarchy?5Descriptor?8@ 0000000180054be8     libvcruntime:undname.obj
 0002:00005c08       ??_C@_0BK@CFCOFLF@?5Complete?5Object?5Locator?8@ 0000000180054c08     libvcruntime:undname.obj
 0002:00005c30       standard_lookup_table      0000000180054c30     libucrt:output.obj
 0002:00005c90       format_validation_lookup_table 0000000180054c90     libucrt:output.obj
 0002:00005cf0       ??_C@_1O@CEDCILHN@?$AA?$CI?$AAn?$AAu?$AAl?$AAl?$AA?$CJ?$AA?$AA@ 0000000180054cf0     libucrt:output.obj
 0002:00005d00       ??_C@_06OJHGLDPL@?$CInull?$CJ?$AA@ 0000000180054d00     libucrt:output.obj
 0002:00005d08       __real@0000000000000000    0000000180054d08     libucrt:frexp.obj
 0002:00005d10       __real@8000000000000000    0000000180054d10     libucrt:frexp.obj
 0002:00005d20       ?large_power_data@?1??multiply_by_power_of_ten@__crt_strtox@@YA_NAEAUbig_integer@2@I@Z@4QBIB 0000000180054d20     libucrt:atof.obj
 0002:00006630       ?large_power_indices@?1??multiply_by_power_of_ten@__crt_strtox@@YA_NAEAUbig_integer@2@I@Z@4QBUunpack_index@?1??12@YA_N0I@Z@B 0000000180055630     libucrt:atof.obj
 0002:000066c8       ?small_powers_of_ten@?1??multiply_by_power_of_ten@__crt_strtox@@YA_NAEAUbig_integer@2@I@Z@4QBIB 00000001800556c8     libucrt:atof.obj
 0002:000066f0       ??_C@_1GE@DPGDJKLM@?$AAm?$AAi?$AAn?$AAk?$AAe?$AAr?$AAn?$AAe?$AAl?$AA?2?$AAc?$AAr?$AAt?$AAs?$AA?2?$AAu?$AAc?$AAr?$AAt?$AA?2?$AAi?$AAn?$AAc?$AA?2?$AAc?$AAo?$AAr?$AAe?$AAc?$AAr?$AAt?$AA_@ 00000001800556f0     libucrt:atof.obj
 0002:00006760       ??_C@_1FM@FELNCOBF@?$AA_?$AA_?$AAc?$AAr?$AAt?$AA_?$AAs?$AAt?$AAr?$AAt?$AAo?$AAx?$AA?3?$AA?3?$AAf?$AAl?$AAo?$AAa?$AAt?$AAi?$AAn?$AAg?$AA_?$AAp?$AAo?$AAi?$AAn?$AAt?$AA_?$AAv?$AAa?$AAl@ 0000000180055760     libucrt:atof.obj
 0002:000067c0       ??_C@_1BG@GEMHBGAF@?$AA_?$AAi?$AAs?$AA_?$AAd?$AAo?$AAu?$AAb?$AAl?$AAe?$AA?$AA@ 00000001800557c0     libucrt:atof.obj
 0002:000067e0       ??_C@_1FK@JOJELFFO@?$AA_?$AA_?$AAc?$AAr?$AAt?$AA_?$AAs?$AAt?$AAr?$AAt?$AAo?$AAx?$AA?3?$AA?3?$AAf?$AAl?$AAo?$AAa?$AAt?$AAi?$AAn?$AAg?$AA_?$AAp?$AAo?$AAi?$AAn?$AAt?$AA_?$AAv?$AAa?$AAl@ 00000001800557e0     libucrt:atof.obj
 0002:00006840       ??_C@_1BI@BANMPGJI@?$AA?$CB?$AA_?$AAi?$AAs?$AA_?$AAd?$AAo?$AAu?$AAb?$AAl?$AAe?$AA?$AA@ 0000000180055840     libucrt:atof.obj
 0002:00006858       ?inf_uppercase@?1???$parse_floating_point_possible_infinity@DV?$c_string_character_source@D@__crt_strtox@@PEBD@__crt_strtox@@YA?AW4floating_point_parse_result@1@AEADAEAV?$c_string_character_source@D@1@PEBD@Z@4QBDB 0000000180055858     libucrt:atof.obj
 0002:0000685c       ?inf_lowercase@?1???$parse_floating_point_possible_infinity@DV?$c_string_character_source@D@__crt_strtox@@PEBD@__crt_strtox@@YA?AW4floating_point_parse_result@1@AEADAEAV?$c_string_character_source@D@1@PEBD@Z@4QBDB 000000018005585c     libucrt:atof.obj
 0002:00006860       ?inity_uppercase@?1???$parse_floating_point_possible_infinity@DV?$c_string_character_source@D@__crt_strtox@@PEBD@__crt_strtox@@YA?AW4floating_point_parse_result@1@AEADAEAV?$c_string_character_source@D@1@PEBD@Z@4QBDB 0000000180055860     libucrt:atof.obj
 0002:00006868       ?inity_lowercase@?1???$parse_floating_point_possible_infinity@DV?$c_string_character_source@D@__crt_strtox@@PEBD@__crt_strtox@@YA?AW4floating_point_parse_result@1@AEADAEAV?$c_string_character_source@D@1@PEBD@Z@4QBDB 0000000180055868     libucrt:atof.obj
 0002:00006870       ?uppercase@?1???$parse_floating_point_possible_nan@DV?$c_string_character_source@D@__crt_strtox@@PEBD@__crt_strtox@@YA?AW4floating_point_parse_result@1@AEADAEAV?$c_string_character_source@D@1@PEBD@Z@4QBDB 0000000180055870     libucrt:atof.obj
 0002:00006874       ?lowercase@?1???$parse_floating_point_possible_nan@DV?$c_string_character_source@D@__crt_strtox@@PEBD@__crt_strtox@@YA?AW4floating_point_parse_result@1@AEADAEAV?$c_string_character_source@D@1@PEBD@Z@4QBDB 0000000180055874     libucrt:atof.obj
 0002:00006878       ?uppercase@?1???$parse_floating_point_possible_nan_is_snan@DV?$c_string_character_source@D@__crt_strtox@@@__crt_strtox@@YA_NAEADAEAV?$c_string_character_source@D@1@@Z@4QBDB 0000000180055878     libucrt:atof.obj
 0002:00006880       ?lowercase@?1???$parse_floating_point_possible_nan_is_snan@DV?$c_string_character_source@D@__crt_strtox@@@__crt_strtox@@YA_NAEADAEAV?$c_string_character_source@D@1@@Z@4QBDB 0000000180055880     libucrt:atof.obj
 0002:00006888       ?uppercase@?1???$parse_floating_point_possible_nan_is_ind@DV?$c_string_character_source@D@__crt_strtox@@@__crt_strtox@@YA_NAEADAEAV?$c_string_character_source@D@1@@Z@4QBDB 0000000180055888     libucrt:atof.obj
 0002:0000688c       ?lowercase@?1???$parse_floating_point_possible_nan_is_ind@DV?$c_string_character_source@D@__crt_strtox@@@__crt_strtox@@YA_NAEADAEAV?$c_string_character_source@D@1@@Z@4QBDB 000000018005588c     libucrt:atof.obj
 0002:00006890       ??_C@_1FE@LHBLIKM@?$AAA?$AAs?$AAs?$AAe?$AAr?$AAt?$AAi?$AAo?$AAn?$AA?5?$AAf?$AAa?$AAi?$AAl?$AAe?$AAd?$AA?3?$AA?5?$AA?$CF?$AAT?$AAs?$AA?0?$AA?5?$AAf?$AAi?$AAl?$AAe?$AA?5?$AA?$CF?$AAT?$AAs?$AA?0@ 0000000180055890     libucrt:assert.obj
 0002:000068f0       ??_C@_1EK@MBDPDCGA@?$AAM?$AAi?$AAc?$AAr?$AAo?$AAs?$AAo?$AAf?$AAt?$AA?5?$AAV?$AAi?$AAs?$AAu?$AAa?$AAl?$AA?5?$AAC?$AA?$CL?$AA?$CL?$AA?5?$AAR?$AAu?$AAn?$AAt?$AAi?$AAm?$AAe?$AA?5?$AAL?$AAi?$AAb@ 00000001800558f0     libucrt:assert.obj
 0002:00006940       ??_C@_1CE@OJBNHDMO@?$AAA?$AAs?$AAs?$AAe?$AAr?$AAt?$AAi?$AAo?$AAn?$AA?5?$AAf?$AAa?$AAi?$AAl?$AAe?$AAd?$AA?$CB?$AA?$AA@ 0000000180055940     libucrt:assert.obj
 0002:00006968       ??_C@_1BE@PHKBBGE@?$AAP?$AAr?$AAo?$AAg?$AAr?$AAa?$AAm?$AA?3?$AA?5?$AA?$AA@ 0000000180055968     libucrt:assert.obj
 0002:00006980       ??_C@_1O@HEMHKNDC@?$AAF?$AAi?$AAl?$AAe?$AA?3?$AA?5?$AA?$AA@ 0000000180055980     libucrt:assert.obj
 0002:00006990       ??_C@_1O@KCAFKHJE@?$AAL?$AAi?$AAn?$AAe?$AA?3?$AA?5?$AA?$AA@ 0000000180055990     libucrt:assert.obj
 0002:000069a0       ??_C@_1BK@PEDCIPMA@?$AAE?$AAx?$AAp?$AAr?$AAe?$AAs?$AAs?$AAi?$AAo?$AAn?$AA?3?$AA?5?$AA?$AA@ 00000001800559a0     libucrt:assert.obj
 0002:000069c0       ??_C@_1OA@EGMLFBHJ@?$AAF?$AAo?$AAr?$AA?5?$AAi?$AAn?$AAf?$AAo?$AAr?$AAm?$AAa?$AAt?$AAi?$AAo?$AAn?$AA?5?$AAo?$AAn?$AA?5?$AAh?$AAo?$AAw?$AA?5?$AAy?$AAo?$AAu?$AAr?$AA?5?$AAp?$AAr?$AAo?$AAg@ 00000001800559c0     libucrt:assert.obj
 0002:00006aa0       ??_C@_1HK@POCJMFGK@?$AA?$CI?$AAP?$AAr?$AAe?$AAs?$AAs?$AA?5?$AAR?$AAe?$AAt?$AAr?$AAy?$AA?5?$AAt?$AAo?$AA?5?$AAd?$AAe?$AAb?$AAu?$AAg?$AA?5?$AAt?$AAh?$AAe?$AA?5?$AAa?$AAp?$AAp?$AAl?$AAi?$AAc@ 0000000180055aa0     libucrt:assert.obj
 0002:00006b20       ??_C@_17LGKOMLJ@?$AA?4?$AA?4?$AA?4?$AA?$AA@ 0000000180055b20     libucrt:assert.obj
 0002:00006b28       ??_C@_13LBAGMAIH@?$AA?6?$AA?$AA@ 0000000180055b28     libucrt:assert.obj
 0002:00006b2c       ??_C@_15IABLJNFO@?$AA?6?$AA?6?$AA?$AA@ 0000000180055b2c     libucrt:assert.obj
 0002:00006b38       ??_C@_1CO@EAEJAADC@?$AA?$DM?$AAp?$AAr?$AAo?$AAg?$AAr?$AAa?$AAm?$AA?5?$AAn?$AAa?$AAm?$AAe?$AA?5?$AAu?$AAn?$AAk?$AAn?$AAo?$AAw?$AAn?$AA?$DO?$AA?$AA@ 0000000180055b38     libucrt:assert.obj
 0002:00006b70       __newctype                 0000000180055b70     libucrt:ctype.obj
 0002:00006e70       __newclmap                 0000000180055e70     libucrt:ctype.obj
 0002:00006ff0       __newcumap                 0000000180055ff0     libucrt:ctype.obj
 0002:00007170       _wctype                    0000000180056170     libucrt:ctype.obj
 0002:00009198       ??_C@_1M@PBPMMENC@?$AAa?$AAm?$AA?1?$AAp?$AAm?$AA?$AA@ 0000000180058198     libucrt:wcsftime.obj
 0002:000091a8       ??_C@_17BLFJJHMM@?$AAa?$AA?1?$AAp?$AA?$AA@ 00000001800581a8     libucrt:wcsftime.obj
 0002:000091b0       ??_C@_13HOIJIPNN@?$AA?5?$AA?$AA@ 00000001800581b0     libucrt:wcsftime.obj
 0002:000091b4       ??_C@_13CGOKJPIL@?$AA?1?$AA?$AA@ 00000001800581b4     libucrt:wcsftime.obj
 0002:000091b8       ??_C@_13IMODFHAA@?$AA?9?$AA?$AA@ 00000001800581b8     libucrt:wcsftime.obj
 0002:000091bc       ??_C@_13EBCNDICG@?$AA?3?$AA?$AA@ 00000001800581bc     libucrt:wcsftime.obj
 0002:000091c0       ??_C@_13KDLDGPGJ@?$AA?7?$AA?$AA@ 00000001800581c0     libucrt:wcsftime.obj
 0002:000091c4       ??_C@_13KJIIAINM@?$AA?$CL?$AA?$AA@ 00000001800581c4     libucrt:wcsftime.obj
 0002:000091c8       ??_C@_13EJFHHPOP@?$AA?$CF?$AA?$AA@ 00000001800581c8     libucrt:wcsftime.obj
 0002:000091d0       __acrt_exception_action_table 00000001800581d0     libucrt:exception_filter.obj
 0002:00009290       __acrt_signal_action_table_count 0000000180058290     libucrt:exception_filter.obj
 0002:00009298       __acrt_signal_action_first_fpe_index 0000000180058298     libucrt:exception_filter.obj
 0002:000092a0       __acrt_signal_action_fpe_count 00000001800582a0     libucrt:exception_filter.obj
 0002:000092a8       ??_C@_1BI@BGOHAHKC@?$AAm?$AAs?$AAc?$AAo?$AAr?$AAe?$AAe?$AA?4?$AAd?$AAl?$AAl?$AA?$AA@ 00000001800582a8     libucrt:exit.obj
 0002:000092c0       ??_C@_0P@MIGLKIOC@CorExitProcess?$AA@ 00000001800582c0     libucrt:exit.obj
 0002:00009450       __lc_category              0000000180058450     libucrt:wsetlocale.obj
 0002:000094e0       ??_C@_1O@GIFLHMA@?$AAL?$AAC?$AA_?$AAA?$AAL?$AAL?$AA?$AA@ 00000001800584e0     libucrt:wsetlocale.obj
 0002:000094f0       ??_C@_1BG@PPOMIBNJ@?$AAL?$AAC?$AA_?$AAC?$AAO?$AAL?$AAL?$AAA?$AAT?$AAE?$AA?$AA@ 00000001800584f0     libucrt:wsetlocale.obj
 0002:00009508       ??_C@_1BC@FFJGAPJM@?$AAL?$AAC?$AA_?$AAC?$AAT?$AAY?$AAP?$AAE?$AA?$AA@ 0000000180058508     libucrt:wsetlocale.obj
 0002:00009520       ??_C@_1BI@PCKFNJFB@?$AAL?$AAC?$AA_?$AAM?$AAO?$AAN?$AAE?$AAT?$AAA?$AAR?$AAY?$AA?$AA@ 0000000180058520     libucrt:wsetlocale.obj
 0002:00009538       ??_C@_1BG@ENIEDKID@?$AAL?$AAC?$AA_?$AAN?$AAU?$AAM?$AAE?$AAR?$AAI?$AAC?$AA?$AA@ 0000000180058538     libucrt:wsetlocale.obj
 0002:00009550       ??_C@_1BA@HAAOMIIG@?$AAL?$AAC?$AA_?$AAT?$AAI?$AAM?$AAE?$AA?$AA@ 0000000180058550     libucrt:wsetlocale.obj
 0002:00009560       ??_C@_15NBPDDFIP@?$AA?$DN?$AA?$DL?$AA?$AA@ 0000000180058560     libucrt:wsetlocale.obj
 0002:00009568       ??_C@_13PJJBFPED@?$AA?$DL?$AA?$AA@ 0000000180058568     libucrt:wsetlocale.obj
 0002:0000956c       ??_C@_13NMPKAAJP@?$AA?$DN?$AA?$AA@ 000000018005856c     libucrt:wsetlocale.obj
 0002:00009570       ??_C@_13FHBKNHDA@?$AAC?$AA?$AA@ 0000000180058570     libucrt:wsetlocale.obj
 0002:00009578       ??_C@_19MPDNHKDG@?$AAu?$AAt?$AAf?$AA8?$AA?$AA@ 0000000180058578     libucrt:wsetlocale.obj
 0002:00009588       ??_C@_1M@FPEIIFAM@?$AAu?$AAt?$AAf?$AA?9?$AA8?$AA?$AA@ 0000000180058588     libucrt:wsetlocale.obj
 0002:00009598       ??_C@_17MBJJLFDM@?$AA_?$AA?4?$AA?0?$AA?$AA@ 0000000180058598     libucrt:wsetlocale.obj
 0002:000095a0       ??_C@_13ENNFDPBH@?$AA_?$AA?$AA@ 00000001800585a0     libucrt:wsetlocale.obj
 0002:000095a4       ??_C@_13JOFGPIOO@?$AA?4?$AA?$AA@ 00000001800585a4     libucrt:wsetlocale.obj
 0002:000095b0       __lc_time_c                00000001800585b0     libucrt:nlsdata.obj
 0002:00009870       ??_C@_03KOEHGMDN@Sun?$AA@  0000000180058870     libucrt:nlsdata.obj
 0002:00009874       ??_C@_03PDAGKDH@Mon?$AA@   0000000180058874     libucrt:nlsdata.obj
 0002:00009878       ??_C@_03NAGEINEP@Tue?$AA@  0000000180058878     libucrt:nlsdata.obj
 0002:0000987c       ??_C@_03MHOMLAJA@Wed?$AA@  000000018005887c     libucrt:nlsdata.obj
 0002:00009880       ??_C@_03IOFIKPDN@Thu?$AA@  0000000180058880     libucrt:nlsdata.obj
 0002:00009884       ??_C@_03IDIOELNC@Fri?$AA@  0000000180058884     libucrt:nlsdata.obj
 0002:00009888       ??_C@_03FEFJNEK@Sat?$AA@   0000000180058888     libucrt:nlsdata.obj
 0002:0000988c       ??_C@_06OOPIFAJ@Sunday?$AA@ 000000018005888c     libucrt:nlsdata.obj
 0002:00009894       ??_C@_06JLEDEDGH@Monday?$AA@ 0000000180058894     libucrt:nlsdata.obj
 0002:000098a0       ??_C@_07BAAGCFCM@Tuesday?$AA@ 00000001800588a0     libucrt:nlsdata.obj
 0002:000098a8       ??_C@_09DLIGFAKA@Wednesday?$AA@ 00000001800588a8     libucrt:nlsdata.obj
 0002:000098b8       ??_C@_08HACCIKIA@Thursday?$AA@ 00000001800588b8     libucrt:nlsdata.obj
 0002:000098c4       ??_C@_06JECMNKMI@Friday?$AA@ 00000001800588c4     libucrt:nlsdata.obj
 0002:000098d0       ??_C@_08INBOOONO@Saturday?$AA@ 00000001800588d0     libucrt:nlsdata.obj
 0002:000098dc       ??_C@_03JIHJHPIE@Jan?$AA@  00000001800588dc     libucrt:nlsdata.obj
 0002:000098e0       ??_C@_03HJBDCHOM@Feb?$AA@  00000001800588e0     libucrt:nlsdata.obj
 0002:000098e4       ??_C@_03ODNJBKGA@Mar?$AA@  00000001800588e4     libucrt:nlsdata.obj
 0002:000098e8       ??_C@_03LEOLGMJP@Apr?$AA@  00000001800588e8     libucrt:nlsdata.obj
 0002:000098ec       ??_C@_03CNMDKL@May?$AA@    00000001800588ec     libucrt:nlsdata.obj
 0002:000098f0       ??_C@_03IDFGHECI@Jun?$AA@  00000001800588f0     libucrt:nlsdata.obj
 0002:000098f4       ??_C@_03LBGABGKK@Jul?$AA@  00000001800588f4     libucrt:nlsdata.obj
 0002:000098f8       ??_C@_03IFJFEIGA@Aug?$AA@  00000001800588f8     libucrt:nlsdata.obj
 0002:000098fc       ??_C@_03GGCAPAJC@Sep?$AA@  00000001800588fc     libucrt:nlsdata.obj
 0002:00009900       ??_C@_03BMAOKBAD@Oct?$AA@  0000000180058900     libucrt:nlsdata.obj
 0002:00009904       ??_C@_03JPJOFNIA@Nov?$AA@  0000000180058904     libucrt:nlsdata.obj
 0002:00009908       ??_C@_03MKABNOCG@Dec?$AA@  0000000180058908     libucrt:nlsdata.obj
 0002:00009910       ??_C@_07CGJPFGJA@January?$AA@ 0000000180058910     libucrt:nlsdata.obj
 0002:00009918       ??_C@_08GNJGEPFN@February?$AA@ 0000000180058918     libucrt:nlsdata.obj
 0002:00009924       ??_C@_05HPCKOFNC@March?$AA@ 0000000180058924     libucrt:nlsdata.obj
 0002:0000992c       ??_C@_05DMJDNLEJ@April?$AA@ 000000018005892c     libucrt:nlsdata.obj
 0002:00009934       ??_C@_04CNLMGBGM@June?$AA@ 0000000180058934     libucrt:nlsdata.obj
 0002:0000993c       ??_C@_04MIEPOIFP@July?$AA@ 000000018005893c     libucrt:nlsdata.obj
 0002:00009944       ??_C@_06LBBHFDDG@August?$AA@ 0000000180058944     libucrt:nlsdata.obj
 0002:00009950       ??_C@_09BHHEALKD@September?$AA@ 0000000180058950     libucrt:nlsdata.obj
 0002:00009960       ??_C@_07JJNFCEND@October?$AA@ 0000000180058960     libucrt:nlsdata.obj
 0002:00009968       ??_C@_08HCHEGEOA@November?$AA@ 0000000180058968     libucrt:nlsdata.obj
 0002:00009978       ??_C@_08EDHMEBNP@December?$AA@ 0000000180058978     libucrt:nlsdata.obj
 0002:00009984       ??_C@_02DEDBPAFC@AM?$AA@   0000000180058984     libucrt:nlsdata.obj
 0002:00009988       ??_C@_02CJNFDJBF@PM?$AA@   0000000180058988     libucrt:nlsdata.obj
 0002:00009990       ??_C@_08BPBNCDIB@MM?1dd?1yy?$AA@ 0000000180058990     libucrt:nlsdata.obj
 0002:000099a0       ??_C@_0BE@CKGJFCPC@dddd?0?5MMMM?5dd?0?5yyyy?$AA@ 00000001800589a0     libucrt:nlsdata.obj
 0002:000099b8       ??_C@_08JCCMCCIL@HH?3mm?3ss?$AA@ 00000001800589b8     libucrt:nlsdata.obj
 0002:000099c8       ??_C@_17MBGCMIPB@?$AAS?$AAu?$AAn?$AA?$AA@ 00000001800589c8     libucrt:nlsdata.obj
 0002:000099d0       ??_C@_17KBOMKBF@?$AAM?$AAo?$AAn?$AA?$AA@ 00000001800589d0     libucrt:nlsdata.obj
 0002:000099d8       ??_C@_17BMKGEGOJ@?$AAT?$AAu?$AAe?$AA?$AA@ 00000001800589d8     libucrt:nlsdata.obj
 0002:000099e0       ??_C@_17CJEDCEPE@?$AAW?$AAe?$AAd?$AA?$AA@ 00000001800589e0     libucrt:nlsdata.obj
 0002:000099e8       ??_C@_17PDPHAADD@?$AAT?$AAh?$AAu?$AA?$AA@ 00000001800589e8     libucrt:nlsdata.obj
 0002:000099f0       ??_C@_17HFOLPPLP@?$AAF?$AAr?$AAi?$AA?$AA@ 00000001800589f0     libucrt:nlsdata.obj
 0002:000099f8       ??_C@_17GGIBDPIH@?$AAS?$AAa?$AAt?$AA?$AA@ 00000001800589f8     libucrt:nlsdata.obj
 0002:00009a00       ??_C@_1O@IHNHDHPB@?$AAS?$AAu?$AAn?$AAd?$AAa?$AAy?$AA?$AA@ 0000000180058a00     libucrt:nlsdata.obj
 0002:00009a10       ??_C@_1O@MMNBFLIA@?$AAM?$AAo?$AAn?$AAd?$AAa?$AAy?$AA?$AA@ 0000000180058a10     libucrt:nlsdata.obj
 0002:00009a20       ??_C@_1BA@ENFBFFEK@?$AAT?$AAu?$AAe?$AAs?$AAd?$AAa?$AAy?$AA?$AA@ 0000000180058a20     libucrt:nlsdata.obj
 0002:00009a30       ??_C@_1BE@EBOGMDOH@?$AAW?$AAe?$AAd?$AAn?$AAe?$AAs?$AAd?$AAa?$AAy?$AA?$AA@ 0000000180058a30     libucrt:nlsdata.obj
 0002:00009a48       ??_C@_1BC@HHMNLIHE@?$AAT?$AAh?$AAu?$AAr?$AAs?$AAd?$AAa?$AAy?$AA?$AA@ 0000000180058a48     libucrt:nlsdata.obj
 0002:00009a60       ??_C@_1O@PDICJHAG@?$AAF?$AAr?$AAi?$AAd?$AAa?$AAy?$AA?$AA@ 0000000180058a60     libucrt:nlsdata.obj
 0002:00009a70       ??_C@_1BC@ENMNNPAJ@?$AAS?$AAa?$AAt?$AAu?$AAr?$AAd?$AAa?$AAy?$AA?$AA@ 0000000180058a70     libucrt:nlsdata.obj
 0002:00009a88       ??_C@_17DKNBKCHM@?$AAJ?$AAa?$AAn?$AA?$AA@ 0000000180058a88     libucrt:nlsdata.obj
 0002:00009a90       ??_C@_17LMDJEKJN@?$AAF?$AAe?$AAb?$AA?$AA@ 0000000180058a90     libucrt:nlsdata.obj
 0002:00009a98       ??_C@_17CKNLEDEC@?$AAM?$AAa?$AAr?$AA?$AA@ 0000000180058a98     libucrt:nlsdata.obj
 0002:00009aa0       ??_C@_17LFPOIHDD@?$AAA?$AAp?$AAr?$AA?$AA@ 0000000180058aa0     libucrt:nlsdata.obj
 0002:00009aa8       ??_C@_17PNNKMEED@?$AAM?$AAa?$AAy?$AA?$AA@ 0000000180058aa8     libucrt:nlsdata.obj
 0002:00009ab0       ??_C@_17KCJGOCPB@?$AAJ?$AAu?$AAn?$AA?$AA@ 0000000180058ab0     libucrt:nlsdata.obj
 0002:00009ab8       ??_C@_17IJPCKHK@?$AAJ?$AAu?$AAl?$AA?$AA@ 0000000180058ab8     libucrt:nlsdata.obj
 0002:00009ac0       ??_C@_17ICPELBCN@?$AAA?$AAu?$AAg?$AA?$AA@ 0000000180058ac0     libucrt:nlsdata.obj
 0002:00009ac8       ??_C@_17HCHCOKMG@?$AAS?$AAe?$AAp?$AA?$AA@ 0000000180058ac8     libucrt:nlsdata.obj
 0002:00009ad0       ??_C@_17FNLKOI@?$AAO?$AAc?$AAt?$AA?$AA@ 0000000180058ad0     libucrt:nlsdata.obj
 0002:00009ad8       ??_C@_17BBDMLCIG@?$AAN?$AAo?$AAv?$AA?$AA@ 0000000180058ad8     libucrt:nlsdata.obj
 0002:00009ae0       ??_C@_17EGKACKIF@?$AAD?$AAe?$AAc?$AA?$AA@ 0000000180058ae0     libucrt:nlsdata.obj
 0002:00009ae8       ??_C@_1BA@EFMEIEBA@?$AAJ?$AAa?$AAn?$AAu?$AAa?$AAr?$AAy?$AA?$AA@ 0000000180058ae8     libucrt:nlsdata.obj
 0002:00009af8       ??_C@_1BC@JGDDFFAM@?$AAF?$AAe?$AAb?$AAr?$AAu?$AAa?$AAr?$AAy?$AA?$AA@ 0000000180058af8     libucrt:nlsdata.obj
 0002:00009b10       ??_C@_1M@IKEENEDF@?$AAM?$AAa?$AAr?$AAc?$AAh?$AA?$AA@ 0000000180058b10     libucrt:nlsdata.obj
 0002:00009b20       ??_C@_1M@GJNLMHFD@?$AAA?$AAp?$AAr?$AAi?$AAl?$AA?$AA@ 0000000180058b20     libucrt:nlsdata.obj
 0002:00009b30       ??_C@_19EPFLPGAP@?$AAJ?$AAu?$AAn?$AAe?$AA?$AA@ 0000000180058b30     libucrt:nlsdata.obj
 0002:00009b40       ??_C@_19BIFMLPCD@?$AAJ?$AAu?$AAl?$AAy?$AA?$AA@ 0000000180058b40     libucrt:nlsdata.obj
 0002:00009b50       ??_C@_1O@PAHLKOAC@?$AAA?$AAu?$AAg?$AAu?$AAs?$AAt?$AA?$AA@ 0000000180058b50     libucrt:nlsdata.obj
 0002:00009b60       ??_C@_1BE@DKAAMBJL@?$AAS?$AAe?$AAp?$AAt?$AAe?$AAm?$AAb?$AAe?$AAr?$AA?$AA@ 0000000180058b60     libucrt:nlsdata.obj
 0002:00009b78       ??_C@_1BA@EPANDLNG@?$AAO?$AAc?$AAt?$AAo?$AAb?$AAe?$AAr?$AA?$AA@ 0000000180058b78     libucrt:nlsdata.obj
 0002:00009b88       ??_C@_1BC@BGLIFPF@?$AAN?$AAo?$AAv?$AAe?$AAm?$AAb?$AAe?$AAr?$AA?$AA@ 0000000180058b88     libucrt:nlsdata.obj
 0002:00009ba0       ??_C@_1BC@FEMKIFH@?$AAD?$AAe?$AAc?$AAe?$AAm?$AAb?$AAe?$AAr?$AA?$AA@ 0000000180058ba0     libucrt:nlsdata.obj
 0002:00009bb4       ??_C@_15ODEHAHHF@?$AAA?$AAM?$AA?$AA@ 0000000180058bb4     libucrt:nlsdata.obj
 0002:00009bbc       ??_C@_15CLMNNGEL@?$AAP?$AAM?$AA?$AA@ 0000000180058bbc     libucrt:nlsdata.obj
 0002:00009bc8       ??_C@_1BC@IEBCMHCM@?$AAM?$AAM?$AA?1?$AAd?$AAd?$AA?1?$AAy?$AAy?$AA?$AA@ 0000000180058bc8     libucrt:nlsdata.obj
 0002:00009be0       ??_C@_1CI@KNAKOEBC@?$AAd?$AAd?$AAd?$AAd?$AA?0?$AA?5?$AAM?$AAM?$AAM?$AAM?$AA?5?$AAd?$AAd?$AA?0?$AA?5?$AAy?$AAy?$AAy?$AAy?$AA?$AA@ 0000000180058be0     libucrt:nlsdata.obj
 0002:00009c08       ??_C@_1BC@GDGBMEMK@?$AAH?$AAH?$AA?3?$AAm?$AAm?$AA?3?$AAs?$AAs?$AA?$AA@ 0000000180058c08     libucrt:nlsdata.obj
 0002:00009c20       ??_C@_1M@BMHNFIME@?$AAe?$AAn?$AA?9?$AAU?$AAS?$AA?$AA@ 0000000180058c20     libucrt:nlsdata.obj
 0002:00009c2c       ??_C@_03OEIAHPBN@INF?$AA@  0000000180058c2c     libucrt:cvt.obj
 0002:00009c30       ??_C@_03OJHLLCGB@inf?$AA@  0000000180058c30     libucrt:cvt.obj
 0002:00009c34       ??_C@_03LKNCIKJB@NAN?$AA@  0000000180058c34     libucrt:cvt.obj
 0002:00009c38       ??_C@_03LHCJEHON@nan?$AA@  0000000180058c38     libucrt:cvt.obj
 0002:00009c40       ??_C@_09OFJJIMPC@NAN?$CISNAN?$CJ?$AA@ 0000000180058c40     libucrt:cvt.obj
 0002:00009c50       ??_C@_09IPFBKMDL@nan?$CIsnan?$CJ?$AA@ 0000000180058c50     libucrt:cvt.obj
 0002:00009c60       ??_C@_08IKHNHAJ@NAN?$CIIND?$CJ?$AA@ 0000000180058c60     libucrt:cvt.obj
 0002:00009c70       ??_C@_08OFCDMILK@nan?$CIind?$CJ?$AA@ 0000000180058c70     libucrt:cvt.obj
 0002:00009c7c       ??_C@_05KLBDPFGC@e?$CL000?$AA@ 0000000180058c7c     libucrt:cvt.obj
 0002:00009d30       ??_C@_1EA@JGEFHKEI@?$AAa?$AAp?$AAi?$AA?9?$AAm?$AAs?$AA?9?$AAw?$AAi?$AAn?$AA?9?$AAc?$AAo?$AAr?$AAe?$AA?9?$AAd?$AAa?$AAt?$AAe?$AAt?$AAi?$AAm?$AAe?$AA?9?$AAl?$AA1?$AA?9?$AA1?$AA?9?$AA1?$AA?$AA@ 0000000180058d30     libucrt:winapi_thunks.obj
 0002:00009d70       ??_C@_1DM@KHCHBNEB@?$AAa?$AAp?$AAi?$AA?9?$AAm?$AAs?$AA?9?$AAw?$AAi?$AAn?$AA?9?$AAc?$AAo?$AAr?$AAe?$AA?9?$AAf?$AAi?$AAb?$AAe?$AAr?$AAs?$AA?9?$AAl?$AA1?$AA?9?$AA1?$AA?9?$AA1?$AA?$AA@ 0000000180058d70     libucrt:winapi_thunks.obj
 0002:00009db0       ??_C@_1DI@IJCEHOCB@?$AAa?$AAp?$AAi?$AA?9?$AAm?$AAs?$AA?9?$AAw?$AAi?$AAn?$AA?9?$AAc?$AAo?$AAr?$AAe?$AA?9?$AAf?$AAi?$AAl?$AAe?$AA?9?$AAl?$AA1?$AA?9?$AA2?$AA?9?$AA2?$AA?$AA@ 0000000180058db0     libucrt:winapi_thunks.obj
 0002:00009df0       ??_C@_1EI@MPIAOHOC@?$AAa?$AAp?$AAi?$AA?9?$AAm?$AAs?$AA?9?$AAw?$AAi?$AAn?$AA?9?$AAc?$AAo?$AAr?$AAe?$AA?9?$AAl?$AAo?$AAc?$AAa?$AAl?$AAi?$AAz?$AAa?$AAt?$AAi?$AAo?$AAn?$AA?9?$AAl?$AA1?$AA?9@ 0000000180058df0     libucrt:winapi_thunks.obj
 0002:00009e40       ??_C@_1FK@FPHCKFIE@?$AAa?$AAp?$AAi?$AA?9?$AAm?$AAs?$AA?9?$AAw?$AAi?$AAn?$AA?9?$AAc?$AAo?$AAr?$AAe?$AA?9?$AAl?$AAo?$AAc?$AAa?$AAl?$AAi?$AAz?$AAa?$AAt?$AAi?$AAo?$AAn?$AA?9?$AAo?$AAb?$AAs@ 0000000180058e40     libucrt:winapi_thunks.obj
 0002:00009ea0       ??_C@_1EM@DILCGIIO@?$AAa?$AAp?$AAi?$AA?9?$AAm?$AAs?$AA?9?$AAw?$AAi?$AAn?$AA?9?$AAc?$AAo?$AAr?$AAe?$AA?9?$AAp?$AAr?$AAo?$AAc?$AAe?$AAs?$AAs?$AAt?$AAh?$AAr?$AAe?$AAa?$AAd?$AAs?$AA?9?$AAl@ 0000000180058ea0     libucrt:winapi_thunks.obj
 0002:00009ef0       ??_C@_1DM@LNCGDDPN@?$AAa?$AAp?$AAi?$AA?9?$AAm?$AAs?$AA?9?$AAw?$AAi?$AAn?$AA?9?$AAc?$AAo?$AAr?$AAe?$AA?9?$AAs?$AAt?$AAr?$AAi?$AAn?$AAg?$AA?9?$AAl?$AA1?$AA?9?$AA1?$AA?9?$AA0?$AA?$AA@ 0000000180058ef0     libucrt:winapi_thunks.obj
 0002:00009f30       ??_C@_1DK@LPPGFMPP@?$AAa?$AAp?$AAi?$AA?9?$AAm?$AAs?$AA?9?$AAw?$AAi?$AAn?$AA?9?$AAc?$AAo?$AAr?$AAe?$AA?9?$AAs?$AAy?$AAn?$AAc?$AAh?$AA?9?$AAl?$AA1?$AA?9?$AA2?$AA?9?$AA0?$AA?$AA@ 0000000180058f30     libucrt:winapi_thunks.obj
 0002:00009f70       ??_C@_1DO@FPAPJEMD@?$AAa?$AAp?$AAi?$AA?9?$AAm?$AAs?$AA?9?$AAw?$AAi?$AAn?$AA?9?$AAc?$AAo?$AAr?$AAe?$AA?9?$AAs?$AAy?$AAs?$AAi?$AAn?$AAf?$AAo?$AA?9?$AAl?$AA1?$AA?9?$AA2?$AA?9?$AA1?$AA?$AA@ 0000000180058f70     libucrt:winapi_thunks.obj
 0002:00009fb0       ??_C@_1DK@NDHNAHIO@?$AAa?$AAp?$AAi?$AA?9?$AAm?$AAs?$AA?9?$AAw?$AAi?$AAn?$AA?9?$AAc?$AAo?$AAr?$AAe?$AA?9?$AAw?$AAi?$AAn?$AAr?$AAt?$AA?9?$AAl?$AA1?$AA?9?$AA1?$AA?9?$AA0?$AA?$AA@ 0000000180058fb0     libucrt:winapi_thunks.obj
 0002:00009ff0       ??_C@_1DM@KGHDGBCM@?$AAa?$AAp?$AAi?$AA?9?$AAm?$AAs?$AA?9?$AAw?$AAi?$AAn?$AA?9?$AAc?$AAo?$AAr?$AAe?$AA?9?$AAx?$AAs?$AAt?$AAa?$AAt?$AAe?$AA?9?$AAl?$AA2?$AA?9?$AA1?$AA?9?$AA0?$AA?$AA@ 0000000180058ff0     libucrt:winapi_thunks.obj
 0002:0000a030       ??_C@_1EO@IJIOEFOH@?$AAa?$AAp?$AAi?$AA?9?$AAm?$AAs?$AA?9?$AAw?$AAi?$AAn?$AA?9?$AAr?$AAt?$AAc?$AAo?$AAr?$AAe?$AA?9?$AAn?$AAt?$AAu?$AAs?$AAe?$AAr?$AA?9?$AAw?$AAi?$AAn?$AAd?$AAo?$AAw?$AA?9@ 0000000180059030     libucrt:winapi_thunks.obj
 0002:0000a080       ??_C@_1FG@HHGEKANL@?$AAa?$AAp?$AAi?$AA?9?$AAm?$AAs?$AA?9?$AAw?$AAi?$AAn?$AA?9?$AAs?$AAe?$AAc?$AAu?$AAr?$AAi?$AAt?$AAy?$AA?9?$AAs?$AAy?$AAs?$AAt?$AAe?$AAm?$AAf?$AAu?$AAn?$AAc?$AAt?$AAi@ 0000000180059080     libucrt:winapi_thunks.obj
 0002:0000a0e0       ??_C@_1EG@DBIOJECG@?$AAe?$AAx?$AAt?$AA?9?$AAm?$AAs?$AA?9?$AAw?$AAi?$AAn?$AA?9?$AAn?$AAt?$AAu?$AAs?$AAe?$AAr?$AA?9?$AAd?$AAi?$AAa?$AAl?$AAo?$AAg?$AAb?$AAo?$AAx?$AA?9?$AAl?$AA1?$AA?9?$AA1@ 00000001800590e0     libucrt:winapi_thunks.obj
 0002:0000a130       ??_C@_1EO@FIHMJCLF@?$AAe?$AAx?$AAt?$AA?9?$AAm?$AAs?$AA?9?$AAw?$AAi?$AAn?$AA?9?$AAn?$AAt?$AAu?$AAs?$AAe?$AAr?$AA?9?$AAw?$AAi?$AAn?$AAd?$AAo?$AAw?$AAs?$AAt?$AAa?$AAt?$AAi?$AAo?$AAn?$AA?9@ 0000000180059130     libucrt:winapi_thunks.obj
 0002:0000a180       ??_C@_1BC@DNHGCMLG@?$AAa?$AAd?$AAv?$AAa?$AAp?$AAi?$AA3?$AA2?$AA?$AA@ 0000000180059180     libucrt:winapi_thunks.obj
 0002:0000a198       ??_C@_1BC@GDMECMAK@?$AAk?$AAe?$AAr?$AAn?$AAe?$AAl?$AA3?$AA2?$AA?$AA@ 0000000180059198     libucrt:winapi_thunks.obj
 0002:0000a1b0       ??_C@_1M@OAIMIKLP@?$AAn?$AAt?$AAd?$AAl?$AAl?$AA?$AA@ 00000001800591b0     libucrt:winapi_thunks.obj
 0002:0000a1c0       ??_C@_1EG@DPGNFKGC@?$AAa?$AAp?$AAi?$AA?9?$AAm?$AAs?$AA?9?$AAw?$AAi?$AAn?$AA?9?$AAa?$AAp?$AAp?$AAm?$AAo?$AAd?$AAe?$AAl?$AA?9?$AAr?$AAu?$AAn?$AAt?$AAi?$AAm?$AAe?$AA?9?$AAl?$AA1?$AA?9?$AA1@ 00000001800591c0     libucrt:winapi_thunks.obj
 0002:0000a208       ??_C@_1O@BCCLBEOE@?$AAu?$AAs?$AAe?$AAr?$AA3?$AA2?$AA?$AA@ 0000000180059208     libucrt:winapi_thunks.obj
 0002:0000a218       ??_C@_1BA@PFFKHIOG@?$AAa?$AAp?$AAi?$AA?9?$AAm?$AAs?$AA?9?$AA?$AA@ 0000000180059218     libucrt:winapi_thunks.obj
 0002:0000a228       ??_C@_1BA@IAIFMGEF@?$AAe?$AAx?$AAt?$AA?9?$AAm?$AAs?$AA?9?$AA?$AA@ 0000000180059228     libucrt:winapi_thunks.obj
 0002:0000a240       ??_C@_0BA@FHFNEAED@AreFileApisANSI?$AA@ 0000000180059240     libucrt:winapi_thunks.obj
 0002:0000a258       ??_C@_0BA@IHGNDAEB@CompareStringEx?$AA@ 0000000180059258     libucrt:winapi_thunks.obj
 0002:0000a270       ??_C@_0BE@LJANKFHF@EnumSystemLocalesEx?$AA@ 0000000180059270     libucrt:winapi_thunks.obj
 0002:0000a290       ??_C@_08KNHFBNJ@FlsAlloc?$AA@ 0000000180059290     libucrt:winapi_thunks.obj
 0002:0000a2a8       ??_C@_07PEJMOBNF@FlsFree?$AA@ 00000001800592a8     libucrt:winapi_thunks.obj
 0002:0000a2b8       ??_C@_0M@GDNOONDI@FlsGetValue?$AA@ 00000001800592b8     libucrt:winapi_thunks.obj
 0002:0000a2d0       ??_C@_0M@JCPCPOEF@FlsSetValue?$AA@ 00000001800592d0     libucrt:winapi_thunks.obj
 0002:0000a2e8       ??_C@_0BA@HNOPNCHB@GetActiveWindow?$AA@ 00000001800592e8     libucrt:winapi_thunks.obj
 0002:0000a300       ??_C@_0BA@EPCJIIPD@GetDateFormatEx?$AA@ 0000000180059300     libucrt:winapi_thunks.obj
 0002:0000a318       ??_C@_0BD@HHGDFDBJ@GetLastActivePopup?$AA@ 0000000180059318     libucrt:winapi_thunks.obj
 0002:0000a338       ??_C@_0BA@ONOKGCMP@GetLocaleInfoEx?$AA@ 0000000180059338     libucrt:winapi_thunks.obj
 0002:0000a350       ??_C@_0BI@DFKBFLJE@GetProcessWindowStation?$AA@ 0000000180059350     libucrt:winapi_thunks.obj
 0002:0000a370       ??_C@_0BP@FPNJPEJC@GetSystemTimePreciseAsFileTime?$AA@ 0000000180059370     libucrt:winapi_thunks.obj
 0002:0000a398       ??_C@_0BA@CIJJKCJJ@GetTimeFormatEx?$AA@ 0000000180059398     libucrt:winapi_thunks.obj
 0002:0000a3b0       ??_C@_0BJ@PBCCBIPI@GetUserDefaultLocaleName?$AA@ 00000001800593b0     libucrt:winapi_thunks.obj
 0002:0000a3d8       ??_C@_0BK@DEKFELLI@GetUserObjectInformationW?$AA@ 00000001800593d8     libucrt:winapi_thunks.obj
 0002:0000a400       ??_C@_0BM@HCFOFFN@InitializeCriticalSectionEx?$AA@ 0000000180059400     libucrt:winapi_thunks.obj
 0002:0000a428       ??_C@_0BC@CELBKLLA@IsValidLocaleName?$AA@ 0000000180059428     libucrt:winapi_thunks.obj
 0002:0000a448       ??_C@_0O@KKBNKAPF@LCMapStringEx?$AA@ 0000000180059448     libucrt:winapi_thunks.obj
 0002:0000a460       ??_C@_0BB@CDHDDLLP@LCIDToLocaleName?$AA@ 0000000180059460     libucrt:winapi_thunks.obj
 0002:0000a480       ??_C@_0BB@HBDEELFH@LocaleNameToLCID?$AA@ 0000000180059480     libucrt:winapi_thunks.obj
 0002:0000a4a0       ??_C@_0M@CHKKJDAI@MessageBoxA?$AA@ 00000001800594a0     libucrt:winapi_thunks.obj
 0002:0000a4b8       ??_C@_0M@DLDCCGNP@MessageBoxW?$AA@ 00000001800594b8     libucrt:winapi_thunks.obj
 0002:0000a4c8       ??_C@_0CF@OJOFEIGO@AppPolicyGetProcessTerminationMe@ 00000001800594c8     libucrt:winapi_thunks.obj
 0002:0000a4f8       ??_C@_0CE@OICFMIKE@AppPolicyGetShowDeveloperDiagnos@ 00000001800594f8     libucrt:winapi_thunks.obj
 0002:0000a520       ??_C@_0BL@ODDJNEDA@AppPolicyGetWindowingModel?$AA@ 0000000180059520     libucrt:winapi_thunks.obj
 0002:0000a53c       ??_C@_02CLFPBFFP@TZ?$AA@   000000018005953c     libucrt:tzset.obj
 0002:0000a710       ??_C@_03KHJOGHMM@exp?$AA@  0000000180059710     libucrt:fpexcept.obj
 0002:0000a714       ??_C@_03JGHBODFD@pow?$AA@  0000000180059714     libucrt:fpexcept.obj
 0002:0000a718       ??_C@_03MGHMBJCF@log?$AA@  0000000180059718     libucrt:fpexcept.obj
 0002:0000a71c       ??_C@_05HGHHAHAP@log10?$AA@ 000000018005971c     libucrt:fpexcept.obj
 0002:0000a724       ??_C@_04COOMCNPB@sinh?$AA@ 0000000180059724     libucrt:fpexcept.obj
 0002:0000a72c       ??_C@_04HPJJNFIM@cosh?$AA@ 000000018005972c     libucrt:fpexcept.obj
 0002:0000a734       ??_C@_04FJHINJAO@tanh?$AA@ 0000000180059734     libucrt:fpexcept.obj
 0002:0000a73c       ??_C@_04FIHNOPOL@asin?$AA@ 000000018005973c     libucrt:fpexcept.obj
 0002:0000a744       ??_C@_04PDIFKINK@acos?$AA@ 0000000180059744     libucrt:fpexcept.obj
 0002:0000a74c       ??_C@_04MLLJIGOK@atan?$AA@ 000000018005974c     libucrt:fpexcept.obj
 0002:0000a754       ??_C@_05KNGEOGJB@atan2?$AA@ 0000000180059754     libucrt:fpexcept.obj
 0002:0000a75c       ??_C@_04EIAKFFMI@sqrt?$AA@ 000000018005975c     libucrt:fpexcept.obj
 0002:0000a764       ??_C@_03BLEJJJBH@sin?$AA@  0000000180059764     libucrt:fpexcept.obj
 0002:0000a768       ??_C@_03LALBNOCG@cos?$AA@  0000000180059768     libucrt:fpexcept.obj
 0002:0000a76c       ??_C@_03IIINPABG@tan?$AA@  000000018005976c     libucrt:fpexcept.obj
 0002:0000a770       ??_C@_04GFPJNGEK@ceil?$AA@ 0000000180059770     libucrt:fpexcept.obj
 0002:0000a778       ??_C@_05PBJFFIGL@floor?$AA@ 0000000180059778     libucrt:fpexcept.obj
 0002:0000a780       ??_C@_04ODHECPBC@fabs?$AA@ 0000000180059780     libucrt:fpexcept.obj
 0002:0000a788       ??_C@_04EHEDPDJG@modf?$AA@ 0000000180059788     libucrt:fpexcept.obj
 0002:0000a790       ??_C@_05CEJMAHNP@ldexp?$AA@ 0000000180059790     libucrt:fpexcept.obj
 0002:0000a798       ??_C@_05KBKMEMPO@_cabs?$AA@ 0000000180059798     libucrt:fpexcept.obj
 0002:0000a7a0       ??_C@_06MEIMCGCF@_hypot?$AA@ 00000001800597a0     libucrt:fpexcept.obj
 0002:0000a7a8       ??_C@_04KEPJIHGP@fmod?$AA@ 00000001800597a8     libucrt:fpexcept.obj
 0002:0000a7b0       ??_C@_05GKKHEGJL@frexp?$AA@ 00000001800597b0     libucrt:fpexcept.obj
 0002:0000a7b8       ??_C@_03MJLDFKDL@_y0?$AA@  00000001800597b8     libucrt:fpexcept.obj
 0002:0000a7bc       ??_C@_03NAKIGLHK@_y1?$AA@  00000001800597bc     libucrt:fpexcept.obj
 0002:0000a7c0       ??_C@_03ONILCKOB@_yn?$AA@  00000001800597c0     libucrt:fpexcept.obj
 0002:0000a7c4       ??_C@_05JGDBENOH@_logb?$AA@ 00000001800597c4     libucrt:fpexcept.obj
 0002:0000a7d0       ??_C@_0L@KDOEJCKC@_nextafter?$AA@ 00000001800597d0     libucrt:fpexcept.obj
 0002:0000a7e0       _d_inf                     00000001800597e0     libucrt:util.obj
 0002:0000a7e8       _d_max                     00000001800597e8     libucrt:util.obj
 0002:0000a818       ?ccs@?1???$__acrt_stdio_parse_mode@D@@YA?AU__acrt_stdio_stream_mode@@QEBD@Z@4QBDB 0000000180059818     libucrt:openfile.obj
 0002:0000a81c       ?utf8_encoding@?1???$__acrt_stdio_parse_mode@D@@YA?AU__acrt_stdio_stream_mode@@QEBD@Z@4QBDB 000000018005981c     libucrt:openfile.obj
 0002:0000a828       ?utf16_encoding@?1???$__acrt_stdio_parse_mode@D@@YA?AU__acrt_stdio_stream_mode@@QEBD@Z@4QBDB 0000000180059828     libucrt:openfile.obj
 0002:0000a830       ?unicode_encoding@?1???$__acrt_stdio_parse_mode@D@@YA?AU__acrt_stdio_stream_mode@@QEBD@Z@4QBDB 0000000180059830     libucrt:openfile.obj
 0002:0000a840       __log_256_lead             0000000180059840     libucrt:log_256_lead_tail_table.obj
 0002:0000b050       __log_256_tail             000000018005a050     libucrt:log_256_lead_tail_table.obj
 0002:0000b860       __two_to_jby64_head_table  000000018005a860     libucrt:two_to_jby64_head_tail_table.obj
 0002:0000ba60       __two_to_jby64_tail_table  000000018005aa60     libucrt:two_to_jby64_head_tail_table.obj
 0002:0000bc60       ??_C@_04MBFDLNIM@powf?$AA@ 000000018005ac60     libucrt:pow_special.obj
 0002:0000bc70       __two_to_jby64_table       000000018005ac70     libucrt:two_to_jby64_table.obj
 0002:0000be70       __log_F_inv_qword          000000018005ae70     libucrt:log_f_inv_qword_table.obj
 0002:0000c6a0       ??_C@_1M@HPNHIDJI@?$AAj?$AAa?$AA?9?$AAJ?$AAP?$AA?$AA@ 000000018005b6a0     libucrt:mbctype.obj
 0002:0000c6b0       ??_C@_1M@BIBDDEMK@?$AAz?$AAh?$AA?9?$AAC?$AAN?$AA?$AA@ 000000018005b6b0     libucrt:mbctype.obj
 0002:0000c6c0       ??_C@_1M@JLOOOEGK@?$AAk?$AAo?$AA?9?$AAK?$AAR?$AA?$AA@ 000000018005b6c0     libucrt:mbctype.obj
 0002:0000c6d0       ??_C@_1M@CLNBBOPM@?$AAz?$AAh?$AA?9?$AAT?$AAW?$AA?$AA@ 000000018005b6d0     libucrt:mbctype.obj
 0002:0000c6dc       ??_C@_00CNPNBAHC@?$AA@     000000018005b6dc     libucrt:mbrtowc.obj
 0002:0000c6e0       __acrt_rg_language         000000018005b6e0     libucrt:get_qualified_locale.obj
 0002:0000caf0       __acrt_rg_language_count   000000018005baf0     libucrt:get_qualified_locale.obj
 0002:0000cb00       __acrt_rg_country          000000018005bb00     libucrt:get_qualified_locale.obj
 0002:0000cc70       __acrt_rg_country_count    000000018005bc70     libucrt:get_qualified_locale.obj
 0002:0000cc78       ??_C@_1BC@LLOKLNP@?$AAa?$AAm?$AAe?$AAr?$AAi?$AAc?$AAa?$AAn?$AA?$AA@ 000000018005bc78     libucrt:get_qualified_locale.obj
 0002:0000cc90       ??_C@_1CC@HEIGCDGG@?$AAa?$AAm?$AAe?$AAr?$AAi?$AAc?$AAa?$AAn?$AA?5?$AAe?$AAn?$AAg?$AAl?$AAi?$AAs?$AAh?$AA?$AA@ 000000018005bc90     libucrt:get_qualified_locale.obj
 0002:0000ccb8       ??_C@_1CC@IHCNOMIN@?$AAa?$AAm?$AAe?$AAr?$AAi?$AAc?$AAa?$AAn?$AA?9?$AAe?$AAn?$AAg?$AAl?$AAi?$AAs?$AAh?$AA?$AA@ 000000018005bcb8     libucrt:get_qualified_locale.obj
 0002:0000cce0       ??_C@_1BG@GKAGPCGG@?$AAa?$AAu?$AAs?$AAt?$AAr?$AAa?$AAl?$AAi?$AAa?$AAn?$AA?$AA@ 000000018005bce0     libucrt:get_qualified_locale.obj
 0002:0000ccf8       ??_C@_1BA@GMENCENF@?$AAb?$AAe?$AAl?$AAg?$AAi?$AAa?$AAn?$AA?$AA@ 000000018005bcf8     libucrt:get_qualified_locale.obj
 0002:0000cd08       ??_C@_1BC@PJMIIAAN@?$AAc?$AAa?$AAn?$AAa?$AAd?$AAi?$AAa?$AAn?$AA?$AA@ 000000018005bd08     libucrt:get_qualified_locale.obj
 0002:0000cd20       ??_C@_17NOIMNFBF@?$AAc?$AAh?$AAh?$AA?$AA@ 000000018005bd20     libucrt:get_qualified_locale.obj
 0002:0000cd28       ??_C@_17GGDALCHA@?$AAc?$AAh?$AAi?$AA?$AA@ 000000018005bd28     libucrt:get_qualified_locale.obj
 0002:0000cd30       ??_C@_1BA@NPNJKIBL@?$AAc?$AAh?$AAi?$AAn?$AAe?$AAs?$AAe?$AA?$AA@ 000000018005bd30     libucrt:get_qualified_locale.obj
 0002:0000cd40       ??_C@_1CC@DINBAMMJ@?$AAc?$AAh?$AAi?$AAn?$AAe?$AAs?$AAe?$AA?9?$AAh?$AAo?$AAn?$AAg?$AAk?$AAo?$AAn?$AAg?$AA?$AA@ 000000018005bd40     libucrt:get_qualified_locale.obj
 0002:0000cd68       ??_C@_1CG@IOBJPACO@?$AAc?$AAh?$AAi?$AAn?$AAe?$AAs?$AAe?$AA?9?$AAs?$AAi?$AAm?$AAp?$AAl?$AAi?$AAf?$AAi?$AAe?$AAd?$AA?$AA@ 000000018005bd68     libucrt:get_qualified_locale.obj
 0002:0000cd90       ??_C@_1CE@GAJNDCKG@?$AAc?$AAh?$AAi?$AAn?$AAe?$AAs?$AAe?$AA?9?$AAs?$AAi?$AAn?$AAg?$AAa?$AAp?$AAo?$AAr?$AAe?$AA?$AA@ 000000018005bd90     libucrt:get_qualified_locale.obj
 0002:0000cdb8       ??_C@_1CI@PAJPIOOD@?$AAc?$AAh?$AAi?$AAn?$AAe?$AAs?$AAe?$AA?9?$AAt?$AAr?$AAa?$AAd?$AAi?$AAt?$AAi?$AAo?$AAn?$AAa?$AAl?$AA?$AA@ 000000018005bdb8     libucrt:get_qualified_locale.obj
 0002:0000cde0       ??_C@_1BM@NILJBMMD@?$AAd?$AAu?$AAt?$AAc?$AAh?$AA?9?$AAb?$AAe?$AAl?$AAg?$AAi?$AAa?$AAn?$AA?$AA@ 000000018005bde0     libucrt:get_qualified_locale.obj
 0002:0000ce00       ??_C@_1CC@OOJPJNEJ@?$AAe?$AAn?$AAg?$AAl?$AAi?$AAs?$AAh?$AA?9?$AAa?$AAm?$AAe?$AAr?$AAi?$AAc?$AAa?$AAn?$AA?$AA@ 000000018005be00     libucrt:get_qualified_locale.obj
 0002:0000ce28       ??_C@_1BI@IOLFEEM@?$AAe?$AAn?$AAg?$AAl?$AAi?$AAs?$AAh?$AA?9?$AAa?$AAu?$AAs?$AA?$AA@ 000000018005be28     libucrt:get_qualified_locale.obj
 0002:0000ce40       ??_C@_1BO@HFFNLENJ@?$AAe?$AAn?$AAg?$AAl?$AAi?$AAs?$AAh?$AA?9?$AAb?$AAe?$AAl?$AAi?$AAz?$AAe?$AA?$AA@ 000000018005be40     libucrt:get_qualified_locale.obj
 0002:0000ce60       ??_C@_1BI@HAPKJMPO@?$AAe?$AAn?$AAg?$AAl?$AAi?$AAs?$AAh?$AA?9?$AAc?$AAa?$AAn?$AA?$AA@ 000000018005be60     libucrt:get_qualified_locale.obj
 0002:0000ce78       ??_C@_1CE@HLNDMIOJ@?$AAe?$AAn?$AAg?$AAl?$AAi?$AAs?$AAh?$AA?9?$AAc?$AAa?$AAr?$AAi?$AAb?$AAb?$AAe?$AAa?$AAn?$AA?$AA@ 000000018005be78     libucrt:get_qualified_locale.obj
 0002:0000cea0       ??_C@_1BI@LDHJHHAC@?$AAe?$AAn?$AAg?$AAl?$AAi?$AAs?$AAh?$AA?9?$AAi?$AAr?$AAe?$AA?$AA@ 000000018005bea0     libucrt:get_qualified_locale.obj
 0002:0000ceb8       ??_C@_1CA@NJMMCFOC@?$AAe?$AAn?$AAg?$AAl?$AAi?$AAs?$AAh?$AA?9?$AAj?$AAa?$AAm?$AAa?$AAi?$AAc?$AAa?$AA?$AA@ 000000018005beb8     libucrt:get_qualified_locale.obj
 0002:0000ced8       ??_C@_1BG@BHJEBBGG@?$AAe?$AAn?$AAg?$AAl?$AAi?$AAs?$AAh?$AA?9?$AAn?$AAz?$AA?$AA@ 000000018005bed8     libucrt:get_qualified_locale.obj
 0002:0000cef0       ??_C@_1CK@FGOEJJCO@?$AAe?$AAn?$AAg?$AAl?$AAi?$AAs?$AAh?$AA?9?$AAs?$AAo?$AAu?$AAt?$AAh?$AA?5?$AAa?$AAf?$AAr?$AAi?$AAc?$AAa?$AA?$AA@ 000000018005bef0     libucrt:get_qualified_locale.obj
 0002:0000cf20       ??_C@_1DE@PDBJPCJ@?$AAe?$AAn?$AAg?$AAl?$AAi?$AAs?$AAh?$AA?9?$AAt?$AAr?$AAi?$AAn?$AAi?$AAd?$AAa?$AAd?$AA?5?$AAy?$AA?5?$AAt?$AAo?$AAb?$AAa?$AAg?$AAo?$AA?$AA@ 000000018005bf20     libucrt:get_qualified_locale.obj
 0002:0000cf58       ??_C@_1BG@JGCANDME@?$AAe?$AAn?$AAg?$AAl?$AAi?$AAs?$AAh?$AA?9?$AAu?$AAk?$AA?$AA@ 000000018005bf58     libucrt:get_qualified_locale.obj
 0002:0000cf70       ??_C@_1BG@DINKMLE@?$AAe?$AAn?$AAg?$AAl?$AAi?$AAs?$AAh?$AA?9?$AAu?$AAs?$AA?$AA@ 000000018005bf70     libucrt:get_qualified_locale.obj
 0002:0000cf88       ??_C@_1BI@NMFDBHJE@?$AAe?$AAn?$AAg?$AAl?$AAi?$AAs?$AAh?$AA?9?$AAu?$AAs?$AAa?$AA?$AA@ 000000018005bf88     libucrt:get_qualified_locale.obj
 0002:0000cfa0       ??_C@_1BO@OIHKJKII@?$AAf?$AAr?$AAe?$AAn?$AAc?$AAh?$AA?9?$AAb?$AAe?$AAl?$AAg?$AAi?$AAa?$AAn?$AA?$AA@ 000000018005bfa0     libucrt:get_qualified_locale.obj
 0002:0000cfc0       ??_C@_1CA@NKAELJKI@?$AAf?$AAr?$AAe?$AAn?$AAc?$AAh?$AA?9?$AAc?$AAa?$AAn?$AAa?$AAd?$AAi?$AAa?$AAn?$AA?$AA@ 000000018005bfc0     libucrt:get_qualified_locale.obj
 0002:0000cfe0       ??_C@_1CE@MGKCNLGN@?$AAf?$AAr?$AAe?$AAn?$AAc?$AAh?$AA?9?$AAl?$AAu?$AAx?$AAe?$AAm?$AAb?$AAo?$AAu?$AAr?$AAg?$AA?$AA@ 000000018005bfe0     libucrt:get_qualified_locale.obj
 0002:0000d008       ??_C@_1BK@CEGEAILM@?$AAf?$AAr?$AAe?$AAn?$AAc?$AAh?$AA?9?$AAs?$AAw?$AAi?$AAs?$AAs?$AA?$AA@ 000000018005c008     libucrt:get_qualified_locale.obj
 0002:0000d028       ??_C@_1CA@PAFKEOCC@?$AAg?$AAe?$AAr?$AAm?$AAa?$AAn?$AA?9?$AAa?$AAu?$AAs?$AAt?$AAr?$AAi?$AAa?$AAn?$AA?$AA@ 000000018005c028     libucrt:get_qualified_locale.obj
 0002:0000d048       ??_C@_1CI@HCFHGOFD@?$AAg?$AAe?$AAr?$AAm?$AAa?$AAn?$AA?9?$AAl?$AAi?$AAc?$AAh?$AAt?$AAe?$AAn?$AAs?$AAt?$AAe?$AAi?$AAn?$AA?$AA@ 000000018005c048     libucrt:get_qualified_locale.obj
 0002:0000d070       ??_C@_1CE@FEDDNPDG@?$AAg?$AAe?$AAr?$AAm?$AAa?$AAn?$AA?9?$AAl?$AAu?$AAx?$AAe?$AAm?$AAb?$AAo?$AAu?$AAr?$AAg?$AA?$AA@ 000000018005c070     libucrt:get_qualified_locale.obj
 0002:0000d098       ??_C@_1BK@LIMINNMN@?$AAg?$AAe?$AAr?$AAm?$AAa?$AAn?$AA?9?$AAs?$AAw?$AAi?$AAs?$AAs?$AA?$AA@ 000000018005c098     libucrt:get_qualified_locale.obj
 0002:0000d0b8       ??_C@_1BM@LGMDBEPD@?$AAi?$AAr?$AAi?$AAs?$AAh?$AA?9?$AAe?$AAn?$AAg?$AAl?$AAi?$AAs?$AAh?$AA?$AA@ 000000018005c0b8     libucrt:get_qualified_locale.obj
 0002:0000d0d8       ??_C@_1BM@NNCFBAEE@?$AAi?$AAt?$AAa?$AAl?$AAi?$AAa?$AAn?$AA?9?$AAs?$AAw?$AAi?$AAs?$AAs?$AA?$AA@ 000000018005c0d8     libucrt:get_qualified_locale.obj
 0002:0000d0f8       ??_C@_1BE@FEDJNPIB@?$AAn?$AAo?$AAr?$AAw?$AAe?$AAg?$AAi?$AAa?$AAn?$AA?$AA@ 000000018005c0f8     libucrt:get_qualified_locale.obj
 0002:0000d110       ??_C@_1CC@CILKDEIE@?$AAn?$AAo?$AAr?$AAw?$AAe?$AAg?$AAi?$AAa?$AAn?$AA?9?$AAb?$AAo?$AAk?$AAm?$AAa?$AAl?$AA?$AA@ 000000018005c110     libucrt:get_qualified_locale.obj
 0002:0000d138       ??_C@_1CE@DHMMHEPL@?$AAn?$AAo?$AAr?$AAw?$AAe?$AAg?$AAi?$AAa?$AAn?$AA?9?$AAn?$AAy?$AAn?$AAo?$AAr?$AAs?$AAk?$AA?$AA@ 000000018005c138     libucrt:get_qualified_locale.obj
 0002:0000d160       ??_C@_1CK@OPNMHECD@?$AAp?$AAo?$AAr?$AAt?$AAu?$AAg?$AAu?$AAe?$AAs?$AAe?$AA?9?$AAb?$AAr?$AAa?$AAz?$AAi?$AAl?$AAi?$AAa?$AAn?$AA?$AA@ 000000018005c160     libucrt:get_qualified_locale.obj
 0002:0000d190       ??_C@_1CE@KEEHCDB@?$AAs?$AAp?$AAa?$AAn?$AAi?$AAs?$AAh?$AA?9?$AAa?$AAr?$AAg?$AAe?$AAn?$AAt?$AAi?$AAn?$AAa?$AA?$AA@ 000000018005c190     libucrt:get_qualified_locale.obj
 0002:0000d1b8       ??_C@_1CA@GIAOLHJD@?$AAs?$AAp?$AAa?$AAn?$AAi?$AAs?$AAh?$AA?9?$AAb?$AAo?$AAl?$AAi?$AAv?$AAi?$AAa?$AA?$AA@ 000000018005c1b8     libucrt:get_qualified_locale.obj
 0002:0000d1d8       ??_C@_1BM@OJNDFNPD@?$AAs?$AAp?$AAa?$AAn?$AAi?$AAs?$AAh?$AA?9?$AAc?$AAh?$AAi?$AAl?$AAe?$AA?$AA@ 000000018005c1d8     libucrt:get_qualified_locale.obj
 0002:0000d1f8       ??_C@_1CC@OCOLPALL@?$AAs?$AAp?$AAa?$AAn?$AAi?$AAs?$AAh?$AA?9?$AAc?$AAo?$AAl?$AAo?$AAm?$AAb?$AAi?$AAa?$AA?$AA@ 000000018005c1f8     libucrt:get_qualified_locale.obj
 0002:0000d220       ??_C@_1CG@BPOFMKBB@?$AAs?$AAp?$AAa?$AAn?$AAi?$AAs?$AAh?$AA?9?$AAc?$AAo?$AAs?$AAt?$AAa?$AA?5?$AAr?$AAi?$AAc?$AAa?$AA?$AA@ 000000018005c220     libucrt:get_qualified_locale.obj
 0002:0000d248       ??_C@_1DG@IGOBAPBB@?$AAs?$AAp?$AAa?$AAn?$AAi?$AAs?$AAh?$AA?9?$AAd?$AAo?$AAm?$AAi?$AAn?$AAi?$AAc?$AAa?$AAn?$AA?5?$AAr?$AAe?$AAp?$AAu?$AAb?$AAl?$AAi?$AAc?$AA?$AA@ 000000018005c248     libucrt:get_qualified_locale.obj
 0002:0000d280       ??_C@_1CA@JHAPGEGI@?$AAs?$AAp?$AAa?$AAn?$AAi?$AAs?$AAh?$AA?9?$AAe?$AAc?$AAu?$AAa?$AAd?$AAo?$AAr?$AA?$AA@ 000000018005c280     libucrt:get_qualified_locale.obj
 0002:0000d2a0       ??_C@_1CI@LAPALJPP@?$AAs?$AAp?$AAa?$AAn?$AAi?$AAs?$AAh?$AA?9?$AAe?$AAl?$AA?5?$AAs?$AAa?$AAl?$AAv?$AAa?$AAd?$AAo?$AAr?$AA?$AA@ 000000018005c2a0     libucrt:get_qualified_locale.obj
 0002:0000d2c8       ??_C@_1CE@PDGBOFOM@?$AAs?$AAp?$AAa?$AAn?$AAi?$AAs?$AAh?$AA?9?$AAg?$AAu?$AAa?$AAt?$AAe?$AAm?$AAa?$AAl?$AAa?$AA?$AA@ 000000018005c2c8     libucrt:get_qualified_locale.obj
 0002:0000d2f0       ??_C@_1CC@NBEBAODI@?$AAs?$AAp?$AAa?$AAn?$AAi?$AAs?$AAh?$AA?9?$AAh?$AAo?$AAn?$AAd?$AAu?$AAr?$AAa?$AAs?$AA?$AA@ 000000018005c2f0     libucrt:get_qualified_locale.obj
 0002:0000d318       ??_C@_1CA@LLKGHBMF@?$AAs?$AAp?$AAa?$AAn?$AAi?$AAs?$AAh?$AA?9?$AAm?$AAe?$AAx?$AAi?$AAc?$AAa?$AAn?$AA?$AA@ 000000018005c318     libucrt:get_qualified_locale.obj
 0002:0000d338       ??_C@_1BO@LKNDOIGD@?$AAs?$AAp?$AAa?$AAn?$AAi?$AAs?$AAh?$AA?9?$AAm?$AAo?$AAd?$AAe?$AAr?$AAn?$AA?$AA@ 000000018005c338     libucrt:get_qualified_locale.obj
 0002:0000d358       ??_C@_1CE@NMDMOEEB@?$AAs?$AAp?$AAa?$AAn?$AAi?$AAs?$AAh?$AA?9?$AAn?$AAi?$AAc?$AAa?$AAr?$AAa?$AAg?$AAu?$AAa?$AA?$AA@ 000000018005c358     libucrt:get_qualified_locale.obj
 0002:0000d380       ??_C@_1BO@LLCBEJGB@?$AAs?$AAp?$AAa?$AAn?$AAi?$AAs?$AAh?$AA?9?$AAp?$AAa?$AAn?$AAa?$AAm?$AAa?$AA?$AA@ 000000018005c380     libucrt:get_qualified_locale.obj
 0002:0000d3a0       ??_C@_1CC@FKPGGIHO@?$AAs?$AAp?$AAa?$AAn?$AAi?$AAs?$AAh?$AA?9?$AAp?$AAa?$AAr?$AAa?$AAg?$AAu?$AAa?$AAy?$AA?$AA@ 000000018005c3a0     libucrt:get_qualified_locale.obj
 0002:0000d3c8       ??_C@_1BK@CDEIHOOP@?$AAs?$AAp?$AAa?$AAn?$AAi?$AAs?$AAh?$AA?9?$AAp?$AAe?$AAr?$AAu?$AA?$AA@ 000000018005c3c8     libucrt:get_qualified_locale.obj
 0002:0000d3e8       ??_C@_1CI@GAHAKKGP@?$AAs?$AAp?$AAa?$AAn?$AAi?$AAs?$AAh?$AA?9?$AAp?$AAu?$AAe?$AAr?$AAt?$AAo?$AA?5?$AAr?$AAi?$AAc?$AAo?$AA?$AA@ 000000018005c3e8     libucrt:get_qualified_locale.obj
 0002:0000d410       ??_C@_1CA@NKJBCAGP@?$AAs?$AAp?$AAa?$AAn?$AAi?$AAs?$AAh?$AA?9?$AAu?$AAr?$AAu?$AAg?$AAu?$AAa?$AAy?$AA?$AA@ 000000018005c410     libucrt:get_qualified_locale.obj
 0002:0000d430       ??_C@_1CE@ODILCONM@?$AAs?$AAp?$AAa?$AAn?$AAi?$AAs?$AAh?$AA?9?$AAv?$AAe?$AAn?$AAe?$AAz?$AAu?$AAe?$AAl?$AAa?$AA?$AA@ 000000018005c430     libucrt:get_qualified_locale.obj
 0002:0000d458       ??_C@_1CA@OBNMCGFO@?$AAs?$AAw?$AAe?$AAd?$AAi?$AAs?$AAh?$AA?9?$AAf?$AAi?$AAn?$AAl?$AAa?$AAn?$AAd?$AA?$AA@ 000000018005c458     libucrt:get_qualified_locale.obj
 0002:0000d478       ??_C@_1M@PIPDDPPI@?$AAs?$AAw?$AAi?$AAs?$AAs?$AA?$AA@ 000000018005c478     libucrt:get_qualified_locale.obj
 0002:0000d484       ??_C@_15PJPFLCCM@?$AAu?$AAk?$AA?$AA@ 000000018005c484     libucrt:get_qualified_locale.obj
 0002:0000d48c       ??_C@_15GMFIMNFM@?$AAu?$AAs?$AA?$AA@ 000000018005c48c     libucrt:get_qualified_locale.obj
 0002:0000d498       ??_C@_17HAEBFAGL@?$AAu?$AAs?$AAa?$AA?$AA@ 000000018005c498     libucrt:get_qualified_locale.obj
 0002:0000d4a0       ??_C@_1BA@DPFJEPHB@?$AAa?$AAm?$AAe?$AAr?$AAi?$AAc?$AAa?$AA?$AA@ 000000018005c4a0     libucrt:get_qualified_locale.obj
 0002:0000d4b0       ??_C@_1BA@ELOGGFK@?$AAb?$AAr?$AAi?$AAt?$AAa?$AAi?$AAn?$AA?$AA@ 000000018005c4b0     libucrt:get_qualified_locale.obj
 0002:0000d4c0       ??_C@_1M@GHBGIGDA@?$AAc?$AAh?$AAi?$AAn?$AAa?$AA?$AA@ 000000018005c4c0     libucrt:get_qualified_locale.obj
 0002:0000d4d0       ??_C@_1M@NCHEJOPO@?$AAc?$AAz?$AAe?$AAc?$AAh?$AA?$AA@ 000000018005c4d0     libucrt:get_qualified_locale.obj
 0002:0000d4e0       ??_C@_1BA@BKPAPBLA@?$AAe?$AAn?$AAg?$AAl?$AAa?$AAn?$AAd?$AA?$AA@ 000000018005c4e0     libucrt:get_qualified_locale.obj
 0002:0000d4f0       ??_C@_1BM@HKBCKIPC@?$AAg?$AAr?$AAe?$AAa?$AAt?$AA?5?$AAb?$AAr?$AAi?$AAt?$AAa?$AAi?$AAn?$AA?$AA@ 000000018005c4f0     libucrt:get_qualified_locale.obj
 0002:0000d510       ??_C@_1BA@PPCHPGJB@?$AAh?$AAo?$AAl?$AAl?$AAa?$AAn?$AAd?$AA?$AA@ 000000018005c510     libucrt:get_qualified_locale.obj
 0002:0000d520       ??_C@_1BE@JBMPEGDG@?$AAh?$AAo?$AAn?$AAg?$AA?9?$AAk?$AAo?$AAn?$AAg?$AA?$AA@ 000000018005c520     libucrt:get_qualified_locale.obj
 0002:0000d538       ??_C@_1BI@KOELBBPJ@?$AAn?$AAe?$AAw?$AA?9?$AAz?$AAe?$AAa?$AAl?$AAa?$AAn?$AAd?$AA?$AA@ 000000018005c538     libucrt:get_qualified_locale.obj
 0002:0000d550       ??_C@_15HIEBHAIO@?$AAn?$AAz?$AA?$AA@ 000000018005c550     libucrt:get_qualified_locale.obj
 0002:0000d558       ??_C@_1BC@CHBCPFPI@?$AAp?$AAr?$AA?5?$AAc?$AAh?$AAi?$AAn?$AAa?$AA?$AA@ 000000018005c558     libucrt:get_qualified_locale.obj
 0002:0000d570       ??_C@_1BC@JAOIIFKD@?$AAp?$AAr?$AA?9?$AAc?$AAh?$AAi?$AAn?$AAa?$AA?$AA@ 000000018005c570     libucrt:get_qualified_locale.obj
 0002:0000d588       ??_C@_1BI@BEHPPHKC@?$AAp?$AAu?$AAe?$AAr?$AAt?$AAo?$AA?9?$AAr?$AAi?$AAc?$AAo?$AA?$AA@ 000000018005c588     libucrt:get_qualified_locale.obj
 0002:0000d5a0       ??_C@_1O@PAEOFKDI@?$AAs?$AAl?$AAo?$AAv?$AAa?$AAk?$AA?$AA@ 000000018005c5a0     libucrt:get_qualified_locale.obj
 0002:0000d5b0       ??_C@_1BK@FIHMCKAM@?$AAs?$AAo?$AAu?$AAt?$AAh?$AA?5?$AAa?$AAf?$AAr?$AAi?$AAc?$AAa?$AA?$AA@ 000000018005c5b0     libucrt:get_qualified_locale.obj
 0002:0000d5d0       ??_C@_1BI@NAEOODKB@?$AAs?$AAo?$AAu?$AAt?$AAh?$AA?5?$AAk?$AAo?$AAr?$AAe?$AAa?$AA?$AA@ 000000018005c5d0     libucrt:get_qualified_locale.obj
 0002:0000d5e8       ??_C@_1BK@FBDGGIFF@?$AAs?$AAo?$AAu?$AAt?$AAh?$AA?9?$AAa?$AAf?$AAr?$AAi?$AAc?$AAa?$AA?$AA@ 000000018005c5e8     libucrt:get_qualified_locale.obj
 0002:0000d608       ??_C@_1BI@GHLEJDPK@?$AAs?$AAo?$AAu?$AAt?$AAh?$AA?9?$AAk?$AAo?$AAr?$AAe?$AAa?$AA?$AA@ 000000018005c608     libucrt:get_qualified_locale.obj
 0002:0000d620       ??_C@_1CE@PLHLOMJF@?$AAt?$AAr?$AAi?$AAn?$AAi?$AAd?$AAa?$AAd?$AA?5?$AA?$CG?$AA?5?$AAt?$AAo?$AAb?$AAa?$AAg?$AAo?$AA?$AA@ 000000018005c620     libucrt:get_qualified_locale.obj
 0002:0000d648       ??_C@_1BO@MODIMHHI@?$AAu?$AAn?$AAi?$AAt?$AAe?$AAd?$AA?9?$AAk?$AAi?$AAn?$AAg?$AAd?$AAo?$AAm?$AA?$AA@ 000000018005c648     libucrt:get_qualified_locale.obj
 0002:0000d668       ??_C@_1BM@FFHJONBJ@?$AAu?$AAn?$AAi?$AAt?$AAe?$AAd?$AA?9?$AAs?$AAt?$AAa?$AAt?$AAe?$AAs?$AA?$AA@ 000000018005c668     libucrt:get_qualified_locale.obj
 0002:0000d688       ??_C@_17DNCLJFIF@?$AAA?$AAC?$AAP?$AA?$AA@ 000000018005c688     libucrt:get_qualified_locale.obj
 0002:0000d690       ??_C@_17CIKBIHLH@?$AAO?$AAC?$AAP?$AA?$AA@ 000000018005c690     libucrt:get_qualified_locale.obj
 0002:0000d698       __rglangidNotDefault       000000018005c698     libucrt:getqloc_downlevel.obj
 0002:0000d6ac       ??_C@_01GBGANLPD@0?$AA@    000000018005c6ac     libucrt:cfout.obj
 0002:0000d6b0       ??_C@_05DNEBIAHO@1?$CDINF?$AA@ 000000018005c6b0     libucrt:cfout.obj
 0002:0000d6b8       ??_C@_06IMKFLFPG@1?$CDQNAN?$AA@ 000000018005c6b8     libucrt:cfout.obj
 0002:0000d6c0       ??_C@_06PGGFOGJG@1?$CDSNAN?$AA@ 000000018005c6c0     libucrt:cfout.obj
 0002:0000d6c8       ??_C@_05PHHOCPM@1?$CDIND?$AA@ 000000018005c6c8     libucrt:cfout.obj
 0002:0000e510       ??_C@_15EMKDOKLE@?$AAa?$AAr?$AA?$AA@ 000000018005d510     libucrt:lcidtoname_downlevel.obj
 0002:0000e518       ??_C@_15KNPADPLH@?$AAb?$AAg?$AA?$AA@ 000000018005d518     libucrt:lcidtoname_downlevel.obj
 0002:0000e520       ??_C@_15EDMHLDMO@?$AAc?$AAa?$AA?$AA@ 000000018005d520     libucrt:lcidtoname_downlevel.obj
 0002:0000e528       ??_C@_1O@BPEAJADD@?$AAz?$AAh?$AA?9?$AAC?$AAH?$AAS?$AA?$AA@ 000000018005d528     libucrt:lcidtoname_downlevel.obj
 0002:0000e538       ??_C@_15LJNHCMNK@?$AAc?$AAs?$AA?$AA@ 000000018005d538     libucrt:lcidtoname_downlevel.obj
 0002:0000e540       ??_C@_15FOMCIDHG@?$AAd?$AAa?$AA?$AA@ 000000018005d540     libucrt:lcidtoname_downlevel.obj
 0002:0000e548       ??_C@_15NBKABECB@?$AAd?$AAe?$AA?$AA@ 000000018005d548     libucrt:lcidtoname_downlevel.obj
 0002:0000e550       ??_C@_15GHPEIIAO@?$AAe?$AAl?$AA?$AA@ 000000018005d550     libucrt:lcidtoname_downlevel.obj
 0002:0000e558       ??_C@_15MNPNEAIF@?$AAe?$AAn?$AA?$AA@ 000000018005d558     libucrt:lcidtoname_downlevel.obj
 0002:0000e560       ??_C@_15GPIOMPMH@?$AAe?$AAs?$AA?$AA@ 000000018005d560     libucrt:lcidtoname_downlevel.obj
 0002:0000e568       ??_C@_15NGLOAKJC@?$AAf?$AAi?$AA?$AA@ 000000018005d568     libucrt:lcidtoname_downlevel.obj
 0002:0000e570       ??_C@_15FBKGNKAM@?$AAf?$AAr?$AA?$AA@ 000000018005d570     libucrt:lcidtoname_downlevel.obj
 0002:0000e578       ??_C@_15KGGCNEFK@?$AAh?$AAe?$AA?$AA@ 000000018005d578     libucrt:lcidtoname_downlevel.obj
 0002:0000e580       ??_C@_15PGHLIDMF@?$AAh?$AAu?$AA?$AA@ 000000018005d580     libucrt:lcidtoname_downlevel.obj
 0002:0000e588       ??_C@_15BIEMAPLM@?$AAi?$AAs?$AA?$AA@ 000000018005d588     libucrt:lcidtoname_downlevel.obj
 0002:0000e590       ??_C@_15IFJLDHAF@?$AAi?$AAt?$AA?$AA@ 000000018005d590     libucrt:lcidtoname_downlevel.obj
 0002:0000e598       ??_C@_15GEMIOCAG@?$AAj?$AAa?$AA?$AA@ 000000018005d598     libucrt:lcidtoname_downlevel.obj
 0002:0000e5a0       ??_C@_15EPELEGJA@?$AAk?$AAo?$AA?$AA@ 000000018005d5a0     libucrt:lcidtoname_downlevel.obj
 0002:0000e5a8       ??_C@_15NDDHIMN@?$AAn?$AAl?$AA?$AA@ 000000018005d5a8     libucrt:lcidtoname_downlevel.obj
 0002:0000e5b0       ??_C@_15BPIGNHCD@?$AAn?$AAo?$AA?$AA@ 000000018005d5b0     libucrt:lcidtoname_downlevel.obj
 0002:0000e5b8       ??_C@_15DEOPBLCG@?$AAp?$AAl?$AA?$AA@ 000000018005d5b8     libucrt:lcidtoname_downlevel.obj
 0002:0000e5c0       ??_C@_15KBECGEFG@?$AAp?$AAt?$AA?$AA@ 000000018005d5c0     libucrt:lcidtoname_downlevel.obj
 0002:0000e5c8       ??_C@_15GLJCBFMD@?$AAr?$AAo?$AA?$AA@ 000000018005d5c8     libucrt:lcidtoname_downlevel.obj
 0002:0000e5d0       ??_C@_15FEDGKCDI@?$AAr?$AAu?$AA?$AA@ 000000018005d5d0     libucrt:lcidtoname_downlevel.obj
 0002:0000e5d8       ??_C@_15GLKMLLHM@?$AAh?$AAr?$AA?$AA@ 000000018005d5d8     libucrt:lcidtoname_downlevel.obj
 0002:0000e5e0       ??_C@_15CPKMFBDB@?$AAs?$AAk?$AA?$AA@ 000000018005d5e0     libucrt:lcidtoname_downlevel.obj
 0002:0000e5e8       ??_C@_15BAAIOGMK@?$AAs?$AAq?$AA?$AA@ 000000018005d5e8     libucrt:lcidtoname_downlevel.obj
 0002:0000e5f0       ??_C@_15INNPNOHD@?$AAs?$AAv?$AA?$AA@ 000000018005d5f0     libucrt:lcidtoname_downlevel.obj
 0002:0000e5f8       ??_C@_15CABMMOGH@?$AAt?$AAh?$AA?$AA@ 000000018005d5f8     libucrt:lcidtoname_downlevel.obj
 0002:0000e600       ??_C@_15BPLIHJJM@?$AAt?$AAr?$AA?$AA@ 000000018005d600     libucrt:lcidtoname_downlevel.obj
 0002:0000e608       ??_C@_15NEOEKKDJ@?$AAu?$AAr?$AA?$AA@ 000000018005d608     libucrt:lcidtoname_downlevel.obj
 0002:0000e610       ??_C@_15NFICGAJK@?$AAi?$AAd?$AA?$AA@ 000000018005d610     libucrt:lcidtoname_downlevel.obj
 0002:0000e618       ??_C@_15HPJPHDM@?$AAb?$AAe?$AA?$AA@ 000000018005d618     libucrt:lcidtoname_downlevel.obj
 0002:0000e620       ??_C@_15LCHLGJII@?$AAs?$AAl?$AA?$AA@ 000000018005d620     libucrt:lcidtoname_downlevel.obj
 0002:0000e628       ??_C@_15PCFJPHHO@?$AAe?$AAt?$AA?$AA@ 000000018005d628     libucrt:lcidtoname_downlevel.obj
 0002:0000e630       ??_C@_15HPFPGODN@?$AAl?$AAv?$AA?$AA@ 000000018005d630     libucrt:lcidtoname_downlevel.obj
 0002:0000e638       ??_C@_15NFFGKGLG@?$AAl?$AAt?$AA?$AA@ 000000018005d638     libucrt:lcidtoname_downlevel.obj
 0002:0000e640       ??_C@_15BDAKCCHN@?$AAf?$AAa?$AA?$AA@ 000000018005d640     libucrt:lcidtoname_downlevel.obj
 0002:0000e648       ??_C@_15NFGIAIAJ@?$AAv?$AAi?$AA?$AA@ 000000018005d648     libucrt:lcidtoname_downlevel.obj
 0002:0000e650       ??_C@_15LMKNDMHN@?$AAh?$AAy?$AA?$AA@ 000000018005d650     libucrt:lcidtoname_downlevel.obj
 0002:0000e658       ??_C@_15IJBHMCFL@?$AAa?$AAz?$AA?$AA@ 000000018005d658     libucrt:lcidtoname_downlevel.obj
 0002:0000e660       ??_C@_15EKOFJABL@?$AAe?$AAu?$AA?$AA@ 000000018005d660     libucrt:lcidtoname_downlevel.obj
 0002:0000e668       ??_C@_15BGHADCNK@?$AAm?$AAk?$AA?$AA@ 000000018005d668     libucrt:lcidtoname_downlevel.obj
 0002:0000e670       ??_C@_15JDNICKHM@?$AAa?$AAf?$AA?$AA@ 000000018005d670     libucrt:lcidtoname_downlevel.obj
 0002:0000e678       ??_C@_15KPJEDBKD@?$AAk?$AAa?$AA?$AA@ 000000018005d678     libucrt:lcidtoname_downlevel.obj
 0002:0000e680       ??_C@_15PDNFFFEO@?$AAf?$AAo?$AA?$AA@ 000000018005d680     libucrt:lcidtoname_downlevel.obj
 0002:0000e688       ??_C@_15OMLEGLOC@?$AAh?$AAi?$AA?$AA@ 000000018005d688     libucrt:lcidtoname_downlevel.obj
 0002:0000e690       ??_C@_15IDNNENKK@?$AAm?$AAs?$AA?$AA@ 000000018005d690     libucrt:lcidtoname_downlevel.obj
 0002:0000e698       ??_C@_15MACJNBMH@?$AAk?$AAk?$AA?$AA@ 000000018005d698     libucrt:lcidtoname_downlevel.obj
 0002:0000e6a0       ??_C@_15DKDJEOND@?$AAk?$AAy?$AA?$AA@ 000000018005d6a0     libucrt:lcidtoname_downlevel.obj
 0002:0000e6a8       ??_C@_15DFGDLJBG@?$AAs?$AAw?$AA?$AA@ 000000018005d6a8     libucrt:lcidtoname_downlevel.obj
 0002:0000e6b0       ??_C@_15BBFAICNG@?$AAu?$AAz?$AA?$AA@ 000000018005d6b0     libucrt:lcidtoname_downlevel.obj
 0002:0000e6b8       ??_C@_15DKNDCGEA@?$AAt?$AAt?$AA?$AA@ 000000018005d6b8     libucrt:lcidtoname_downlevel.obj
 0002:0000e6c0       ??_C@_15MGIFMDPL@?$AAp?$AAa?$AA?$AA@ 000000018005d6c0     libucrt:lcidtoname_downlevel.obj
 0002:0000e6c8       ??_C@_15HCNDBBA@?$AAg?$AAu?$AA?$AA@ 000000018005d6c8     libucrt:lcidtoname_downlevel.obj
 0002:0000e6d0       ??_C@_15FNBEIBON@?$AAt?$AAa?$AA?$AA@ 000000018005d6d0     libucrt:lcidtoname_downlevel.obj
 0002:0000e6d8       ??_C@_15NCHGBGLK@?$AAt?$AAe?$AA?$AA@ 000000018005d6d8     libucrt:lcidtoname_downlevel.obj
 0002:0000e6e0       ??_C@_15PHPHCBPF@?$AAk?$AAn?$AA?$AA@ 000000018005d6e0     libucrt:lcidtoname_downlevel.obj
 0002:0000e6e8       ??_C@_15DLGBCKMP@?$AAm?$AAr?$AA?$AA@ 000000018005d6e8     libucrt:lcidtoname_downlevel.obj
 0002:0000e6f0       ??_C@_15EABBLBFF@?$AAs?$AAa?$AA?$AA@ 000000018005d6f0     libucrt:lcidtoname_downlevel.obj
 0002:0000e6f8       ??_C@_15CBKOMCOI@?$AAm?$AAn?$AA?$AA@ 000000018005d6f8     libucrt:lcidtoname_downlevel.obj
 0002:0000e700       ??_C@_15CKDMCJAF@?$AAg?$AAl?$AA?$AA@ 000000018005d700     libucrt:lcidtoname_downlevel.obj
 0002:0000e708       ??_C@_17CNJFBPG@?$AAk?$AAo?$AAk?$AA?$AA@ 000000018005d708     libucrt:lcidtoname_downlevel.obj
 0002:0000e710       ??_C@_17FFBJICPL@?$AAs?$AAy?$AAr?$AA?$AA@ 000000018005d710     libucrt:lcidtoname_downlevel.obj
 0002:0000e718       ??_C@_17KPNDCPAF@?$AAd?$AAi?$AAv?$AA?$AA@ 000000018005d718     libucrt:lcidtoname_downlevel.obj
 0002:0000e720       ??_C@_11LOCGONAA@?$AA?$AA@ 000000018005d720     libucrt:lcidtoname_downlevel.obj
 0002:0000e728       ??_C@_1M@OKAHONE@?$AAa?$AAr?$AA?9?$AAS?$AAA?$AA?$AA@ 000000018005d728     libucrt:lcidtoname_downlevel.obj
 0002:0000e738       ??_C@_1M@FFFIGIGK@?$AAb?$AAg?$AA?9?$AAB?$AAG?$AA?$AA@ 000000018005d738     libucrt:lcidtoname_downlevel.obj
 0002:0000e748       ??_C@_1M@BJNKEDC@?$AAc?$AAa?$AA?9?$AAE?$AAS?$AA?$AA@ 000000018005d748     libucrt:lcidtoname_downlevel.obj
 0002:0000e758       ??_C@_1M@IJJHFJHA@?$AAc?$AAs?$AA?9?$AAC?$AAZ?$AA?$AA@ 000000018005d758     libucrt:lcidtoname_downlevel.obj
 0002:0000e768       ??_C@_1M@CLPEOBGI@?$AAd?$AAa?$AA?9?$AAD?$AAK?$AA?$AA@ 000000018005d768     libucrt:lcidtoname_downlevel.obj
 0002:0000e778       ??_C@_1M@MCMADGCB@?$AAd?$AAe?$AA?9?$AAD?$AAE?$AA?$AA@ 000000018005d778     libucrt:lcidtoname_downlevel.obj
 0002:0000e788       ??_C@_1M@OOCKEMAM@?$AAe?$AAl?$AA?9?$AAG?$AAR?$AA?$AA@ 000000018005d788     libucrt:lcidtoname_downlevel.obj
 0002:0000e798       ??_C@_1M@DDNJFGID@?$AAf?$AAi?$AA?9?$AAF?$AAI?$AA?$AA@ 000000018005d798     libucrt:lcidtoname_downlevel.obj
 0002:0000e7a8       ??_C@_1M@GLIPPMAC@?$AAf?$AAr?$AA?9?$AAF?$AAR?$AA?$AA@ 000000018005d7a8     libucrt:lcidtoname_downlevel.obj
 0002:0000e7b8       ??_C@_1M@GFMCHPE@?$AAh?$AAe?$AA?9?$AAI?$AAL?$AA?$AA@ 000000018005d7b8     libucrt:lcidtoname_downlevel.obj
 0002:0000e7c8       ??_C@_1M@MHLPGNKM@?$AAh?$AAu?$AA?9?$AAH?$AAU?$AA?$AA@ 000000018005d7c8     libucrt:lcidtoname_downlevel.obj
 0002:0000e7d8       ??_C@_1M@LPDDNNPN@?$AAi?$AAs?$AA?9?$AAI?$AAS?$AA?$AA@ 000000018005d7d8     libucrt:lcidtoname_downlevel.obj
 0002:0000e7e8       ??_C@_1M@MADIPODN@?$AAi?$AAt?$AA?9?$AAI?$AAT?$AA?$AA@ 000000018005d7e8     libucrt:lcidtoname_downlevel.obj
 0002:0000e7f8       ??_C@_1M@IHBJJGG@?$AAn?$AAl?$AA?9?$AAN?$AAL?$AA?$AA@ 000000018005d7f8     libucrt:lcidtoname_downlevel.obj
 0002:0000e808       ??_C@_1M@EANAGDL@?$AAn?$AAb?$AA?9?$AAN?$AAO?$AA?$AA@ 000000018005d808     libucrt:lcidtoname_downlevel.obj
 0002:0000e818       ??_C@_1M@NEIEMEGP@?$AAp?$AAl?$AA?9?$AAP?$AAL?$AA?$AA@ 000000018005d818     libucrt:lcidtoname_downlevel.obj
 0002:0000e828       ??_C@_1M@BOCFIGEP@?$AAp?$AAt?$AA?9?$AAB?$AAR?$AA?$AA@ 000000018005d828     libucrt:lcidtoname_downlevel.obj
 0002:0000e838       ??_C@_1M@IMPFOPBG@?$AAr?$AAo?$AA?9?$AAR?$AAO?$AA?$AA@ 000000018005d838     libucrt:lcidtoname_downlevel.obj
 0002:0000e848       ??_C@_1M@IDNNEJMM@?$AAr?$AAu?$AA?9?$AAR?$AAU?$AA?$AA@ 000000018005d848     libucrt:lcidtoname_downlevel.obj
 0002:0000e858       ??_C@_1M@LILEEOGM@?$AAh?$AAr?$AA?9?$AAH?$AAR?$AA?$AA@ 000000018005d858     libucrt:lcidtoname_downlevel.obj
 0002:0000e868       ??_C@_1M@FKIFEHPB@?$AAs?$AAk?$AA?9?$AAS?$AAK?$AA?$AA@ 000000018005d868     libucrt:lcidtoname_downlevel.obj
 0002:0000e878       ??_C@_1M@LJMAMNPJ@?$AAs?$AAq?$AA?9?$AAA?$AAL?$AA?$AA@ 000000018005d878     libucrt:lcidtoname_downlevel.obj
 0002:0000e888       ??_C@_1M@GIAKDKJK@?$AAs?$AAv?$AA?9?$AAS?$AAE?$AA?$AA@ 000000018005d888     libucrt:lcidtoname_downlevel.obj
 0002:0000e898       ??_C@_1M@MKJKIKCL@?$AAt?$AAh?$AA?9?$AAT?$AAH?$AA?$AA@ 000000018005d898     libucrt:lcidtoname_downlevel.obj
 0002:0000e8a8       ??_C@_1M@MFLCCMPB@?$AAt?$AAr?$AA?9?$AAT?$AAR?$AA?$AA@ 000000018005d8a8     libucrt:lcidtoname_downlevel.obj
 0002:0000e8b8       ??_C@_1M@OIJHDKJN@?$AAu?$AAr?$AA?9?$AAP?$AAK?$AA?$AA@ 000000018005d8b8     libucrt:lcidtoname_downlevel.obj
 0002:0000e8c8       ??_C@_1M@LHIPCIEK@?$AAi?$AAd?$AA?9?$AAI?$AAD?$AA?$AA@ 000000018005d8c8     libucrt:lcidtoname_downlevel.obj
 0002:0000e8d8       ??_C@_1M@MFMOBGI@?$AAu?$AAk?$AA?9?$AAU?$AAA?$AA?$AA@ 000000018005d8d8     libucrt:lcidtoname_downlevel.obj
 0002:0000e8e8       ??_C@_1M@OBGLJIPL@?$AAb?$AAe?$AA?9?$AAB?$AAY?$AA?$AA@ 000000018005d8e8     libucrt:lcidtoname_downlevel.obj
 0002:0000e8f8       ??_C@_1M@BCFAJEAD@?$AAs?$AAl?$AA?9?$AAS?$AAI?$AA?$AA@ 000000018005d8f8     libucrt:lcidtoname_downlevel.obj
 0002:0000e908       ??_C@_1M@FKFFEDDN@?$AAe?$AAt?$AA?9?$AAE?$AAE?$AA?$AA@ 000000018005d908     libucrt:lcidtoname_downlevel.obj
 0002:0000e918       ??_C@_1M@KGKKAACI@?$AAl?$AAv?$AA?9?$AAL?$AAV?$AA?$AA@ 000000018005d918     libucrt:lcidtoname_downlevel.obj
 0002:0000e928       ??_C@_1M@IFGBIJO@?$AAl?$AAt?$AA?9?$AAL?$AAT?$AA?$AA@ 000000018005d928     libucrt:lcidtoname_downlevel.obj
 0002:0000e938       ??_C@_1M@FGEAHEDM@?$AAf?$AAa?$AA?9?$AAI?$AAR?$AA?$AA@ 000000018005d938     libucrt:lcidtoname_downlevel.obj
 0002:0000e948       ??_C@_1M@KBMAIBFN@?$AAv?$AAi?$AA?9?$AAV?$AAN?$AA?$AA@ 000000018005d948     libucrt:lcidtoname_downlevel.obj
 0002:0000e958       ??_C@_1M@GPCBKDJK@?$AAh?$AAy?$AA?9?$AAA?$AAM?$AA?$AA@ 000000018005d958     libucrt:lcidtoname_downlevel.obj
 0002:0000e968       ??_C@_1BG@BECMDDJB@?$AAa?$AAz?$AA?9?$AAA?$AAZ?$AA?9?$AAL?$AAa?$AAt?$AAn?$AA?$AA@ 000000018005d968     libucrt:lcidtoname_downlevel.obj
 0002:0000e980       ??_C@_1M@MAOFCAEA@?$AAe?$AAu?$AA?9?$AAE?$AAS?$AA?$AA@ 000000018005d980     libucrt:lcidtoname_downlevel.obj
 0002:0000e990       ??_C@_1M@IGHABKPI@?$AAm?$AAk?$AA?9?$AAM?$AAK?$AA?$AA@ 000000018005d990     libucrt:lcidtoname_downlevel.obj
 0002:0000e9a0       ??_C@_1M@IAIGNEJG@?$AAt?$AAn?$AA?9?$AAZ?$AAA?$AA?$AA@ 000000018005d9a0     libucrt:lcidtoname_downlevel.obj
 0002:0000e9b0       ??_C@_1M@IIJCOJFA@?$AAx?$AAh?$AA?9?$AAZ?$AAA?$AA?$AA@ 000000018005d9b0     libucrt:lcidtoname_downlevel.obj
 0002:0000e9c0       ??_C@_1M@LGPJHNJH@?$AAz?$AAu?$AA?9?$AAZ?$AAA?$AA?$AA@ 000000018005d9c0     libucrt:lcidtoname_downlevel.obj
 0002:0000e9d0       ??_C@_1M@HOKAOIO@?$AAa?$AAf?$AA?9?$AAZ?$AAA?$AA?$AA@ 000000018005d9d0     libucrt:lcidtoname_downlevel.obj
 0002:0000e9e0       ??_C@_1M@DPCLHLIE@?$AAk?$AAa?$AA?9?$AAG?$AAE?$AA?$AA@ 000000018005d9e0     libucrt:lcidtoname_downlevel.obj
 0002:0000e9f0       ??_C@_1M@BLKMHJBI@?$AAf?$AAo?$AA?9?$AAF?$AAO?$AA?$AA@ 000000018005d9f0     libucrt:lcidtoname_downlevel.obj
 0002:0000ea00       ??_C@_1M@LGGJAPPB@?$AAh?$AAi?$AA?9?$AAI?$AAN?$AA?$AA@ 000000018005da00     libucrt:lcidtoname_downlevel.obj
 0002:0000ea10       ??_C@_1M@FIKPIHFE@?$AAm?$AAt?$AA?9?$AAM?$AAT?$AA?$AA@ 000000018005da10     libucrt:lcidtoname_downlevel.obj
 0002:0000ea20       ??_C@_1M@HEGGPBFA@?$AAs?$AAe?$AA?9?$AAN?$AAO?$AA?$AA@ 000000018005da20     libucrt:lcidtoname_downlevel.obj
 0002:0000ea30       ??_C@_1M@EIBJEEPA@?$AAm?$AAs?$AA?9?$AAM?$AAY?$AA?$AA@ 000000018005da30     libucrt:lcidtoname_downlevel.obj
 0002:0000ea40       ??_C@_1M@FHLBGMPP@?$AAk?$AAk?$AA?9?$AAK?$AAZ?$AA?$AA@ 000000018005da40     libucrt:lcidtoname_downlevel.obj
 0002:0000ea50       ??_C@_1M@NGJJLCGI@?$AAk?$AAy?$AA?9?$AAK?$AAG?$AA?$AA@ 000000018005da50     libucrt:lcidtoname_downlevel.obj
 0002:0000ea60       ??_C@_1M@GIENNBFC@?$AAs?$AAw?$AA?9?$AAK?$AAE?$AA?$AA@ 000000018005da60     libucrt:lcidtoname_downlevel.obj
 0002:0000ea70       ??_C@_1BG@NDGMJIMJ@?$AAu?$AAz?$AA?9?$AAU?$AAZ?$AA?9?$AAL?$AAa?$AAt?$AAn?$AA?$AA@ 000000018005da70     libucrt:lcidtoname_downlevel.obj
 0002:0000ea88       ??_C@_1M@IDCCIHBC@?$AAt?$AAt?$AA?9?$AAR?$AAU?$AA?$AA@ 000000018005da88     libucrt:lcidtoname_downlevel.obj
 0002:0000ea98       ??_C@_1M@LOICPMOJ@?$AAb?$AAn?$AA?9?$AAI?$AAN?$AA?$AA@ 000000018005da98     libucrt:lcidtoname_downlevel.obj
 0002:0000eaa8       ??_C@_1M@KPKKNEAH@?$AAp?$AAa?$AA?9?$AAI?$AAN?$AA?$AA@ 000000018005daa8     libucrt:lcidtoname_downlevel.obj
 0002:0000eab8       ??_C@_1M@PJGPPBOG@?$AAg?$AAu?$AA?9?$AAI?$AAN?$AA?$AA@ 000000018005dab8     libucrt:lcidtoname_downlevel.obj
 0002:0000eac8       ??_C@_1M@KMKMOPHI@?$AAt?$AAa?$AA?9?$AAI?$AAN?$AA?$AA@ 000000018005dac8     libucrt:lcidtoname_downlevel.obj
 0002:0000ead8       ??_C@_1M@KFEHEPAC@?$AAt?$AAe?$AA?9?$AAI?$AAN?$AA?$AA@ 000000018005dad8     libucrt:lcidtoname_downlevel.obj
 0002:0000eae8       ??_C@_1M@CDCLMGHI@?$AAk?$AAn?$AA?9?$AAI?$AAN?$AA?$AA@ 000000018005dae8     libucrt:lcidtoname_downlevel.obj
 0002:0000eaf8       ??_C@_1M@MIODLDKF@?$AAm?$AAl?$AA?9?$AAI?$AAN?$AA?$AA@ 000000018005daf8     libucrt:lcidtoname_downlevel.obj
 0002:0000eb08       ??_C@_1M@PBIEACPO@?$AAm?$AAr?$AA?9?$AAI?$AAN?$AA?$AA@ 000000018005db08     libucrt:lcidtoname_downlevel.obj
 0002:0000eb18       ??_C@_1M@NIDEAGPH@?$AAs?$AAa?$AA?9?$AAI?$AAN?$AA?$AA@ 000000018005db18     libucrt:lcidtoname_downlevel.obj
 0002:0000eb28       ??_C@_1M@FHIHCBIO@?$AAm?$AAn?$AA?9?$AAM?$AAN?$AA?$AA@ 000000018005db28     libucrt:lcidtoname_downlevel.obj
 0002:0000eb38       ??_C@_1M@JAIJPENP@?$AAc?$AAy?$AA?9?$AAG?$AAB?$AA?$AA@ 000000018005db38     libucrt:lcidtoname_downlevel.obj
 0002:0000eb48       ??_C@_1M@PHGFBEPN@?$AAg?$AAl?$AA?9?$AAE?$AAS?$AA?$AA@ 000000018005db48     libucrt:lcidtoname_downlevel.obj
 0002:0000eb58       ??_C@_1O@KPIPDNCP@?$AAk?$AAo?$AAk?$AA?9?$AAI?$AAN?$AA?$AA@ 000000018005db58     libucrt:lcidtoname_downlevel.obj
 0002:0000eb68       ??_C@_1O@KNHJLDJA@?$AAs?$AAy?$AAr?$AA?9?$AAS?$AAY?$AA?$AA@ 000000018005db68     libucrt:lcidtoname_downlevel.obj
 0002:0000eb78       ??_C@_1O@MKEKBLAH@?$AAd?$AAi?$AAv?$AA?9?$AAM?$AAV?$AA?$AA@ 000000018005db78     libucrt:lcidtoname_downlevel.obj
 0002:0000eb88       ??_C@_1O@OHDCKDDF@?$AAq?$AAu?$AAz?$AA?9?$AAB?$AAO?$AA?$AA@ 000000018005db88     libucrt:lcidtoname_downlevel.obj
 0002:0000eb98       ??_C@_1M@LEPJNLFD@?$AAn?$AAs?$AA?9?$AAZ?$AAA?$AA?$AA@ 000000018005db98     libucrt:lcidtoname_downlevel.obj
 0002:0000eba8       ??_C@_1M@OMLEIIJB@?$AAm?$AAi?$AA?9?$AAN?$AAZ?$AA?$AA@ 000000018005dba8     libucrt:lcidtoname_downlevel.obj
 0002:0000ebb8       ??_C@_1M@PMPEAILG@?$AAa?$AAr?$AA?9?$AAI?$AAQ?$AA?$AA@ 000000018005dbb8     libucrt:lcidtoname_downlevel.obj
 0002:0000ebc8       ??_C@_1M@CNKPNOEE@?$AAd?$AAe?$AA?9?$AAC?$AAH?$AA?$AA@ 000000018005dbc8     libucrt:lcidtoname_downlevel.obj
 0002:0000ebd8       ??_C@_1M@LKMGMLKO@?$AAe?$AAn?$AA?9?$AAG?$AAB?$AA?$AA@ 000000018005dbd8     libucrt:lcidtoname_downlevel.obj
 0002:0000ebe8       ??_C@_1M@PGKJFFGL@?$AAe?$AAs?$AA?9?$AAM?$AAX?$AA?$AA@ 000000018005dbe8     libucrt:lcidtoname_downlevel.obj
 0002:0000ebf8       ??_C@_1M@DNNANBDC@?$AAf?$AAr?$AA?9?$AAB?$AAE?$AA?$AA@ 000000018005dbf8     libucrt:lcidtoname_downlevel.obj
 0002:0000ec08       ??_C@_1M@HLGMDFHM@?$AAi?$AAt?$AA?9?$AAC?$AAH?$AA?$AA@ 000000018005dc08     libucrt:lcidtoname_downlevel.obj
 0002:0000ec18       ??_C@_1M@CLLBGJH@?$AAn?$AAl?$AA?9?$AAB?$AAE?$AA?$AA@ 000000018005dc18     libucrt:lcidtoname_downlevel.obj
 0002:0000ec28       ??_C@_1M@BODBOGLF@?$AAn?$AAn?$AA?9?$AAN?$AAO?$AA?$AA@ 000000018005dc28     libucrt:lcidtoname_downlevel.obj
 0002:0000ec38       ??_C@_1M@HFFAHKAD@?$AAp?$AAt?$AA?9?$AAP?$AAT?$AA?$AA@ 000000018005dc38     libucrt:lcidtoname_downlevel.obj
 0002:0000ec48       ??_C@_1BG@LNOAKHIE@?$AAs?$AAr?$AA?9?$AAS?$AAP?$AA?9?$AAL?$AAa?$AAt?$AAn?$AA?$AA@ 000000018005dc48     libucrt:lcidtoname_downlevel.obj
 0002:0000ec60       ??_C@_1M@HBMHBGAK@?$AAs?$AAv?$AA?9?$AAF?$AAI?$AA?$AA@ 000000018005dc60     libucrt:lcidtoname_downlevel.obj
 0002:0000ec70       ??_C@_1BG@DGCJGJBE@?$AAa?$AAz?$AA?9?$AAA?$AAZ?$AA?9?$AAC?$AAy?$AAr?$AAl?$AA?$AA@ 000000018005dc70     libucrt:lcidtoname_downlevel.obj
 0002:0000ec88       ??_C@_1M@KEJDAAHB@?$AAs?$AAe?$AA?9?$AAS?$AAE?$AA?$AA@ 000000018005dc88     libucrt:lcidtoname_downlevel.obj
 0002:0000ec98       ??_C@_1M@HEIBJJAD@?$AAm?$AAs?$AA?9?$AAB?$AAN?$AA?$AA@ 000000018005dc98     libucrt:lcidtoname_downlevel.obj
 0002:0000eca8       ??_C@_1BG@PBGJMCEM@?$AAu?$AAz?$AA?9?$AAU?$AAZ?$AA?9?$AAC?$AAy?$AAr?$AAl?$AA?$AA@ 000000018005dca8     libucrt:lcidtoname_downlevel.obj
 0002:0000ecc0       ??_C@_1O@LAOBCMDF@?$AAq?$AAu?$AAz?$AA?9?$AAE?$AAC?$AA?$AA@ 000000018005dcc0     libucrt:lcidtoname_downlevel.obj
 0002:0000ecd0       ??_C@_1M@POEEMAIO@?$AAa?$AAr?$AA?9?$AAE?$AAG?$AA?$AA@ 000000018005dcd0     libucrt:lcidtoname_downlevel.obj
 0002:0000ece0       ??_C@_1M@EFAKDEDL@?$AAz?$AAh?$AA?9?$AAH?$AAK?$AA?$AA@ 000000018005dce0     libucrt:lcidtoname_downlevel.obj
 0002:0000ecf0       ??_C@_1M@HKKIJHGI@?$AAd?$AAe?$AA?9?$AAA?$AAT?$AA?$AA@ 000000018005dcf0     libucrt:lcidtoname_downlevel.obj
 0002:0000ed00       ??_C@_1M@KBFBEHJF@?$AAe?$AAn?$AA?9?$AAA?$AAU?$AA?$AA@ 000000018005dd00     libucrt:lcidtoname_downlevel.obj
 0002:0000ed10       ??_C@_1M@MNPLFAAH@?$AAe?$AAs?$AA?9?$AAE?$AAS?$AA?$AA@ 000000018005dd10     libucrt:lcidtoname_downlevel.obj
 0002:0000ed20       ??_C@_1M@HJOOJFMA@?$AAf?$AAr?$AA?9?$AAC?$AAA?$AA?$AA@ 000000018005dd20     libucrt:lcidtoname_downlevel.obj
 0002:0000ed30       ??_C@_1BG@JPOFPNAB@?$AAs?$AAr?$AA?9?$AAS?$AAP?$AA?9?$AAC?$AAy?$AAr?$AAl?$AA?$AA@ 000000018005dd30     libucrt:lcidtoname_downlevel.obj
 0002:0000ed48       ??_C@_1M@LNFOCMOB@?$AAs?$AAe?$AA?9?$AAF?$AAI?$AA?$AA@ 000000018005dd48     libucrt:lcidtoname_downlevel.obj
 0002:0000ed58       ??_C@_1O@MGJBOAMB@?$AAq?$AAu?$AAz?$AA?9?$AAP?$AAE?$AA?$AA@ 000000018005dd58     libucrt:lcidtoname_downlevel.obj
 0002:0000ed68       ??_C@_1M@GJINLBOK@?$AAa?$AAr?$AA?9?$AAL?$AAY?$AA?$AA@ 000000018005dd68     libucrt:lcidtoname_downlevel.obj
 0002:0000ed78       ??_C@_1M@GGMNHJNL@?$AAz?$AAh?$AA?9?$AAS?$AAG?$AA?$AA@ 000000018005dd78     libucrt:lcidtoname_downlevel.obj
 0002:0000ed88       ??_C@_1M@HOIKODND@?$AAd?$AAe?$AA?9?$AAL?$AAU?$AA?$AA@ 000000018005dd88     libucrt:lcidtoname_downlevel.obj
 0002:0000ed98       ??_C@_1M@DDOCCGFG@?$AAe?$AAn?$AA?9?$AAC?$AAA?$AA?$AA@ 000000018005dd98     libucrt:lcidtoname_downlevel.obj
 0002:0000eda8       ??_C@_1M@BNOEMJLF@?$AAe?$AAs?$AA?9?$AAG?$AAT?$AA?$AA@ 000000018005dda8     libucrt:lcidtoname_downlevel.obj
 0002:0000edb8       ??_C@_1M@EOGNKEK@?$AAf?$AAr?$AA?9?$AAC?$AAH?$AA?$AA@ 000000018005ddb8     libucrt:lcidtoname_downlevel.obj
 0002:0000edc8       ??_C@_1M@FLIDJFHL@?$AAh?$AAr?$AA?9?$AAB?$AAA?$AA?$AA@ 000000018005ddc8     libucrt:lcidtoname_downlevel.obj
 0002:0000edd8       ??_C@_1O@FMCELNAJ@?$AAs?$AAm?$AAj?$AA?9?$AAN?$AAO?$AA?$AA@ 000000018005ddd8     libucrt:lcidtoname_downlevel.obj
 0002:0000ede8       ??_C@_1M@JHGLJMGJ@?$AAa?$AAr?$AA?9?$AAD?$AAZ?$AA?$AA@ 000000018005dde8     libucrt:lcidtoname_downlevel.obj
 0002:0000edf8       ??_C@_1M@JKKFDCNP@?$AAz?$AAh?$AA?9?$AAM?$AAO?$AA?$AA@ 000000018005ddf8     libucrt:lcidtoname_downlevel.obj
 0002:0000ee08       ??_C@_1M@GEEFALPE@?$AAd?$AAe?$AA?9?$AAL?$AAI?$AA?$AA@ 000000018005de08     libucrt:lcidtoname_downlevel.obj
 0002:0000ee18       ??_C@_1M@IGEOFBG@?$AAe?$AAn?$AA?9?$AAN?$AAZ?$AA?$AA@ 000000018005de18     libucrt:lcidtoname_downlevel.obj
 0002:0000ee28       ??_C@_1M@KDBONEHP@?$AAe?$AAs?$AA?9?$AAC?$AAR?$AA?$AA@ 000000018005de28     libucrt:lcidtoname_downlevel.obj
 0002:0000ee38       ??_C@_1M@FHMDOHNN@?$AAf?$AAr?$AA?9?$AAL?$AAU?$AA?$AA@ 000000018005de38     libucrt:lcidtoname_downlevel.obj
 0002:0000ee48       ??_C@_1BG@NFKKMAFG@?$AAb?$AAs?$AA?9?$AAB?$AAA?$AA?9?$AAL?$AAa?$AAt?$AAn?$AA?$AA@ 000000018005de48     libucrt:lcidtoname_downlevel.obj
 0002:0000ee60       ??_C@_1O@IMNBEMCI@?$AAs?$AAm?$AAj?$AA?9?$AAS?$AAE?$AA?$AA@ 000000018005de60     libucrt:lcidtoname_downlevel.obj
 0002:0000ee70       ??_C@_1M@DHHMBNDP@?$AAa?$AAr?$AA?9?$AAM?$AAA?$AA?$AA@ 000000018005de70     libucrt:lcidtoname_downlevel.obj
 0002:0000ee80       ??_C@_1M@BNBLJCGH@?$AAe?$AAn?$AA?9?$AAI?$AAE?$AA?$AA@ 000000018005de80     libucrt:lcidtoname_downlevel.obj
 0002:0000ee90       ??_C@_1M@GEPAFMDL@?$AAe?$AAs?$AA?9?$AAP?$AAA?$AA?$AA@ 000000018005de90     libucrt:lcidtoname_downlevel.obj
 0002:0000eea0       ??_C@_1M@OJONDMDL@?$AAf?$AAr?$AA?9?$AAM?$AAC?$AA?$AA@ 000000018005dea0     libucrt:lcidtoname_downlevel.obj
 0002:0000eeb0       ??_C@_1BG@OBCNFJB@?$AAs?$AAr?$AA?9?$AAB?$AAA?$AA?9?$AAL?$AAa?$AAt?$AAn?$AA?$AA@ 000000018005deb0     libucrt:lcidtoname_downlevel.obj
 0002:0000eec8       ??_C@_1O@KEMEEGPO@?$AAs?$AAm?$AAa?$AA?9?$AAN?$AAO?$AA?$AA@ 000000018005dec8     libucrt:lcidtoname_downlevel.obj
 0002:0000eed8       ??_C@_1M@ELMGFODK@?$AAa?$AAr?$AA?9?$AAT?$AAN?$AA?$AA@ 000000018005ded8     libucrt:lcidtoname_downlevel.obj
 0002:0000eee8       ??_C@_1M@BHDLHFAF@?$AAe?$AAn?$AA?9?$AAZ?$AAA?$AA?$AA@ 000000018005dee8     libucrt:lcidtoname_downlevel.obj
 0002:0000eef8       ??_C@_1M@BMGIGLIF@?$AAe?$AAs?$AA?9?$AAD?$AAO?$AA?$AA@ 000000018005def8     libucrt:lcidtoname_downlevel.obj
 0002:0000ef08       ??_C@_1BG@CMBHIPBE@?$AAs?$AAr?$AA?9?$AAB?$AAA?$AA?9?$AAC?$AAy?$AAr?$AAl?$AA?$AA@ 000000018005df08     libucrt:lcidtoname_downlevel.obj
 0002:0000ef20       ??_C@_1O@HEDBLHNP@?$AAs?$AAm?$AAa?$AA?9?$AAS?$AAE?$AA?$AA@ 000000018005df20     libucrt:lcidtoname_downlevel.obj
 0002:0000ef30       ??_C@_1M@DAGCADIM@?$AAa?$AAr?$AA?9?$AAO?$AAM?$AA?$AA@ 000000018005df30     libucrt:lcidtoname_downlevel.obj
 0002:0000ef40       ??_C@_1M@FODLMICG@?$AAe?$AAn?$AA?9?$AAJ?$AAM?$AA?$AA@ 000000018005df40     libucrt:lcidtoname_downlevel.obj
 0002:0000ef50       ??_C@_1M@DNMLCIHB@?$AAe?$AAs?$AA?9?$AAV?$AAE?$AA?$AA@ 000000018005df50     libucrt:lcidtoname_downlevel.obj
 0002:0000ef60       ??_C@_1O@EOKHMKJK@?$AAs?$AAm?$AAs?$AA?9?$AAF?$AAI?$AA?$AA@ 000000018005df60     libucrt:lcidtoname_downlevel.obj
 0002:0000ef70       ??_C@_1M@CAFJMKOF@?$AAa?$AAr?$AA?9?$AAY?$AAE?$AA?$AA@ 000000018005df70     libucrt:lcidtoname_downlevel.obj
 0002:0000ef80       ??_C@_1M@CBFHIJLI@?$AAe?$AAn?$AA?9?$AAC?$AAB?$AA?$AA@ 000000018005df80     libucrt:lcidtoname_downlevel.obj
 0002:0000ef90       ??_C@_1M@BGNFLDN@?$AAe?$AAs?$AA?9?$AAC?$AAO?$AA?$AA@ 000000018005df90     libucrt:lcidtoname_downlevel.obj
 0002:0000efa0       ??_C@_1O@JMPHMAMC@?$AAs?$AAm?$AAn?$AA?9?$AAF?$AAI?$AA?$AA@ 000000018005dfa0     libucrt:lcidtoname_downlevel.obj
 0002:0000efb0       ??_C@_1M@JLANABKE@?$AAa?$AAr?$AA?9?$AAS?$AAY?$AA?$AA@ 000000018005dfb0     libucrt:lcidtoname_downlevel.obj
 0002:0000efc0       ??_C@_1M@HPKGCFGN@?$AAe?$AAn?$AA?9?$AAB?$AAZ?$AA?$AA@ 000000018005dfc0     libucrt:lcidtoname_downlevel.obj
 0002:0000efd0       ??_C@_1M@OLJCMLGM@?$AAe?$AAs?$AA?9?$AAP?$AAE?$AA?$AA@ 000000018005dfd0     libucrt:lcidtoname_downlevel.obj
 0002:0000efe0       ??_C@_1M@MKKGFKLE@?$AAa?$AAr?$AA?9?$AAJ?$AAO?$AA?$AA@ 000000018005dfe0     libucrt:lcidtoname_downlevel.obj
 0002:0000eff0       ??_C@_1M@EKPGLDNI@?$AAe?$AAn?$AA?9?$AAT?$AAT?$AA?$AA@ 000000018005dff0     libucrt:lcidtoname_downlevel.obj
 0002:0000f000       ??_C@_1M@OONGHFHE@?$AAe?$AAs?$AA?9?$AAA?$AAR?$AA?$AA@ 000000018005e000     libucrt:lcidtoname_downlevel.obj
 0002:0000f010       ??_C@_1M@OOJFGBHE@?$AAa?$AAr?$AA?9?$AAL?$AAB?$AA?$AA@ 000000018005e010     libucrt:lcidtoname_downlevel.obj
 0002:0000f020       ??_C@_1M@GCEJHNEG@?$AAe?$AAn?$AA?9?$AAZ?$AAW?$AA?$AA@ 000000018005e020     libucrt:lcidtoname_downlevel.obj
 0002:0000f030       ??_C@_1M@JNOCAHJI@?$AAe?$AAs?$AA?9?$AAE?$AAC?$AA?$AA@ 000000018005e030     libucrt:lcidtoname_downlevel.obj
 0002:0000f040       ??_C@_1M@JEFHPGGB@?$AAa?$AAr?$AA?9?$AAK?$AAW?$AA?$AA@ 000000018005e040     libucrt:lcidtoname_downlevel.obj
 0002:0000f050       ??_C@_1M@MLKIBJOJ@?$AAe?$AAn?$AA?9?$AAP?$AAH?$AA?$AA@ 000000018005e050     libucrt:lcidtoname_downlevel.obj
 0002:0000f060       ??_C@_1M@BDNIPEND@?$AAe?$AAs?$AA?9?$AAC?$AAL?$AA?$AA@ 000000018005e060     libucrt:lcidtoname_downlevel.obj
 0002:0000f070       ??_C@_1M@MPNMEKBD@?$AAa?$AAr?$AA?9?$AAA?$AAE?$AA?$AA@ 000000018005e070     libucrt:lcidtoname_downlevel.obj
 0002:0000f080       ??_C@_1M@KBJALCPI@?$AAe?$AAs?$AA?9?$AAU?$AAY?$AA?$AA@ 000000018005e080     libucrt:lcidtoname_downlevel.obj
 0002:0000f090       ??_C@_1M@LLCCOAGA@?$AAa?$AAr?$AA?9?$AAB?$AAH?$AA?$AA@ 000000018005e090     libucrt:lcidtoname_downlevel.obj
 0002:0000f0a0       ??_C@_1M@PBFNCDEL@?$AAe?$AAs?$AA?9?$AAP?$AAY?$AA?$AA@ 000000018005e0a0     libucrt:lcidtoname_downlevel.obj
 0002:0000f0b0       ??_C@_1M@EDGINPNP@?$AAa?$AAr?$AA?9?$AAQ?$AAA?$AA?$AA@ 000000018005e0b0     libucrt:lcidtoname_downlevel.obj
 0002:0000f0c0       ??_C@_1M@MKDBIIJI@?$AAe?$AAs?$AA?9?$AAB?$AAO?$AA?$AA@ 000000018005e0c0     libucrt:lcidtoname_downlevel.obj
 0002:0000f0d0       ??_C@_1M@CPKKEBLD@?$AAe?$AAs?$AA?9?$AAS?$AAV?$AA?$AA@ 000000018005e0d0     libucrt:lcidtoname_downlevel.obj
 0002:0000f0e0       ??_C@_1M@NDBGMMJL@?$AAe?$AAs?$AA?9?$AAH?$AAN?$AA?$AA@ 000000018005e0e0     libucrt:lcidtoname_downlevel.obj
 0002:0000f0f0       ??_C@_1M@JIJIBHDP@?$AAe?$AAs?$AA?9?$AAN?$AAI?$AA?$AA@ 000000018005e0f0     libucrt:lcidtoname_downlevel.obj
 0002:0000f100       ??_C@_1M@CGFMKEEK@?$AAe?$AAs?$AA?9?$AAP?$AAR?$AA?$AA@ 000000018005e100     libucrt:lcidtoname_downlevel.obj
 0002:0000f110       ??_C@_1O@ICJHKIIK@?$AAz?$AAh?$AA?9?$AAC?$AAH?$AAT?$AA?$AA@ 000000018005e110     libucrt:lcidtoname_downlevel.obj
 0002:0000f120       ??_C@_15CLNEJCE@?$AAs?$AAr?$AA?$AA@ 000000018005e120     libucrt:lcidtoname_downlevel.obj
 0002:0000ff70       ??_C@_1M@KAHEKEIG@?$AAa?$AAf?$AA?9?$AAz?$AAa?$AA?$AA@ 000000018005ef70     libucrt:lcidtoname_downlevel.obj
 0002:0000ff80       ??_C@_1M@GIECOABL@?$AAa?$AAr?$AA?9?$AAa?$AAe?$AA?$AA@ 000000018005ef80     libucrt:lcidtoname_downlevel.obj
 0002:0000ff90       ??_C@_1M@BMLMEKGI@?$AAa?$AAr?$AA?9?$AAb?$AAh?$AA?$AA@ 000000018005ef90     libucrt:lcidtoname_downlevel.obj
 0002:0000ffa0       ??_C@_1M@DAPFDGGB@?$AAa?$AAr?$AA?9?$AAd?$AAz?$AA?$AA@ 000000018005efa0     libucrt:lcidtoname_downlevel.obj
 0002:0000ffb0       ??_C@_1M@FJNKGKIG@?$AAa?$AAr?$AA?9?$AAe?$AAg?$AA?$AA@ 000000018005efb0     libucrt:lcidtoname_downlevel.obj
 0002:0000ffc0       ??_C@_1M@FLGKKCLO@?$AAa?$AAr?$AA?9?$AAi?$AAq?$AA?$AA@ 000000018005efc0     libucrt:lcidtoname_downlevel.obj
 0002:0000ffd0       ??_C@_1M@GNDIPALM@?$AAa?$AAr?$AA?9?$AAj?$AAo?$AA?$AA@ 000000018005efd0     libucrt:lcidtoname_downlevel.obj
 0002:0000ffe0       ??_C@_1M@DDMJFMGJ@?$AAa?$AAr?$AA?9?$AAk?$AAw?$AA?$AA@ 000000018005efe0     libucrt:lcidtoname_downlevel.obj
 0002:0000fff0       ??_C@_1M@EJALMLHM@?$AAa?$AAr?$AA?9?$AAl?$AAb?$AA?$AA@ 000000018005eff0     libucrt:lcidtoname_downlevel.obj
 0002:00010000       ??_C@_1M@MOBDBLOC@?$AAa?$AAr?$AA?9?$AAl?$AAy?$AA?$AA@ 000000018005f000     libucrt:lcidtoname_downlevel.obj
 0002:00010010       ??_C@_1M@JAOCLHDH@?$AAa?$AAr?$AA?9?$AAm?$AAa?$AA?$AA@ 000000018005f010     libucrt:lcidtoname_downlevel.obj
 0002:00010020       ??_C@_1M@JHPMKJIE@?$AAa?$AAr?$AA?9?$AAo?$AAm?$AA?$AA@ 000000018005f020     libucrt:lcidtoname_downlevel.obj
 0002:00010030       ??_C@_1M@OEPGHFNH@?$AAa?$AAr?$AA?9?$AAq?$AAa?$AA?$AA@ 000000018005f030     libucrt:lcidtoname_downlevel.obj
 0002:00010040       ??_C@_1M@KJDONENM@?$AAa?$AAr?$AA?9?$AAs?$AAa?$AA?$AA@ 000000018005f040     libucrt:lcidtoname_downlevel.obj
 0002:00010050       ??_C@_1M@DMJDKLKM@?$AAa?$AAr?$AA?9?$AAs?$AAy?$AA?$AA@ 000000018005f050     libucrt:lcidtoname_downlevel.obj
 0002:00010060       ??_C@_1M@OMFIPEDC@?$AAa?$AAr?$AA?9?$AAt?$AAn?$AA?$AA@ 000000018005f060     libucrt:lcidtoname_downlevel.obj
 0002:00010070       ??_C@_1M@IHMHGAON@?$AAa?$AAr?$AA?9?$AAy?$AAe?$AA?$AA@ 000000018005f070     libucrt:lcidtoname_downlevel.obj
 0002:00010080       ??_C@_1BG@KDCPGJGB@?$AAa?$AAz?$AA?9?$AAa?$AAz?$AA?9?$AAc?$AAy?$AAr?$AAl?$AA?$AA@ 000000018005f080     libucrt:lcidtoname_downlevel.obj
 0002:00010098       ??_C@_1BG@IBCKDDOE@?$AAa?$AAz?$AA?9?$AAa?$AAz?$AA?9?$AAl?$AAa?$AAt?$AAn?$AA?$AA@ 000000018005f098     libucrt:lcidtoname_downlevel.obj
 0002:000100b0       ??_C@_1M@EGPFDCPD@?$AAb?$AAe?$AA?9?$AAb?$AAy?$AA?$AA@ 000000018005f0b0     libucrt:lcidtoname_downlevel.obj
 0002:000100c0       ??_C@_1M@PCMGMCGC@?$AAb?$AAg?$AA?9?$AAb?$AAg?$AA?$AA@ 000000018005f0c0     libucrt:lcidtoname_downlevel.obj
 0002:000100d0       ??_C@_1M@BJBMFGOB@?$AAb?$AAn?$AA?9?$AAi?$AAn?$AA?$AA@ 000000018005f0d0     libucrt:lcidtoname_downlevel.obj
 0002:000100e0       ??_C@_1BG@EAKMMACD@?$AAb?$AAs?$AA?9?$AAb?$AAa?$AA?9?$AAl?$AAa?$AAt?$AAn?$AA?$AA@ 000000018005f0e0     libucrt:lcidtoname_downlevel.obj
 0002:000100f8       ??_C@_1M@KGADAODK@?$AAc?$AAa?$AA?9?$AAe?$AAs?$AA?$AA@ 000000018005f0f8     libucrt:lcidtoname_downlevel.obj
 0002:00010108       ??_C@_1M@COAJPDHI@?$AAc?$AAs?$AA?9?$AAc?$AAz?$AA?$AA@ 000000018005f108     libucrt:lcidtoname_downlevel.obj
 0002:00010118       ??_C@_1M@DHBHFONH@?$AAc?$AAy?$AA?9?$AAg?$AAb?$AA?$AA@ 000000018005f118     libucrt:lcidtoname_downlevel.obj
 0002:00010128       ??_C@_1M@IMGKELGA@?$AAd?$AAa?$AA?9?$AAd?$AAk?$AA?$AA@ 000000018005f128     libucrt:lcidtoname_downlevel.obj
 0002:00010138       ??_C@_1M@NNDGDNGA@?$AAd?$AAe?$AA?9?$AAa?$AAt?$AA?$AA@ 000000018005f138     libucrt:lcidtoname_downlevel.obj
 0002:00010148       ??_C@_1M@IKDBHEEM@?$AAd?$AAe?$AA?9?$AAc?$AAh?$AA?$AA@ 000000018005f148     libucrt:lcidtoname_downlevel.obj
 0002:00010158       ??_C@_1M@GFFOJMCJ@?$AAd?$AAe?$AA?9?$AAd?$AAe?$AA?$AA@ 000000018005f158     libucrt:lcidtoname_downlevel.obj
 0002:00010168       ??_C@_1M@MDNLKBPM@?$AAd?$AAe?$AA?9?$AAl?$AAi?$AA?$AA@ 000000018005f168     libucrt:lcidtoname_downlevel.obj
 0002:00010178       ??_C@_1M@NJBEEJNL@?$AAd?$AAe?$AA?9?$AAl?$AAu?$AA?$AA@ 000000018005f178     libucrt:lcidtoname_downlevel.obj
 0002:00010188       ??_C@_1O@GNNELBAP@?$AAd?$AAi?$AAv?$AA?9?$AAm?$AAv?$AA?$AA@ 000000018005f188     libucrt:lcidtoname_downlevel.obj
 0002:00010198       ??_C@_1M@EJLEOGAE@?$AAe?$AAl?$AA?9?$AAg?$AAr?$AA?$AA@ 000000018005f198     libucrt:lcidtoname_downlevel.obj
 0002:000101a8       ??_C@_1M@GMPONJN@?$AAe?$AAn?$AA?9?$AAa?$AAu?$AA?$AA@ 000000018005f1a8     libucrt:lcidtoname_downlevel.obj
 0002:000101b8       ??_C@_1M@NIDIIPGF@?$AAe?$AAn?$AA?9?$AAb?$AAz?$AA?$AA@ 000000018005f1b8     libucrt:lcidtoname_downlevel.obj
 0002:000101c8       ??_C@_1M@JEHMIMFO@?$AAe?$AAn?$AA?9?$AAc?$AAa?$AA?$AA@ 000000018005f1c8     libucrt:lcidtoname_downlevel.obj
 0002:000101d8       ??_C@_1M@IGMJCDLA@?$AAe?$AAn?$AA?9?$AAc?$AAb?$AA?$AA@ 000000018005f1d8     libucrt:lcidtoname_downlevel.obj
 0002:000101e8       ??_C@_1M@BNFIGBKG@?$AAe?$AAn?$AA?9?$AAg?$AAb?$AA?$AA@ 000000018005f1e8     libucrt:lcidtoname_downlevel.obj
 0002:000101f8       ??_C@_1M@LKIFDIGP@?$AAe?$AAn?$AA?9?$AAi?$AAe?$AA?$AA@ 000000018005f1f8     libucrt:lcidtoname_downlevel.obj
 0002:00010208       ??_C@_1M@PJKFGCCO@?$AAe?$AAn?$AA?9?$AAj?$AAm?$AA?$AA@ 000000018005f208     libucrt:lcidtoname_downlevel.obj
 0002:00010218       ??_C@_1M@KPPKEPBO@?$AAe?$AAn?$AA?9?$AAn?$AAz?$AA?$AA@ 000000018005f218     libucrt:lcidtoname_downlevel.obj
 0002:00010228       ??_C@_1M@GMDGLDOB@?$AAe?$AAn?$AA?9?$AAp?$AAh?$AA?$AA@ 000000018005f228     libucrt:lcidtoname_downlevel.obj
 0002:00010238       ??_C@_1M@ONGIBJNA@?$AAe?$AAn?$AA?9?$AAt?$AAt?$AA?$AA@ 000000018005f238     libucrt:lcidtoname_downlevel.obj
 0002:00010248       ??_C@_1M@LLODPCMM@?$AAe?$AAn?$AA?9?$AAu?$AAs?$AA?$AA@ 000000018005f248     libucrt:lcidtoname_downlevel.obj
 0002:00010258       ??_C@_1M@LAKFNPAN@?$AAe?$AAn?$AA?9?$AAz?$AAa?$AA?$AA@ 000000018005f258     libucrt:lcidtoname_downlevel.obj
 0002:00010268       ??_C@_1M@MFNHNHEO@?$AAe?$AAn?$AA?9?$AAz?$AAw?$AA?$AA@ 000000018005f268     libucrt:lcidtoname_downlevel.obj
 0002:00010278       ??_C@_1M@EJEINPHM@?$AAe?$AAs?$AA?9?$AAa?$AAr?$AA?$AA@ 000000018005f278     libucrt:lcidtoname_downlevel.obj
 0002:00010288       ??_C@_1M@GNKPCCJA@?$AAe?$AAs?$AA?9?$AAb?$AAo?$AA?$AA@ 000000018005f288     libucrt:lcidtoname_downlevel.obj
 0002:00010298       ??_C@_1M@LEEGFONL@?$AAe?$AAs?$AA?9?$AAc?$AAl?$AA?$AA@ 000000018005f298     libucrt:lcidtoname_downlevel.obj
 0002:000102a8       ??_C@_1M@KGPDPBDF@?$AAe?$AAs?$AA?9?$AAc?$AAo?$AA?$AA@ 000000018005f2a8     libucrt:lcidtoname_downlevel.obj
 0002:000102b8       ??_C@_1M@EIAHOHH@?$AAe?$AAs?$AA?9?$AAc?$AAr?$AA?$AA@ 000000018005f2b8     libucrt:lcidtoname_downlevel.obj
 0002:000102c8       ??_C@_1M@LLPGMBIN@?$AAe?$AAs?$AA?9?$AAd?$AAo?$AA?$AA@ 000000018005f2c8     libucrt:lcidtoname_downlevel.obj
 0002:000102d8       ??_C@_1M@DKHMKNJA@?$AAe?$AAs?$AA?9?$AAe?$AAc?$AA?$AA@ 000000018005f2d8     libucrt:lcidtoname_downlevel.obj
 0002:000102e8       ??_C@_1M@GKGFPKAP@?$AAe?$AAs?$AA?9?$AAe?$AAs?$AA?$AA@ 000000018005f2e8     libucrt:lcidtoname_downlevel.obj
 0002:000102f8       ??_C@_1M@LKHKGDLN@?$AAe?$AAs?$AA?9?$AAg?$AAt?$AA?$AA@ 000000018005f2f8     libucrt:lcidtoname_downlevel.obj
 0002:00010308       ??_C@_1M@HEIIGGJD@?$AAe?$AAs?$AA?9?$AAh?$AAn?$AA?$AA@ 000000018005f308     libucrt:lcidtoname_downlevel.obj
 0002:00010318       ??_C@_1M@FBDHPPGD@?$AAe?$AAs?$AA?9?$AAm?$AAx?$AA?$AA@ 000000018005f318     libucrt:lcidtoname_downlevel.obj
 0002:00010328       ??_C@_1M@DPAGLNDH@?$AAe?$AAs?$AA?9?$AAn?$AAi?$AA?$AA@ 000000018005f328     libucrt:lcidtoname_downlevel.obj
 0002:00010338       ??_C@_1M@MDGOPGDD@?$AAe?$AAs?$AA?9?$AAp?$AAa?$AA?$AA@ 000000018005f338     libucrt:lcidtoname_downlevel.obj
 0002:00010348       ??_C@_1M@EMAMGBGE@?$AAe?$AAs?$AA?9?$AAp?$AAe?$AA?$AA@ 000000018005f348     libucrt:lcidtoname_downlevel.obj
 0002:00010358       ??_C@_1M@IBMCAOEC@?$AAe?$AAs?$AA?9?$AAp?$AAr?$AA?$AA@ 000000018005f358     libucrt:lcidtoname_downlevel.obj
 0002:00010368       ??_C@_1M@FGMDIJED@?$AAe?$AAs?$AA?9?$AAp?$AAy?$AA?$AA@ 000000018005f368     libucrt:lcidtoname_downlevel.obj
 0002:00010378       ??_C@_1M@IIDEOLLL@?$AAe?$AAs?$AA?9?$AAs?$AAv?$AA?$AA@ 000000018005f378     libucrt:lcidtoname_downlevel.obj
 0002:00010388       ??_C@_1M@GAOBIPA@?$AAe?$AAs?$AA?9?$AAu?$AAy?$AA?$AA@ 000000018005f388     libucrt:lcidtoname_downlevel.obj
 0002:00010398       ??_C@_1M@JKFFICHJ@?$AAe?$AAs?$AA?9?$AAv?$AAe?$AA?$AA@ 000000018005f398     libucrt:lcidtoname_downlevel.obj
 0002:000103a8       ??_C@_1M@PNMLOJDF@?$AAe?$AAt?$AA?9?$AAe?$AAe?$AA?$AA@ 000000018005f3a8     libucrt:lcidtoname_downlevel.obj
 0002:000103b8       ??_C@_1M@GHHLIKEI@?$AAe?$AAu?$AA?9?$AAe?$AAs?$AA?$AA@ 000000018005f3b8     libucrt:lcidtoname_downlevel.obj
 0002:000103c8       ??_C@_1M@PBNONODE@?$AAf?$AAa?$AA?9?$AAi?$AAr?$AA?$AA@ 000000018005f3c8     libucrt:lcidtoname_downlevel.obj
 0002:000103d8       ??_C@_1M@JEEHPMIL@?$AAf?$AAi?$AA?9?$AAf?$AAi?$AA?$AA@ 000000018005f3d8     libucrt:lcidtoname_downlevel.obj
 0002:000103e8       ??_C@_1M@LMDCNDBA@?$AAf?$AAo?$AA?9?$AAf?$AAo?$AA?$AA@ 000000018005f3e8     libucrt:lcidtoname_downlevel.obj
 0002:000103f8       ??_C@_1M@JKEOHLDK@?$AAf?$AAr?$AA?9?$AAb?$AAe?$AA?$AA@ 000000018005f3f8     libucrt:lcidtoname_downlevel.obj
 0002:00010408       ??_C@_1M@NOHADPMI@?$AAf?$AAr?$AA?9?$AAc?$AAa?$AA?$AA@ 000000018005f408     libucrt:lcidtoname_downlevel.obj
 0002:00010418       ??_C@_1M@KDHIHAEC@?$AAf?$AAr?$AA?9?$AAc?$AAh?$AA?$AA@ 000000018005f418     libucrt:lcidtoname_downlevel.obj
 0002:00010428       ??_C@_1M@MMBBFGAK@?$AAf?$AAr?$AA?9?$AAf?$AAr?$AA?$AA@ 000000018005f428     libucrt:lcidtoname_downlevel.obj
 0002:00010438       ??_C@_1M@PAFNENNF@?$AAf?$AAr?$AA?9?$AAl?$AAu?$AA?$AA@ 000000018005f438     libucrt:lcidtoname_downlevel.obj
 0002:00010448       ??_C@_1M@EOHDJGDD@?$AAf?$AAr?$AA?9?$AAm?$AAc?$AA?$AA@ 000000018005f448     libucrt:lcidtoname_downlevel.obj
 0002:00010458       ??_C@_1M@FAPLLOPF@?$AAg?$AAl?$AA?9?$AAe?$AAs?$AA?$AA@ 000000018005f458     libucrt:lcidtoname_downlevel.obj
 0002:00010468       ??_C@_1M@FOPBFLOO@?$AAg?$AAu?$AA?9?$AAi?$AAn?$AA?$AA@ 000000018005f468     libucrt:lcidtoname_downlevel.obj
 0002:00010478       ??_C@_1M@KBMCINPM@?$AAh?$AAe?$AA?9?$AAi?$AAl?$AA?$AA@ 000000018005f478     libucrt:lcidtoname_downlevel.obj
 0002:00010488       ??_C@_1M@BBPHKFPJ@?$AAh?$AAi?$AA?9?$AAi?$AAn?$AA?$AA@ 000000018005f488     libucrt:lcidtoname_downlevel.obj
 0002:00010498       ??_C@_1M@PMBNDPHD@?$AAh?$AAr?$AA?9?$AAb?$AAa?$AA?$AA@ 000000018005f498     libucrt:lcidtoname_downlevel.obj
 0002:000104a8       ??_C@_1M@BPCKOEGE@?$AAh?$AAr?$AA?9?$AAh?$AAr?$AA?$AA@ 000000018005f4a8     libucrt:lcidtoname_downlevel.obj
 0002:000104b8       ??_C@_1M@GACBMHKE@?$AAh?$AAu?$AA?9?$AAh?$AAu?$AA?$AA@ 000000018005f4b8     libucrt:lcidtoname_downlevel.obj
 0002:000104c8       ??_C@_1M@MILPAJJC@?$AAh?$AAy?$AA?9?$AAa?$AAm?$AA?$AA@ 000000018005f4c8     libucrt:lcidtoname_downlevel.obj
 0002:000104d8       ??_C@_1M@BABBICEC@?$AAi?$AAd?$AA?9?$AAi?$AAd?$AA?$AA@ 000000018005f4d8     libucrt:lcidtoname_downlevel.obj
 0002:000104e8       ??_C@_1M@BIKNHHPF@?$AAi?$AAs?$AA?9?$AAi?$AAs?$AA?$AA@ 000000018005f4e8     libucrt:lcidtoname_downlevel.obj
 0002:000104f8       ??_C@_1M@NMPCJPHE@?$AAi?$AAt?$AA?9?$AAc?$AAh?$AA?$AA@ 000000018005f4f8     libucrt:lcidtoname_downlevel.obj
 0002:00010508       ??_C@_1M@GHKGFEDF@?$AAi?$AAt?$AA?9?$AAi?$AAt?$AA?$AA@ 000000018005f508     libucrt:lcidtoname_downlevel.obj
 0002:00010518       ??_C@_1M@NIEJCJJA@?$AAj?$AAa?$AA?9?$AAj?$AAp?$AA?$AA@ 000000018005f518     libucrt:lcidtoname_downlevel.obj
 0002:00010528       ??_C@_1M@JILFNBIM@?$AAk?$AAa?$AA?9?$AAg?$AAe?$AA?$AA@ 000000018005f528     libucrt:lcidtoname_downlevel.obj
 0002:00010538       ??_C@_1M@PACPMGPH@?$AAk?$AAk?$AA?9?$AAk?$AAz?$AA?$AA@ 000000018005f538     libucrt:lcidtoname_downlevel.obj
 0002:00010548       ??_C@_1M@IELFGMHA@?$AAk?$AAn?$AA?9?$AAi?$AAn?$AA?$AA@ 000000018005f548     libucrt:lcidtoname_downlevel.obj
 0002:00010558       ??_C@_1O@IBBJHCH@?$AAk?$AAo?$AAk?$AA?9?$AAi?$AAn?$AA?$AA@ 000000018005f558     libucrt:lcidtoname_downlevel.obj
 0002:00010568       ??_C@_1M@DMHAEOGC@?$AAk?$AAo?$AA?9?$AAk?$AAr?$AA?$AA@ 000000018005f568     libucrt:lcidtoname_downlevel.obj
 0002:00010578       ??_C@_1M@HBAHBIGA@?$AAk?$AAy?$AA?9?$AAk?$AAg?$AA?$AA@ 000000018005f578     libucrt:lcidtoname_downlevel.obj
 0002:00010588       ??_C@_1M@KPMILCJG@?$AAl?$AAt?$AA?9?$AAl?$AAt?$AA?$AA@ 000000018005f588     libucrt:lcidtoname_downlevel.obj
 0002:00010598       ??_C@_1M@BDEKKCA@?$AAl?$AAv?$AA?9?$AAl?$AAv?$AA?$AA@ 000000018005f598     libucrt:lcidtoname_downlevel.obj
 0002:000105a8       ??_C@_1M@ELCKCCJJ@?$AAm?$AAi?$AA?9?$AAn?$AAz?$AA?$AA@ 000000018005f5a8     libucrt:lcidtoname_downlevel.obj
 0002:000105b8       ??_C@_1M@CBOOLAPA@?$AAm?$AAk?$AA?9?$AAm?$AAk?$AA?$AA@ 000000018005f5b8     libucrt:lcidtoname_downlevel.obj
 0002:000105c8       ??_C@_1M@GPHNBJKN@?$AAm?$AAl?$AA?9?$AAi?$AAn?$AA?$AA@ 000000018005f5c8     libucrt:lcidtoname_downlevel.obj
 0002:000105d8       ??_C@_1M@PABJILIG@?$AAm?$AAn?$AA?9?$AAm?$AAn?$AA?$AA@ 000000018005f5d8     libucrt:lcidtoname_downlevel.obj
 0002:000105e8       ??_C@_1M@FGBKKIPG@?$AAm?$AAr?$AA?9?$AAi?$AAn?$AA?$AA@ 000000018005f5e8     libucrt:lcidtoname_downlevel.obj
 0002:000105f8       ??_C@_1M@NDBPDDAL@?$AAm?$AAs?$AA?9?$AAb?$AAn?$AA?$AA@ 000000018005f5f8     libucrt:lcidtoname_downlevel.obj
 0002:00010608       ??_C@_1M@OPIHOOPI@?$AAm?$AAs?$AA?9?$AAm?$AAy?$AA?$AA@ 000000018005f608     libucrt:lcidtoname_downlevel.obj
 0002:00010618       ??_C@_1M@PPDBCNFM@?$AAm?$AAt?$AA?9?$AAm?$AAt?$AA?$AA@ 000000018005f618     libucrt:lcidtoname_downlevel.obj
 0002:00010628       ??_C@_1M@KDJDKMDD@?$AAn?$AAb?$AA?9?$AAn?$AAo?$AA?$AA@ 000000018005f628     libucrt:lcidtoname_downlevel.obj
 0002:00010638       ??_C@_1M@KFCFLMJP@?$AAn?$AAl?$AA?9?$AAb?$AAe?$AA?$AA@ 000000018005f638     libucrt:lcidtoname_downlevel.obj
 0002:00010648       ??_C@_1M@KPOPDDGO@?$AAn?$AAl?$AA?9?$AAn?$AAl?$AA?$AA@ 000000018005f648     libucrt:lcidtoname_downlevel.obj
 0002:00010658       ??_C@_1M@LJKPEMLN@?$AAn?$AAn?$AA?9?$AAn?$AAo?$AA?$AA@ 000000018005f658     libucrt:lcidtoname_downlevel.obj
 0002:00010668       ??_C@_1M@BDGHHBFL@?$AAn?$AAs?$AA?9?$AAz?$AAa?$AA?$AA@ 000000018005f668     libucrt:lcidtoname_downlevel.obj
 0002:00010678       ??_C@_1M@IDEHOAP@?$AAp?$AAa?$AA?9?$AAi?$AAn?$AA?$AA@ 000000018005f678     libucrt:lcidtoname_downlevel.obj
 0002:00010688       ??_C@_1M@HDBKGOGH@?$AAp?$AAl?$AA?9?$AAp?$AAl?$AA?$AA@ 000000018005f688     libucrt:lcidtoname_downlevel.obj
 0002:00010698       ??_C@_1M@LJLLCMEH@?$AAp?$AAt?$AA?9?$AAb?$AAr?$AA?$AA@ 000000018005f698     libucrt:lcidtoname_downlevel.obj
 0002:000106a8       ??_C@_1M@NCMONAAL@?$AAp?$AAt?$AA?9?$AAp?$AAt?$AA?$AA@ 000000018005f6a8     libucrt:lcidtoname_downlevel.obj
 0002:000106b8       ??_C@_1O@EAKMAJDN@?$AAq?$AAu?$AAz?$AA?9?$AAb?$AAo?$AA?$AA@ 000000018005f6b8     libucrt:lcidtoname_downlevel.obj
 0002:000106c8       ??_C@_1O@BHHPIGDN@?$AAq?$AAu?$AAz?$AA?9?$AAe?$AAc?$AA?$AA@ 000000018005f6c8     libucrt:lcidtoname_downlevel.obj
 0002:000106d8       ??_C@_1O@GBAPEKMJ@?$AAq?$AAu?$AAz?$AA?9?$AAp?$AAe?$AA?$AA@ 000000018005f6d8     libucrt:lcidtoname_downlevel.obj
 0002:000106e8       ??_C@_1M@CLGLEFBO@?$AAr?$AAo?$AA?9?$AAr?$AAo?$AA?$AA@ 000000018005f6e8     libucrt:lcidtoname_downlevel.obj
 0002:000106f8       ??_C@_1M@CEEDODME@?$AAr?$AAu?$AA?9?$AAr?$AAu?$AA?$AA@ 000000018005f6f8     libucrt:lcidtoname_downlevel.obj
 0002:00010708       ??_C@_1M@HPKKKMPP@?$AAs?$AAa?$AA?9?$AAi?$AAn?$AA?$AA@ 000000018005f708     libucrt:lcidtoname_downlevel.obj
 0002:00010718       ??_C@_1M@BKMAIGOJ@?$AAs?$AAe?$AA?9?$AAf?$AAi?$AA?$AA@ 000000018005f718     libucrt:lcidtoname_downlevel.obj
 0002:00010728       ??_C@_1M@NDPIFLFI@?$AAs?$AAe?$AA?9?$AAn?$AAo?$AA?$AA@ 000000018005f728     libucrt:lcidtoname_downlevel.obj
 0002:00010738       ??_C@_1M@DANKKHJ@?$AAs?$AAe?$AA?9?$AAs?$AAe?$AA?$AA@ 000000018005f738     libucrt:lcidtoname_downlevel.obj
 0002:00010748       ??_C@_1M@PNBLONPJ@?$AAs?$AAk?$AA?9?$AAs?$AAk?$AA?$AA@ 000000018005f748     libucrt:lcidtoname_downlevel.obj
 0002:00010758       ??_C@_1M@LFMODOAL@?$AAs?$AAl?$AA?9?$AAs?$AAi?$AA?$AA@ 000000018005f758     libucrt:lcidtoname_downlevel.obj
 0002:00010768       ??_C@_1O@DFKOMPG@?$AAs?$AAm?$AAa?$AA?9?$AAn?$AAo?$AA?$AA@ 000000018005f768     libucrt:lcidtoname_downlevel.obj
 0002:00010778       ??_C@_1O@NDKPBNNH@?$AAs?$AAm?$AAa?$AA?9?$AAs?$AAe?$AA?$AA@ 000000018005f778     libucrt:lcidtoname_downlevel.obj
 0002:00010788       ??_C@_1O@PLLKBHAB@?$AAs?$AAm?$AAj?$AA?9?$AAn?$AAo?$AA?$AA@ 000000018005f788     libucrt:lcidtoname_downlevel.obj
 0002:00010798       ??_C@_1O@CLEPOGCA@?$AAs?$AAm?$AAj?$AA?9?$AAs?$AAe?$AA?$AA@ 000000018005f798     libucrt:lcidtoname_downlevel.obj
 0002:000107a8       ??_C@_1O@DLGJGKMK@?$AAs?$AAm?$AAn?$AA?9?$AAf?$AAi?$AA?$AA@ 000000018005f7a8     libucrt:lcidtoname_downlevel.obj
 0002:000107b8       ??_C@_1O@OJDJGAJC@?$AAs?$AAm?$AAs?$AA?9?$AAf?$AAi?$AA?$AA@ 000000018005f7b8     libucrt:lcidtoname_downlevel.obj
 0002:000107c8       ??_C@_1M@BOFOGHPB@?$AAs?$AAq?$AA?9?$AAa?$AAl?$AA?$AA@ 000000018005f7c8     libucrt:lcidtoname_downlevel.obj
 0002:000107d8       ??_C@_1BG@LJBBIPGB@?$AAs?$AAr?$AA?9?$AAb?$AAa?$AA?9?$AAc?$AAy?$AAr?$AAl?$AA?$AA@ 000000018005f7d8     libucrt:lcidtoname_downlevel.obj
 0002:000107f0       ??_C@_1BG@JLBENFOE@?$AAs?$AAr?$AA?9?$AAb?$AAa?$AA?9?$AAl?$AAa?$AAt?$AAn?$AA?$AA@ 000000018005f7f0     libucrt:lcidtoname_downlevel.obj
 0002:00010808       ??_C@_1BG@KODPNHE@?$AAs?$AAr?$AA?9?$AAs?$AAp?$AA?9?$AAc?$AAy?$AAr?$AAl?$AA?$AA@ 000000018005f808     libucrt:lcidtoname_downlevel.obj
 0002:00010820       ??_C@_1BG@CIOGKHPB@?$AAs?$AAr?$AA?9?$AAs?$AAp?$AA?9?$AAl?$AAa?$AAt?$AAn?$AA?$AA@ 000000018005f820     libucrt:lcidtoname_downlevel.obj
 0002:00010838       ??_C@_1M@NGFJLMAC@?$AAs?$AAv?$AA?9?$AAf?$AAi?$AA?$AA@ 000000018005f838     libucrt:lcidtoname_downlevel.obj
 0002:00010848       ??_C@_1M@MPJEJAJC@?$AAs?$AAv?$AA?9?$AAs?$AAe?$AA?$AA@ 000000018005f848     libucrt:lcidtoname_downlevel.obj
 0002:00010858       ??_C@_1M@MPNDHLFK@?$AAs?$AAw?$AA?9?$AAk?$AAe?$AA?$AA@ 000000018005f858     libucrt:lcidtoname_downlevel.obj
 0002:00010868       ??_C@_1O@KOHBJJI@?$AAs?$AAy?$AAr?$AA?9?$AAs?$AAy?$AA?$AA@ 000000018005f868     libucrt:lcidtoname_downlevel.obj
 0002:00010878       ??_C@_1M@LDCEFHA@?$AAt?$AAa?$AA?9?$AAi?$AAn?$AA?$AA@ 000000018005f878     libucrt:lcidtoname_downlevel.obj
 0002:00010888       ??_C@_1M@CNJOFAK@?$AAt?$AAe?$AA?9?$AAi?$AAn?$AA?$AA@ 000000018005f888     libucrt:lcidtoname_downlevel.obj
 0002:00010898       ??_C@_1M@GNAECACD@?$AAt?$AAh?$AA?9?$AAt?$AAh?$AA?$AA@ 000000018005f898     libucrt:lcidtoname_downlevel.obj
 0002:000108a8       ??_C@_1M@CHBIHOJO@?$AAt?$AAn?$AA?9?$AAz?$AAa?$AA?$AA@ 000000018005f8a8     libucrt:lcidtoname_downlevel.obj
 0002:000108b8       ??_C@_1M@GCCMIGPJ@?$AAt?$AAr?$AA?9?$AAt?$AAr?$AA?$AA@ 000000018005f8b8     libucrt:lcidtoname_downlevel.obj
 0002:000108c8       ??_C@_1M@CELMCNBK@?$AAt?$AAt?$AA?9?$AAr?$AAu?$AA?$AA@ 000000018005f8c8     libucrt:lcidtoname_downlevel.obj
 0002:000108d8       ??_C@_1M@KLMCELGA@?$AAu?$AAk?$AA?9?$AAu?$AAa?$AA?$AA@ 000000018005f8d8     libucrt:lcidtoname_downlevel.obj
 0002:000108e8       ??_C@_1M@EPAJJAJF@?$AAu?$AAr?$AA?9?$AAp?$AAk?$AA?$AA@ 000000018005f8e8     libucrt:lcidtoname_downlevel.obj
 0002:000108f8       ??_C@_1BG@GEGPMCDJ@?$AAu?$AAz?$AA?9?$AAu?$AAz?$AA?9?$AAc?$AAy?$AAr?$AAl?$AA?$AA@ 000000018005f8f8     libucrt:lcidtoname_downlevel.obj
 0002:00010910       ??_C@_1BG@EGGKJILM@?$AAu?$AAz?$AA?9?$AAu?$AAz?$AA?9?$AAl?$AAa?$AAt?$AAn?$AA?$AA@ 000000018005f910     libucrt:lcidtoname_downlevel.obj
 0002:00010928       ??_C@_1M@GFOCLFF@?$AAv?$AAi?$AA?9?$AAv?$AAn?$AA?$AA@ 000000018005f928     libucrt:lcidtoname_downlevel.obj
 0002:00010938       ??_C@_1M@CPAMEDFI@?$AAx?$AAh?$AA?9?$AAz?$AAa?$AA?$AA@ 000000018005f938     libucrt:lcidtoname_downlevel.obj
 0002:00010948       ??_C@_1O@EBKIFIGN@?$AAz?$AAh?$AA?9?$AAc?$AAh?$AAs?$AA?$AA@ 000000018005f948     libucrt:lcidtoname_downlevel.obj
 0002:00010958       ??_C@_1O@NMHPGANE@?$AAz?$AAh?$AA?9?$AAc?$AAh?$AAt?$AA?$AA@ 000000018005f958     libucrt:lcidtoname_downlevel.obj
 0002:00010968       ??_C@_1M@LPINJOMC@?$AAz?$AAh?$AA?9?$AAc?$AAn?$AA?$AA@ 000000018005f968     libucrt:lcidtoname_downlevel.obj
 0002:00010978       ??_C@_1M@OCJEJODD@?$AAz?$AAh?$AA?9?$AAh?$AAk?$AA?$AA@ 000000018005f978     libucrt:lcidtoname_downlevel.obj
 0002:00010988       ??_C@_1M@DNDLJINH@?$AAz?$AAh?$AA?9?$AAm?$AAo?$AA?$AA@ 000000018005f988     libucrt:lcidtoname_downlevel.obj
 0002:00010998       ??_C@_1M@MBFDNDND@?$AAz?$AAh?$AA?9?$AAs?$AAg?$AA?$AA@ 000000018005f998     libucrt:lcidtoname_downlevel.obj
 0002:000109a8       ??_C@_1M@IMEPLEPE@?$AAz?$AAh?$AA?9?$AAt?$AAw?$AA?$AA@ 000000018005f9a8     libucrt:lcidtoname_downlevel.obj
 0002:000109b8       ??_C@_1M@BBGHNHJP@?$AAz?$AAu?$AA?9?$AAz?$AAa?$AA?$AA@ 000000018005f9b8     libucrt:lcidtoname_downlevel.obj
 0002:000109c8       _days                      000000018005f9c8     libucrt:days.obj
 0002:00010a00       _lpdays                    000000018005fa00     libucrt:days.obj
 0002:00010a50       ??_C@_1BA@BALFACEM@?$AAC?$AAO?$AAN?$AAO?$AAU?$AAT?$AA$?$AA?$AA@ 000000018005fa50     libucrt:initcon.obj
 0002:00010cb0       __log10_256_lead           000000018005fcb0     libucrt:log10_256_lead_tail_table.obj
 0002:000114c0       __log10_256_tail           00000001800604c0     libucrt:log10_256_lead_tail_table.obj
 0002:00011cc8       ??_C@_1BK@DBDEIDLH@?$AAK?$AAE?$AAR?$AAN?$AAE?$AAL?$AA3?$AA2?$AA?4?$AAD?$AAL?$AAL@ 0000000180060cc8     DelayImp:delayhlp.obj
 0002:00011ce8       __pfnDliFailureHook2       0000000180060ce8     DelayImp:delayhk1.obj
 0002:00011cf0       _load_config_used          0000000180060cf0     LIBCMT:loadcfg.obj
 0002:00011df0       ??_C@_03FJEPELFP@tag@      0000000180060df0     index.obj
 0002:00011df4       ??_C@_04EONOHKEP@load@     0000000180060df4     index.obj
 0002:00011dfc       ??_C@_03OOEBGOEH@cut@      0000000180060dfc     index.obj
 0002:00011e00       ??_C@_06CEFNIFDD@cutAll@   0000000180060e00     index.obj
 0002:00011e08       ??_C@_06OMEFPDIN@cutHMM@   0000000180060e08     index.obj
 0002:00011e10       ??_C@_0N@IHHOLIPI@cutForSearch@ 0000000180060e10     index.obj
 0002:00011e20       ??_C@_08GACIHCNA@cutSmall@ 0000000180060e20     index.obj
 0002:00011e30       ??_C@_07EMKILFJA@extract@  0000000180060e30     index.obj
 0002:00011e38       ??_C@_0BB@ODAFADMI@extractWithWords@ 0000000180060e38     index.obj
 0002:00011e50       ??_C@_0L@HFDMOLGE@insertWord@ 0000000180060e50     index.obj
 0002:00011e60       ??_C@_0BA@LFNAFKLM@textRankExtract@ 0000000180060e60     index.obj
 0002:00011e70       ??_C@_0BJ@DACKJDCP@textRankExtractWithWords@ 0000000180060e70     index.obj
 0002:00011e90       ??_C@_0EM@FCGMGCBH@c?3?2users?2user40?2yinghan?2address@ 0000000180060e90     index.obj
 0002:00011ee0       ??_C@_09NLKOFLKF@nodejieba@ 0000000180060ee0     index.obj
 0002:00011ef0       ??_C@_0BC@BDKFLDHL@unknown?5exception@ 0000000180060ef0     nodejieba.obj
 0002:00011f08       ??_C@_0BA@ELKIONDK@bad?5locale?5name@ 0000000180060f08     nodejieba.obj
 0002:00011f18       ??_C@_05LAPONLG@false@     0000000180060f18     nodejieba.obj
 0002:00011f20       ??_C@_04LOAJBDKD@true@     0000000180060f20     nodejieba.obj
 0002:00011f25       ??_C@_00CNPNBAHC@@         0000000180060f25     nodejieba.obj
 0002:00011f28       ??_C@_02LMMGGCAJ@?3?5@     0000000180060f28     nodejieba.obj
 0002:00011f30       ??_C@_08LLGCOLLL@iostream@ 0000000180060f30     nodejieba.obj
 0002:00011f40       ??_C@_0BG@PADBLCHM@iostream?5stream?5error@ 0000000180060f40     nodejieba.obj
 0002:00011f58       ??_C@_0BF@PHHKMMFD@ios_base?3?3badbit?5set@ 0000000180060f58     nodejieba.obj
 0002:00011f70       ??_C@_0BG@FMKFHCIL@ios_base?3?3failbit?5set@ 0000000180060f70     nodejieba.obj
 0002:00011f88       ??_C@_0BF@OOHOMBOF@ios_base?3?3eofbit?5set@ 0000000180060f88     nodejieba.obj
 0002:00011fa0       ??_C@_0BA@JFNIOLAK@string?5too?5long@ 0000000180060fa0     nodejieba.obj
 0002:00011fb0       ??_C@_1KI@HFACDNGE@?$AAc?$AA?3?$AA?2?$AAu?$AAs?$AAe?$AAr?$AAs?$AA?2?$AAu?$AAs?$AAe?$AAr?$AA4?$AA0@ 0000000180060fb0     nodejieba.obj
 0002:00012060       ??_C@_1FK@CBGIJHDF@?$AAv?$AAa?$AAl?$AAu?$AAe?$AA?4?$AAs?$AAi?$AAz?$AAe?$AA?$CI?$AA?$CJ?$AA?5?$AA?$DM?$AA?$DN@ 0000000180061060     nodejieba.obj
 0002:000120c0       ??_C@_1HM@OENKLHCC@?$AAc?$AA?3?$AA?2?$AAu?$AAs?$AAe?$AAr?$AAs?$AA?2?$AAu?$AAs?$AAe?$AAr?$AA4?$AA0@ 00000001800610c0     nodejieba.obj
 0002:00012140       ??_C@_1BO@OPFMAOCA@?$AAl?$AAe?$AAn?$AA?5?$AA?$DM?$AA?$DN?$AA?5?$AAI?$AAN?$AAT?$AA_?$AAM?$AAA?$AAX@ 0000000180061140     nodejieba.obj
 0002:00012160       ??_C@_1BE@CKDJNAPC@?$AAs?$AAt?$AAr?$AA_?$AA?5?$AA?$CB?$AA?$DN?$AA?5?$AA0@ 0000000180061160     nodejieba.obj
 0002:00012174       ??_C@_04EHIOMBPF@word@     0000000180061174     nodejieba.obj
 0002:0001217c       ??_C@_06CMCBKMCB@weight@   000000018006117c     nodejieba.obj
 0002:00012184       ??_C@_05KOLFGEDA@DEBUG@    0000000180061184     nodejieba.obj
 0002:0001218c       ??_C@_04BEADLPGM@INFO@     000000018006118c     nodejieba.obj
 0002:00012194       ??_C@_04JBIELMDE@WARN@     0000000180061194     nodejieba.obj
 0002:0001219c       ??_C@_05MBDEGLCK@ERROR@    000000018006119c     nodejieba.obj
 0002:000121a4       ??_C@_05JLFELJNP@FATAL@    00000001800611a4     nodejieba.obj
 0002:000121b0       ??_C@_0BC@LGPAMIPH@?$CFY?9?$CFm?9?$CFd?5?$CFH?3?$CFM?3?$CFS@ 00000001800611b0     nodejieba.obj
 0002:000121d0       ??_C@_1KM@KGFIIPDF@?$AAc?$AA?3?$AA?2?$AAu?$AAs?$AAe?$AAr?$AAs?$AA?2?$AAu?$AAs?$AAe?$AAr?$AA4?$AA0@ 00000001800611d0     nodejieba.obj
 0002:00012280       ??_C@_1HG@HHLCFMPM@?$AAl?$AAe?$AAv?$AAe?$AAl?$AA_?$AA?5?$AA?$DM?$AA?$DN?$AA?5?$AAs?$AAi?$AAz?$AAe?$AAo@ 0000000180061280     nodejieba.obj
 0002:000122f8       ??_C@_01CLKCMJKC@?5@       00000001800612f8     nodejieba.obj
 0002:000122fc       ??_C@_01JLIPDDHJ@?3@       00000001800612fc     nodejieba.obj
 0002:00012300       ??_C@_01KMDKNFGN@?1@       0000000180061300     nodejieba.obj
 0002:00012310       ??_C@_1LA@JCCCDLIA@?$AAc?$AA?3?$AA?2?$AAu?$AAs?$AAe?$AAr?$AAs?$AA?2?$AAu?$AAs?$AAe?$AAr?$AA4?$AA0@ 0000000180061310     nodejieba.obj
 0002:000123c0       ??_C@_1DM@CKOKLGCG@?$AAr?$AAi?$AAg?$AAh?$AAt?$AA?9?$AA?$DO?$AAo?$AAf?$AAf?$AAs?$AAe?$AAt?$AA?5?$AA?$DO@ 00000001800613c0     nodejieba.obj
 0002:00012400       ??_C@_1KK@PEAMBJKJ@?$AAc?$AA?3?$AA?2?$AAu?$AAs?$AAe?$AAr?$AAs?$AA?2?$AAu?$AAs?$AAe?$AAr?$AA4?$AA0@ 0000000180061400     nodejieba.obj
 0002:000124b0       ??_C@_1BM@LEGIAKN@?$AAr?$AAo?$AAo?$AAt?$AA_?$AA?5?$AA?$CB?$AA?$DN?$AA?5?$AAN?$AAU?$AAL?$AAL@ 00000001800614b0     nodejieba.obj
 0002:000124d0       ??_C@_1BO@GLGLHCIH@?$AAp?$AAt?$AAN?$AAo?$AAd?$AAe?$AA?5?$AA?$CB?$AA?$DN?$AA?5?$AAN?$AAU?$AAL?$AAL@ 00000001800614d0     nodejieba.obj
 0002:000124f0       ??_C@_1EI@CMHJFEKK@?$AAk?$AAe?$AAy?$AAs?$AA?4?$AAs?$AAi?$AAz?$AAe?$AA?$CI?$AA?$CJ?$AA?5?$AA?$DN?$AA?$DN?$AA?5@ 00000001800614f0     nodejieba.obj
 0002:00012538       ??_C@_0P@NMEFKJNE@Decode?5failed?4@ 0000000180061538     nodejieba.obj
 0002:00012550       ??_C@_0FJ@MDLIOOJK@c?3?2users?2user40?2yinghan?2address@ 0000000180061550     nodejieba.obj
 0002:000125b0       ??_C@_1LC@DKENMMNJ@?$AAc?$AA?3?$AA?2?$AAu?$AAs?$AAe?$AAr?$AAs?$AA?2?$AAu?$AAs?$AAe?$AAr?$AA4?$AA0@ 00000001800615b0     nodejieba.obj
 0002:00012668       ??_C@_1CA@KCLNMCLO@?$AAf?$AAr?$AAe?$AAq?$AA_?$AAs?$AAu?$AAm?$AA_?$AA?5?$AA?$DO?$AA?5?$AA0?$AA?4?$AA0@ 0000000180061668     nodejieba.obj
 0002:00012688       ??_C@_02GBOHFIOB@?$HM?$DL@ 0000000180061688     nodejieba.obj
 0002:00012690       ??_C@_07OCDKBNAP@?5failed@ 0000000180061690     nodejieba.obj
 0002:00012698       ??_C@_05JFHIMGKF@open?5@   0000000180061698     nodejieba.obj
 0002:000126a0       ??_C@_09IDMAOLPI@?$FN?5false?4?5@ 00000001800616a0     nodejieba.obj
 0002:000126b0       ??_C@_0BE@ONLJFDGI@exp?3?5?$FLifs?4is_open?$CI?$CJ@ 00000001800616b0     nodejieba.obj
 0002:000126c8       ??_C@_1CC@FLHHECFC@?$AAd?$AAi?$AAc?$AAt?$AAU?$AAn?$AAi?$AAt?$AAs?$AA?4?$AAs?$AAi?$AAz?$AAe?$AA?$CI@ 00000001800616c8     nodejieba.obj
 0002:000126f0       ??_C@_08JLFKCOKA@?5failed?4@ 00000001800616f0     nodejieba.obj
 0002:00012700       ??_C@_07BEFKFPJG@Decode?5@ 0000000180061700     nodejieba.obj
 0002:00012708       ??_C@_0BM@IANMBCPE@split?5result?5illegal?0?5line?3@ 0000000180061708     nodejieba.obj
 0002:00012728       ??_C@_0CE@BICEOEBJ@exp?3?5?$FLbuf?4size?$CI?$CJ?5?$DN?$DN?5DICT_COLUMN@ 0000000180061728     nodejieba.obj
 0002:00012750       ??_C@_0CC@KJOCALGI@exp?3?5?$FL?$CBstatic_node_infos_?4empty@ 0000000180061750     nodejieba.obj
 0002:00012778       ??_C@_1BE@LKLJBJHJ@?$AAs?$AAu?$AAm?$AA?5?$AA?$DO?$AA?5?$AA0?$AA?4?$AA0@ 0000000180061778     nodejieba.obj
 0002:00012790       ??_C@_1CO@LEEMAAHG@?$AAn?$AAo?$AAd?$AAe?$AA_?$AAi?$AAn?$AAf?$AAo?$AA?4?$AAw?$AAe?$AAi?$AAg?$AAh@ 0000000180061790     nodejieba.obj
 0002:000127c0       ??_C@_0BA@DNJAMLL@decode?5failed?4?5@ 00000001800617c0     nodejieba.obj
 0002:000127d0       ??_C@_0FK@GCOPGEPC@c?3?2users?2user40?2yinghan?2address@ 00000001800617d0     nodejieba.obj
 0002:00012830       ??_C@_09KOPHGJDG@?5?7?6?o?$LM?$IM?c?$IA?$IC@ 0000000180061830     nodejieba.obj
 0002:00012840       ??_C@_0CK@IPOPEFIE@exp?3?5?$FLResetSeparators?$CISPECIAL_S@ 0000000180061840     nodejieba.obj
 0002:00012870       ??_C@_0FM@MALGDAKM@c?3?2users?2user40?2yinghan?2address@ 0000000180061870     nodejieba.obj
 0002:000128d0       ??_C@_07ONCMDNMA@decode?5@ 00000001800618d0     nodejieba.obj
 0002:000128d8       ??_C@_0BA@FLFCHLDM@?5already?5exists@ 00000001800618d8     nodejieba.obj
 0002:000128f0       ??_C@_1LI@JGGHMNOJ@?$AAc?$AA?3?$AA?2?$AAu?$AAs?$AAe?$AAr?$AAs?$AA?2?$AAu?$AAs?$AAe?$AAr?$AA4?$AA0@ 00000001800618f0     nodejieba.obj
 0002:000129a8       ??_C@_1BE@KEHDKEPL@?$AAd?$AAi?$AAc?$AAt?$AAT?$AAr?$AAi?$AAe?$AA_@ 00000001800619a8     nodejieba.obj
 0002:000129c0       ??_C@_1DC@FBABHNBN@?$AAn?$AAe?$AAx?$AAt?$AAo?$AAf?$AAf?$AAs?$AAe?$AAt?$AA?5?$AA?$DM?$AA?5?$AAd?$AAa@ 00000001800619c0     nodejieba.obj
 0002:000129f4       ??_C@_01GOHFPIOK@m@        00000001800619f4     nodejieba.obj
 0002:000129f8       ??_C@_03LKLGDMJI@eng@      00000001800619f8     nodejieba.obj
 0002:000129fc       ??_C@_01FJMABOPO@x@        00000001800619fc     nodejieba.obj
 0002:00012a00       ??_C@_1LE@NADGBHKO@?$AAc?$AA?3?$AA?2?$AAu?$AAs?$AAe?$AAr?$AAs?$AA?2?$AAu?$AAs?$AAe?$AAr?$AA4?$AA0@ 0000000180061a00     nodejieba.obj
 0002:00012ab8       ??_C@_1BK@JEMNKLBK@?$AAd?$AAi?$AAc?$AAt?$AA?5?$AA?$CB?$AA?$DN?$AA?5?$AAN?$AAU?$AAL?$AAL@ 0000000180061ab8     nodejieba.obj
 0002:00012ae0       ??_C@_0FK@OHMNHPKB@c?3?2users?2user40?2yinghan?2address@ 0000000180061ae0     nodejieba.obj
 0002:00012b40       ??_C@_1LE@OJMAOHKI@?$AAc?$AA?3?$AA?2?$AAu?$AAs?$AAe?$AAr?$AAs?$AA?2?$AAu?$AAs?$AAe?$AAr?$AA4?$AA0@ 0000000180061b40     nodejieba.obj
 0002:00012bf8       ??_C@_1CI@DMPMCEPO@?$AA?$CB?$AAr?$AAi?$AAt?$AA?9?$AA?$DO?$AAn?$AAe?$AAx?$AAt?$AAs?$AA?4?$AAe?$AAm?$AAp@ 0000000180061bf8     nodejieba.obj
 0002:00012c20       ??_C@_1CI@MPLFAFKH@?$AAp?$AA?9?$AA?$DO?$AAw?$AAo?$AAr?$AAd?$AA?4?$AAs?$AAi?$AAz?$AAe?$AA?$CI?$AA?$CJ?$AA?5@ 0000000180061c20     nodejieba.obj
 0002:00012c48       ??_C@_0BG@MGGJGIGH@exp?3?5?$FLifile?4is_open?$CI?$CJ@ 0000000180061c48     nodejieba.obj
 0002:00012c60       ??_C@_0FJ@KHCHDCIG@c?3?2users?2user40?2yinghan?2address@ 0000000180061c60     nodejieba.obj
 0002:00012cc0       ??_C@_0BL@LBKMIEFA@exp?3?5?$FLGetLine?$CIifile?0?5line?$CJ@ 0000000180061cc0     nodejieba.obj
 0002:00012ce0       ??_C@_0BP@NHLHLPOB@exp?3?5?$FLtmp?4size?$CI?$CJ?5?$DN?$DN?5STATUS_SUM@ 0000000180061ce0     nodejieba.obj
 0002:00012d00       ??_C@_0CE@NGMDNELO@exp?3?5?$FLLoadEmitProb?$CIline?0?5emitPr@ 0000000180061d00     nodejieba.obj
 0002:00012d28       ??_C@_0CE@NDIMMCDL@exp?3?5?$FLLoadEmitProb?$CIline?0?5emitPr@ 0000000180061d28     nodejieba.obj
 0002:00012d50       ??_C@_0CE@NNJPJDID@exp?3?5?$FLLoadEmitProb?$CIline?0?5emitPr@ 0000000180061d50     nodejieba.obj
 0002:00012d78       ??_C@_0CE@MLCHBNPJ@exp?3?5?$FLLoadEmitProb?$CIline?0?5emitPr@ 0000000180061d78     nodejieba.obj
 0002:00012d9c       ??_C@_01IPJKGB@?$CD@       0000000180061d9c     nodejieba.obj
 0002:00012da0       ??_C@_01IHBHIGKO@?0@       0000000180061da0     nodejieba.obj
 0002:00012da8       ??_C@_0BC@PDPNLGKN@emitProb?5illegal?4@ 0000000180061da8     nodejieba.obj
 0002:00012dc0       ??_C@_0BC@BGGOKDAF@TransCode?5failed?4@ 0000000180061dc0     nodejieba.obj
 0002:00012de0       ??_C@_1LG@CGBOMEIG@?$AAc?$AA?3?$AA?2?$AAu?$AAs?$AAe?$AAr?$AAs?$AA?2?$AAu?$AAs?$AAe?$AAr?$AA4?$AA0@ 0000000180061de0     nodejieba.obj
 0002:00012e98       ??_C@_1BK@OKFGHNFI@?$AAe?$AAn?$AAd?$AA?5?$AA?$DO?$AA?$DN?$AA?5?$AAb?$AAe?$AAg?$AAi?$AAn@ 0000000180061e98     nodejieba.obj
 0002:00012eb8       ??_C@_1BG@CGKCHLJE@?$AAj?$AA?5?$AA?9?$AA?5?$AA1?$AA?5?$AA?$DO?$AA?$DN?$AA?5?$AAi@ 0000000180061eb8     nodejieba.obj
 0002:00012ed0       ??_C@_0GB@ENOEDAPG@c?3?2users?2user40?2yinghan?2address@ 0000000180061ed0     nodejieba.obj
 0002:00012f38       ??_C@_0BB@LHLNCINB@?5empty?4?5skipped?4@ 0000000180061f38     nodejieba.obj
 0002:00012f50       ??_C@_08BGIKOBLN@lineno?3?5@ 0000000180061f50     nodejieba.obj
 0002:00012f60       ??_C@_0L@FINPFKDP@?0?5lineno?3?5@ 0000000180061f60     nodejieba.obj
 0002:00012f6c       ??_C@_06JHPMNCHL@line?3?5@ 0000000180061f6c     nodejieba.obj
 0002:00012f80       ??_C@_1MC@MNODHEAM@?$AAc?$AA?3?$AA?2?$AAu?$AAs?$AAe?$AAr?$AAs?$AA?2?$AAu?$AAs?$AAe?$AAr?$AA4?$AA0@ 0000000180061f80     nodejieba.obj
 0002:00013048       ??_C@_1O@DLAJNNMG@?$AAl?$AAi?$AAn?$AAe?$AAn?$AAo@ 0000000180062048     nodejieba.obj
 0002:00013058       ??_C@_1CE@GDKMKFPD@?$AAi?$AAd?$AAf?$AAA?$AAv?$AAe?$AAr?$AAa?$AAg?$AAe?$AA_?$AA?5?$AA?$DO?$AA?5?$AA0@ 0000000180062058     nodejieba.obj
 0002:00013080       ??_C@_1CE@EAGFJHKK@?$AAs?$AAt?$AAo?$AAp?$AAW?$AAo?$AAr?$AAd?$AAs?$AA_?$AA?4?$AAs?$AAi?$AAz?$AAe@ 0000000180062080     nodejieba.obj
 0002:000130a8       ??_C@_09PKBCCNBN@ns?0n?0vn?0v@ 00000001800620a8     nodejieba.obj
 0002:000130c0       ??_C@_0GC@JPGBBFH@c?3?2users?2user40?2yinghan?2address@ 00000001800620c0     nodejieba.obj
 0002:00013130       ??_C@_1ME@NMEDDAGB@?$AAc?$AA?3?$AA?2?$AAu?$AAs?$AAe?$AAr?$AAs?$AA?2?$AAu?$AAs?$AAe?$AAr?$AA4?$AA0@ 0000000180062130     nodejieba.obj
 0002:00013200       ??_C@_1KA@DEMOALKO@?$AAc?$AA?3?$AA?2?$AAu?$AAs?$AAe?$AAr?$AAs?$AA?2?$AAu?$AAs?$AAe?$AAr?$AA4?$AA0@ 0000000180062200     nodejieba.obj
 0002:000132a0       ??_C@_1CI@PJGFNNNJ@?$AAg?$AAl?$AAo?$AAb?$AAa?$AAl?$AA_?$AAj?$AAi?$AAe?$AAb?$AAa?$AA_?$AAh?$AAa@ 00000001800622a0     nodejieba.obj
 0002:000132d0       ??_C@_1EC@GHCEDKBN@?$AAg?$AAl?$AAo?$AAb?$AAa?$AAl?$AA_?$AAt?$AAe?$AAx?$AAt?$AAr?$AAa?$AAn?$AAk@ 00000001800622d0     nodejieba.obj
 0002:00013320       ??_C@_1LE@EBCAIODG@?$AAc?$AA?3?$AA?2?$AAu?$AAs?$AAe?$AAr?$AAs?$AA?2?$AAu?$AAs?$AAe?$AAr?$AA4?$AA0@ 0000000180062320     nodejieba.obj
 0002:000133d8       ??_C@_1BE@FDMNDHIH@?$AAc?$AAa?$AAp?$AAa?$AAc?$AAi?$AAt?$AAy?$AA_@ 00000001800623d8     nodejieba.obj
 0002:000133f0       ??_C@_19EIHMLFPC@?$AAn?$AAe?$AAx?$AAt@ 00000001800623f0     nodejieba.obj
 0002:00013400       ??_C@_0BD@OLBABOEK@vector?$DMT?$DO?5too?5long@ 0000000180062400     nodejieba.obj
 0002:00013418       ??_C@_19BHKCDOEF@?$AAp?$AAt?$AAr?$AA_@ 0000000180062418     nodejieba.obj
 0002:00013424       ??_C@_02BBAHNLBA@?$CFp@    0000000180062424     nodejieba.obj
 0002:00013428       ??_C@_0BC@KBDMBKEH@deque?$DMT?$DO?5too?5long@ 0000000180062428     nodejieba.obj
 0002:0001343c       ??_C@_02MDKMJEGG@eE@       000000018006243c     nodejieba.obj
 0002:00013440       ??_C@_02OOPEBDOJ@pP@       0000000180062440     nodejieba.obj
 0002:00013448       ??_C@_0BI@CFPLBAOH@invalid?5string?5position@ 0000000180062448     nodejieba.obj
 0002:00013460       ??_C@_0BE@JONHPENG@map?1set?$DMT?$DO?5too?5long@ 0000000180062460     nodejieba.obj
 0002:00013478       ??_C@_0BB@MOGOBHAF@list?$DMT?$DO?5too?5long@ 0000000180062478     nodejieba.obj
 0002:00013490       ??_7?$basic_ostringstream@DU?$char_traits@D@std@@V?$allocator@D@2@@std@@6B@ 0000000180062490     nodejieba.obj
 0002:000134f8       __pfnDliNotifyHook2        00000001800624f8     win_delay_load_hook.obj
 0002:00013500       ??_7FullSegment@cppjieba@@6B@ 0000000180062500     nodejieba.obj
 0002:00013510       ??_7QuerySegment@cppjieba@@6B@ 0000000180062510     nodejieba.obj
 0002:00013520       ??_7MixSegment@cppjieba@@6B@ 0000000180062520     nodejieba.obj
 0002:00013540       ??_7exception@stdext@@6B@  0000000180062540     nodejieba.obj
 0002:00013558       ??_7?$basic_stringbuf@DU?$char_traits@D@std@@V?$allocator@D@2@@std@@6B@ 0000000180062558     nodejieba.obj
 0002:000135d0       ??_8?$basic_ifstream@DU?$char_traits@D@std@@@std@@7B@ 00000001800625d0     nodejieba.obj
 0002:000135d8       ??_7?$basic_istream@DU?$char_traits@D@std@@@std@@6B@ 00000001800625d8     nodejieba.obj
 0002:000135e0       ??_7HMMSegment@cppjieba@@6B@ 00000001800625e0     nodejieba.obj
 0002:000135f0       ??_8?$basic_ostream@DU?$char_traits@D@std@@@std@@7B@ 00000001800625f0     nodejieba.obj
 0002:000135f8       ??_8?$basic_ostringstream@DU?$char_traits@D@std@@V?$allocator@D@2@@std@@7B@ 00000001800625f8     nodejieba.obj
 0002:00013600       ??_7MPSegment@cppjieba@@6B@ 0000000180062600     nodejieba.obj
 0002:00013620       ??_7?$basic_ifstream@DU?$char_traits@D@std@@@std@@6B@ 0000000180062620     nodejieba.obj
 0002:00013628       ??_7SegmentBase@cppjieba@@6B@ 0000000180062628     nodejieba.obj
 0002:00013638       ??_C@_08HCOMDCCD@iojs?4exe@ 0000000180062638     win_delay_load_hook.obj
 0002:00013648       ??_C@_08JDDNMFDB@node?4exe@ 0000000180062648     win_delay_load_hook.obj
 0002:000136a8       __real@3feb333333333333    00000001800626a8     nodejieba.obj
 0002:000136b0       __real@3ff0000000000000    00000001800626b0     nodejieba.obj
 0002:000136b8       __real@4024000000000000    00000001800626b8     nodejieba.obj
 0002:000136c0       __real@4202a05f20000000    00000001800626c0     nodejieba.obj
 0002:000136c8       __real@43f0000000000000    00000001800626c8     nodejieba.obj
 0002:000136d0       __real@5f800000            00000001800626d0     nodejieba.obj
 0002:000136d8       __real@d4ccb63b5c484765    00000001800626d8     nodejieba.obj
 0002:000136e0       __xmm@000000000000000f0000000000000000 00000001800626e0     nodejieba.obj
 0002:000136f0       __xmm@7fffffffffffffff7fffffffffffffff 00000001800626f0     nodejieba.obj
 0002:00014d10       ??_R4exception@std@@6B@    0000000180063d10     libcpmt:xonce.obj
 0002:00014d38       ??_R3exception@std@@8      0000000180063d38     libcpmt:xonce.obj
 0002:00014d50       ??_R2exception@std@@8      0000000180063d50     libcpmt:xonce.obj
 0002:00014d60       ??_R1A@?0A@EA@exception@std@@8 0000000180063d60     libcpmt:xonce.obj
 0002:00014d88       ??_R4runtime_error@std@@6B@ 0000000180063d88     libcpmt:xonce.obj
 0002:00014db0       ??_R3runtime_error@std@@8  0000000180063db0     libcpmt:xonce.obj
 0002:00014dc8       ??_R2runtime_error@std@@8  0000000180063dc8     libcpmt:xonce.obj
 0002:00014de0       ??_R1A@?0A@EA@runtime_error@std@@8 0000000180063de0     libcpmt:xonce.obj
 0002:00014e08       ??_R3error_category@std@@8 0000000180063e08     libcpmt:xonce.obj
 0002:00014e20       ??_R2error_category@std@@8 0000000180063e20     libcpmt:xonce.obj
 0002:00014e30       ??_R1A@?0A@EA@error_category@std@@8 0000000180063e30     libcpmt:xonce.obj
 0002:00014e58       ??_R4_System_error@std@@6B@ 0000000180063e58     libcpmt:xonce.obj
 0002:00014e80       ??_R3_System_error@std@@8  0000000180063e80     libcpmt:xonce.obj
 0002:00014e98       ??_R2_System_error@std@@8  0000000180063e98     libcpmt:xonce.obj
 0002:00014eb8       ??_R1A@?0A@EA@_System_error@std@@8 0000000180063eb8     libcpmt:xonce.obj
 0002:00014ee0       ??_R3system_error@std@@8   0000000180063ee0     libcpmt:xonce.obj
 0002:00014ef8       ??_R2system_error@std@@8   0000000180063ef8     libcpmt:xonce.obj
 0002:00014f20       ??_R1A@?0A@EA@system_error@std@@8 0000000180063f20     libcpmt:xonce.obj
 0002:00014f48       ??_R3_Generic_error_category@std@@8 0000000180063f48     libcpmt:xonce.obj
 0002:00014f60       ??_R2_Generic_error_category@std@@8 0000000180063f60     libcpmt:xonce.obj
 0002:00014f78       ??_R1A@?0A@EA@_Generic_error_category@std@@8 0000000180063f78     libcpmt:xonce.obj
 0002:00014fa0       ??_R4_Facet_base@std@@6B@  0000000180063fa0     libcpmt:locale0.obj
 0002:00014fc8       ??_R3_Facet_base@std@@8    0000000180063fc8     libcpmt:locale0.obj
 0002:00014fe0       ??_R2_Facet_base@std@@8    0000000180063fe0     libcpmt:locale0.obj
 0002:00014ff0       ??_R1A@?0A@EA@_Facet_base@std@@8 0000000180063ff0     libcpmt:locale0.obj
 0002:00015018       ??_R4_Locimp@locale@std@@6B@ 0000000180064018     libcpmt:locale0.obj
 0002:00015040       ??_R3_Locimp@locale@std@@8 0000000180064040     libcpmt:locale0.obj
 0002:00015058       ??_R2_Locimp@locale@std@@8 0000000180064058     libcpmt:locale0.obj
 0002:00015080       ??_R1A@?0A@EA@_Locimp@locale@std@@8 0000000180064080     libcpmt:locale0.obj
 0002:000150a8       ??_R1A@?0A@EA@facet@locale@std@@8 00000001800640a8     libcpmt:locale0.obj
 0002:000150d0       ??_R3facet@locale@std@@8   00000001800640d0     libcpmt:locale0.obj
 0002:000150e8       ??_R2facet@locale@std@@8   00000001800640e8     libcpmt:locale0.obj
 0002:00015108       ??_R17?0A@EA@_Crt_new_delete@std@@8 0000000180064108     libcpmt:locale0.obj
 0002:00015130       ??_R3_Crt_new_delete@std@@8 0000000180064130     libcpmt:locale0.obj
 0002:00015148       ??_R2_Crt_new_delete@std@@8 0000000180064148     libcpmt:locale0.obj
 0002:00015158       ??_R1A@?0A@EA@_Crt_new_delete@std@@8 0000000180064158     libcpmt:locale0.obj
 0002:00015180       ??_R4bad_alloc@std@@6B@    0000000180064180     libcpmt:xthrow.obj
 0002:000151a8       ??_R3bad_alloc@std@@8      00000001800641a8     libcpmt:xthrow.obj
 0002:000151c0       ??_R2bad_alloc@std@@8      00000001800641c0     libcpmt:xthrow.obj
 0002:000151d8       ??_R1A@?0A@EA@bad_alloc@std@@8 00000001800641d8     libcpmt:xthrow.obj
 0002:00015200       ??_R4logic_error@std@@6B@  0000000180064200     libcpmt:xthrow.obj
 0002:00015228       ??_R3logic_error@std@@8    0000000180064228     libcpmt:xthrow.obj
 0002:00015240       ??_R2logic_error@std@@8    0000000180064240     libcpmt:xthrow.obj
 0002:00015258       ??_R1A@?0A@EA@logic_error@std@@8 0000000180064258     libcpmt:xthrow.obj
 0002:00015280       ??_R4length_error@std@@6B@ 0000000180064280     libcpmt:xthrow.obj
 0002:000152a8       ??_R3length_error@std@@8   00000001800642a8     libcpmt:xthrow.obj
 0002:000152c0       ??_R2length_error@std@@8   00000001800642c0     libcpmt:xthrow.obj
 0002:000152e0       ??_R1A@?0A@EA@length_error@std@@8 00000001800642e0     libcpmt:xthrow.obj
 0002:00015308       ??_R4out_of_range@std@@6B@ 0000000180064308     libcpmt:xthrow.obj
 0002:00015330       ??_R3out_of_range@std@@8   0000000180064330     libcpmt:xthrow.obj
 0002:00015348       ??_R2out_of_range@std@@8   0000000180064348     libcpmt:xthrow.obj
 0002:00015368       ??_R1A@?0A@EA@out_of_range@std@@8 0000000180064368     libcpmt:xthrow.obj
 0002:00015390       ??_R4ios_base@std@@6B@     0000000180064390     libcpmt:cerr.obj
 0002:000153b8       ??_R3ios_base@std@@8       00000001800643b8     libcpmt:cerr.obj
 0002:000153d0       ??_R2ios_base@std@@8       00000001800643d0     libcpmt:cerr.obj
 0002:000153e8       ??_R1A@?0A@EA@ios_base@std@@8 00000001800643e8     libcpmt:cerr.obj
 0002:00015410       ??_R17?0A@EA@?$_Iosb@H@std@@8 0000000180064410     libcpmt:cerr.obj
 0002:00015438       ??_R3?$_Iosb@H@std@@8      0000000180064438     libcpmt:cerr.obj
 0002:00015450       ??_R2?$_Iosb@H@std@@8      0000000180064450     libcpmt:cerr.obj
 0002:00015460       ??_R1A@?0A@EA@?$_Iosb@H@std@@8 0000000180064460     libcpmt:cerr.obj
 0002:00015488       ??_R4?$basic_ios@DU?$char_traits@D@std@@@std@@6B@ 0000000180064488     libcpmt:cerr.obj
 0002:000154b0       ??_R3?$basic_ios@DU?$char_traits@D@std@@@std@@8 00000001800644b0     libcpmt:cerr.obj
 0002:000154c8       ??_R2?$basic_ios@DU?$char_traits@D@std@@@std@@8 00000001800644c8     libcpmt:cerr.obj
 0002:000154e8       ??_R1A@?0A@EA@?$basic_ios@DU?$char_traits@D@std@@@std@@8 00000001800644e8     libcpmt:cerr.obj
 0002:00015510       ??_R4?$basic_streambuf@DU?$char_traits@D@std@@@std@@6B@ 0000000180064510     libcpmt:cerr.obj
 0002:00015538       ??_R3?$basic_streambuf@DU?$char_traits@D@std@@@std@@8 0000000180064538     libcpmt:cerr.obj
 0002:00015550       ??_R2?$basic_streambuf@DU?$char_traits@D@std@@@std@@8 0000000180064550     libcpmt:cerr.obj
 0002:00015560       ??_R1A@?0A@EA@?$basic_streambuf@DU?$char_traits@D@std@@@std@@8 0000000180064560     libcpmt:cerr.obj
 0002:00015588       ??_R4?$basic_ostream@DU?$char_traits@D@std@@@std@@6B@ 0000000180064588     libcpmt:cerr.obj
 0002:000155b0       ??_R3?$basic_ostream@DU?$char_traits@D@std@@@std@@8 00000001800645b0     libcpmt:cerr.obj
 0002:000155c8       ??_R2?$basic_ostream@DU?$char_traits@D@std@@@std@@8 00000001800645c8     libcpmt:cerr.obj
 0002:000155f0       ??_R1A@?0A@EA@?$basic_ostream@DU?$char_traits@D@std@@@std@@8 00000001800645f0     libcpmt:cerr.obj
 0002:00015618       ??_R1A@A@3FA@?$basic_ios@DU?$char_traits@D@std@@@std@@8 0000000180064618     libcpmt:cerr.obj
 0002:00015640       ??_R1A@A@3EA@ios_base@std@@8 0000000180064640     libcpmt:cerr.obj
 0002:00015668       ??_R17A@3EA@?$_Iosb@H@std@@8 0000000180064668     libcpmt:cerr.obj
 0002:00015690       ??_R4?$basic_filebuf@DU?$char_traits@D@std@@@std@@6B@ 0000000180064690     libcpmt:cerr.obj
 0002:000156b8       ??_R3?$basic_filebuf@DU?$char_traits@D@std@@@std@@8 00000001800646b8     libcpmt:cerr.obj
 0002:000156d0       ??_R2?$basic_filebuf@DU?$char_traits@D@std@@@std@@8 00000001800646d0     libcpmt:cerr.obj
 0002:000156e8       ??_R1A@?0A@EA@?$basic_filebuf@DU?$char_traits@D@std@@@std@@8 00000001800646e8     libcpmt:cerr.obj
 0002:00015710       ??_R3codecvt_base@std@@8   0000000180064710     libcpmt:cerr.obj
 0002:00015728       ??_R2codecvt_base@std@@8   0000000180064728     libcpmt:cerr.obj
 0002:00015750       ??_R1A@?0A@EA@codecvt_base@std@@8 0000000180064750     libcpmt:cerr.obj
 0002:00015778       ??_R3ctype_base@std@@8     0000000180064778     libcpmt:cerr.obj
 0002:00015790       ??_R2ctype_base@std@@8     0000000180064790     libcpmt:cerr.obj
 0002:000157b8       ??_R1A@?0A@EA@ctype_base@std@@8 00000001800647b8     libcpmt:cerr.obj
 0002:000157e0       ??_R4?$ctype@D@std@@6B@    00000001800647e0     libcpmt:cerr.obj
 0002:00015808       ??_R3?$ctype@D@std@@8      0000000180064808     libcpmt:cerr.obj
 0002:00015820       ??_R2?$ctype@D@std@@8      0000000180064820     libcpmt:cerr.obj
 0002:00015850       ??_R1A@?0A@EA@?$ctype@D@std@@8 0000000180064850     libcpmt:cerr.obj
 0002:00015878       ??_R4_Iostream_error_category@std@@6B@ 0000000180064878     libcpmt:cerr.obj
 0002:000158a0       ??_R3_Iostream_error_category@std@@8 00000001800648a0     libcpmt:cerr.obj
 0002:000158b8       ??_R2_Iostream_error_category@std@@8 00000001800648b8     libcpmt:cerr.obj
 0002:000158d8       ??_R1A@?0A@EA@_Iostream_error_category@std@@8 00000001800648d8     libcpmt:cerr.obj
 0002:00015900       ??_R4failure@ios_base@std@@6B@ 0000000180064900     libcpmt:cerr.obj
 0002:00015928       ??_R3failure@ios_base@std@@8 0000000180064928     libcpmt:cerr.obj
 0002:00015940       ??_R2failure@ios_base@std@@8 0000000180064940     libcpmt:cerr.obj
 0002:00015970       ??_R1A@?0A@EA@failure@ios_base@std@@8 0000000180064970     libcpmt:cerr.obj
 0002:00015998       ??_R4?$codecvt@DDU_Mbstatet@@@std@@6B@ 0000000180064998     libcpmt:cerr.obj
 0002:000159c0       ??_R3?$codecvt@DDU_Mbstatet@@@std@@8 00000001800649c0     libcpmt:cerr.obj
 0002:000159d8       ??_R2?$codecvt@DDU_Mbstatet@@@std@@8 00000001800649d8     libcpmt:cerr.obj
 0002:00015a08       ??_R1A@?0A@EA@?$codecvt@DDU_Mbstatet@@@std@@8 0000000180064a08     libcpmt:cerr.obj
 0002:00015a30       ??_R4?$num_put@DV?$ostreambuf_iterator@DU?$char_traits@D@std@@@std@@@std@@6B@ 0000000180064a30     libcpmt:locale.obj
 0002:00015a58       ??_R3?$num_put@DV?$ostreambuf_iterator@DU?$char_traits@D@std@@@std@@@std@@8 0000000180064a58     libcpmt:locale.obj
 0002:00015a70       ??_R2?$num_put@DV?$ostreambuf_iterator@DU?$char_traits@D@std@@@std@@@std@@8 0000000180064a70     libcpmt:locale.obj
 0002:00015a98       ??_R1A@?0A@EA@?$num_put@DV?$ostreambuf_iterator@DU?$char_traits@D@std@@@std@@@std@@8 0000000180064a98     libcpmt:locale.obj
 0002:00015ac0       ??_R4?$numpunct@D@std@@6B@ 0000000180064ac0     libcpmt:locale.obj
 0002:00015ae8       ??_R3?$numpunct@D@std@@8   0000000180064ae8     libcpmt:locale.obj
 0002:00015b00       ??_R2?$numpunct@D@std@@8   0000000180064b00     libcpmt:locale.obj
 0002:00015b28       ??_R1A@?0A@EA@?$numpunct@D@std@@8 0000000180064b28     libcpmt:locale.obj
 0002:00015b50       ??_R4type_info@@6B@        0000000180064b50     LIBCMT:std_type_info_static.obj
 0002:00015b78       ??_R3type_info@@8          0000000180064b78     LIBCMT:std_type_info_static.obj
 0002:00015b90       ??_R2type_info@@8          0000000180064b90     LIBCMT:std_type_info_static.obj
 0002:00015ba0       ??_R1A@?0A@EA@type_info@@8 0000000180064ba0     LIBCMT:std_type_info_static.obj
 0002:00015bc8       ??_R4bad_array_new_length@std@@6B@ 0000000180064bc8     LIBCMT:throw_bad_alloc.obj
 0002:00015bf0       ??_R3bad_array_new_length@std@@8 0000000180064bf0     LIBCMT:throw_bad_alloc.obj
 0002:00015c08       ??_R2bad_array_new_length@std@@8 0000000180064c08     LIBCMT:throw_bad_alloc.obj
 0002:00015c28       ??_R1A@?0A@EA@bad_array_new_length@std@@8 0000000180064c28     LIBCMT:throw_bad_alloc.obj
 0002:00015c50       ??_R4bad_exception@std@@6B@ 0000000180064c50     libvcruntime:frame.obj
 0002:00015c78       ??_R3bad_exception@std@@8  0000000180064c78     libvcruntime:frame.obj
 0002:00015c90       ??_R2bad_exception@std@@8  0000000180064c90     libvcruntime:frame.obj
 0002:00015ca8       ??_R1A@?0A@EA@bad_exception@std@@8 0000000180064ca8     libvcruntime:frame.obj
 0002:000160e8       __rtc_iaa                  00000001800650e8     LIBCMT:initsect.obj
 0002:000160f0       __rtc_izz                  00000001800650f0     LIBCMT:initsect.obj
 0002:000160f8       __rtc_taa                  00000001800650f8     LIBCMT:initsect.obj
 0002:00016100       __rtc_tzz                  0000000180065100     LIBCMT:initsect.obj
 0002:0001c6a0       _CT??_R0?AVexception@std@@@8??0exception@std@@QEAA@AEBV01@@Z24 000000018006b6a0     libcpmt:xonce.obj
 0002:0001c6c8       _TI2?AVbad_alloc@std@@     000000018006b6c8     libcpmt:xthrow.obj
 0002:0001c6e8       _CTA2?AVbad_alloc@std@@    000000018006b6e8     libcpmt:xthrow.obj
 0002:0001c700       _CT??_R0?AVbad_alloc@std@@@8??0bad_alloc@std@@QEAA@AEBV01@@Z24 000000018006b700     libcpmt:xthrow.obj
 0002:0001c728       _CT??_R0?AVlogic_error@std@@@8??0logic_error@std@@QEAA@AEBV01@@Z24 000000018006b728     libcpmt:xthrow.obj
 0002:0001c750       _TI3?AVlength_error@std@@  000000018006b750     libcpmt:xthrow.obj
 0002:0001c770       _CTA3?AVlength_error@std@@ 000000018006b770     libcpmt:xthrow.obj
 0002:0001c790       _CT??_R0?AVlength_error@std@@@8??0length_error@std@@QEAA@AEBV01@@Z24 000000018006b790     libcpmt:xthrow.obj
 0002:0001c7b8       _TI3?AVout_of_range@std@@  000000018006b7b8     libcpmt:xthrow.obj
 0002:0001c7d8       _CTA3?AVout_of_range@std@@ 000000018006b7d8     libcpmt:xthrow.obj
 0002:0001c7f8       _CT??_R0?AVout_of_range@std@@@8??0out_of_range@std@@QEAA@AEBV01@@Z24 000000018006b7f8     libcpmt:xthrow.obj
 0002:0001c820       _TI3?AVbad_array_new_length@std@@ 000000018006b820     LIBCMT:throw_bad_alloc.obj
 0002:0001c840       _CTA3?AVbad_array_new_length@std@@ 000000018006b840     LIBCMT:throw_bad_alloc.obj
 0002:0001c860       _CT??_R0?AVbad_array_new_length@std@@@8??0bad_array_new_length@std@@QEAA@AEBV01@@Z24 000000018006b860     LIBCMT:throw_bad_alloc.obj
 0002:0001c888       _TI2?AVbad_exception@std@@ 000000018006b888     libvcruntime:frame.obj
 0002:0001c8a8       _CTA2?AVbad_exception@std@@ 000000018006b8a8     libvcruntime:frame.obj
 0002:0001c8c0       _CT??_R0?AVbad_exception@std@@@8??0bad_exception@std@@QEAA@AEBV01@@Z24 000000018006b8c0     libvcruntime:frame.obj
 0002:0001c8e4       __DELAY_IMPORT_DESCRIPTOR_node_exe 000000018006b8e4     node:node.exe
 0002:0001c904       __NULL_DELAY_IMPORT_DESCRIPTOR 000000018006b904     node:node.exe
 0002:0001ca28       \177node_NULL_THUNK_DATA_DLN 000000018006ba28     node:node.exe
 0002:0001d2d8       \177node_NULL_THUNK_DATA_DLB 000000018006c2d8     node:node.exe
 0002:0001d438       __IMPORT_DESCRIPTOR_KERNEL32 000000018006c438     kernel32:KERNEL32.dll
 0002:0001d44c       __NULL_IMPORT_DESCRIPTOR   000000018006c44c     kernel32:KERNEL32.dll
 0003:00000004       ?_Sync@ios_base@std@@0_NA  000000018006d004     libcpmt:ios.obj
 0003:00000010       ?_PJP_CPP_Copyright@@3PADA 000000018006d010     libcpmt:iosptrs.obj
 0003:00000070       __scrt_native_dllmain_reason 000000018006d070     LIBCMT:utility.obj
 0003:00000078       __security_cookie_complement 000000018006d078     LIBCMT:gs_cookie.obj
 0003:00000080       __security_cookie          000000018006d080     LIBCMT:gs_cookie.obj
 0003:00000088       _fltused                   000000018006d088     LIBCMT:fltused.obj
 0003:00000090       __isa_available            000000018006d090     LIBCMT:cpu_disp.obj
 0003:00000094       __isa_enabled              000000018006d094     LIBCMT:cpu_disp.obj
 0003:00000098       __memcpy_nt_iters          000000018006d098     LIBCMT:cpu_disp.obj
 0003:000000b0       __abort_behavior           000000018006d0b0     libucrt:abort.obj
 0003:000000c0       _iob                       000000018006d0c0     libucrt:_file.obj
 0003:000001d0       __acrt_lconv_c             000000018006d1d0     libucrt:localeconv.obj
 0003:00000268       __acrt_lconv               000000018006d268     libucrt:localeconv.obj
 0003:00000270       __acrt_lconv_static_decimal 000000018006d270     libucrt:localeconv.obj
 0003:00000274       __acrt_lconv_static_W_decimal 000000018006d274     libucrt:localeconv.obj
 0003:00000278       _pctype                    000000018006d278     libucrt:ctype.obj
 0003:00000280       _pwctype                   000000018006d280     libucrt:ctype.obj
 0003:00000290       __badioinfo                000000018006d290     libucrt:ioinit.obj
 0003:000002e8       __mb_cur_max               000000018006d2e8     libucrt:nlsdata.obj
 0003:000002f0       __acrt_initial_locale_data 000000018006d2f0     libucrt:nlsdata.obj
 0003:00000448       __acrt_initial_locale_pointers 000000018006d448     libucrt:nlsdata.obj
 0003:00000458       __acrt_wide_c_locale_string 000000018006d458     libucrt:nlsdata.obj
 0003:00000510       _lookuptrailbytes          000000018006d510     libucrt:read.obj
 0003:00000610       __globallocalestatus       000000018006d610     libucrt:glstatus.obj
 0003:00000930       __acrt_initial_multibyte_data 000000018006d930     libucrt:mbctype.obj
 0003:00000bb0       ??_R0?AVsystem_error@std@@@8 000000018006dbb0     libcpmt:xonce.obj
 0003:00000bd8       ??_R0?AV_System_error@std@@@8 000000018006dbd8     libcpmt:xonce.obj
 0003:00000c00       ??_R0?AVruntime_error@std@@@8 000000018006dc00     libcpmt:xonce.obj
 0003:00000c28       ??_R0?AVexception@std@@@8  000000018006dc28     libcpmt:xonce.obj
 0003:00000c50       ??_R0?AVerror_category@std@@@8 000000018006dc50     libcpmt:xonce.obj
 0003:00000c80       ??_R0?AV_Generic_error_category@std@@@8 000000018006dc80     libcpmt:xonce.obj
 0003:00000cb8       ??_R0?AV_Facet_base@std@@@8 000000018006dcb8     libcpmt:locale0.obj
 0003:00000ce0       ??_R0?AV_Locimp@locale@std@@@8 000000018006dce0     libcpmt:locale0.obj
 0003:00000d10       ??_R0?AVfacet@locale@std@@@8 000000018006dd10     libcpmt:locale0.obj
 0003:00000d38       ??_R0?AU_Crt_new_delete@std@@@8 000000018006dd38     libcpmt:locale0.obj
 0003:00000d68       ??_R0?AVbad_alloc@std@@@8  000000018006dd68     libcpmt:xthrow.obj
 0003:00000d90       ??_R0?AVlogic_error@std@@@8 000000018006dd90     libcpmt:xthrow.obj
 0003:00000db8       ??_R0?AVlength_error@std@@@8 000000018006ddb8     libcpmt:xthrow.obj
 0003:00000de0       ??_R0?AVout_of_range@std@@@8 000000018006dde0     libcpmt:xthrow.obj
 0003:00000e08       ??_R0?AVfailure@ios_base@std@@@8 000000018006de08     libcpmt:cerr.obj
 0003:00000e38       ??_R0?AVios_base@std@@@8   000000018006de38     libcpmt:cerr.obj
 0003:00000e60       ??_R0?AV?$_Iosb@H@std@@@8  000000018006de60     libcpmt:cerr.obj
 0003:00000e88       ??_R0?AV?$basic_ios@DU?$char_traits@D@std@@@std@@@8 000000018006de88     libcpmt:cerr.obj
 0003:00000ed0       ??_R0?AV?$basic_streambuf@DU?$char_traits@D@std@@@std@@@8 000000018006ded0     libcpmt:cerr.obj
 0003:00000f20       ??_R0?AV?$basic_ostream@DU?$char_traits@D@std@@@std@@@8 000000018006df20     libcpmt:cerr.obj
 0003:00000f70       ??_R0?AV?$basic_filebuf@DU?$char_traits@D@std@@@std@@@8 000000018006df70     libcpmt:cerr.obj
 0003:00000fb8       ??_R0?AVcodecvt_base@std@@@8 000000018006dfb8     libcpmt:cerr.obj
 0003:00000fe0       ??_R0?AUctype_base@std@@@8 000000018006dfe0     libcpmt:cerr.obj
 0003:00001008       ??_R0?AV?$ctype@D@std@@@8  000000018006e008     libcpmt:cerr.obj
 0003:00001030       ??_R0?AV_Iostream_error_category@std@@@8 000000018006e030     libcpmt:cerr.obj
 0003:00001068       ??_R0?AV?$codecvt@DDU_Mbstatet@@@std@@@8 000000018006e068     libcpmt:cerr.obj
 0003:000010a0       ??_R0?AV?$num_put@DV?$ostreambuf_iterator@DU?$char_traits@D@std@@@std@@@std@@@8 000000018006e0a0     libcpmt:locale.obj
 0003:00001100       ??_R0?AV?$numpunct@D@std@@@8 000000018006e100     libcpmt:locale.obj
 0003:00001128       ??_R0?AVtype_info@@@8      000000018006e128     LIBCMT:std_type_info_static.obj
 0003:00001148       ??_R0?AVbad_array_new_length@std@@@8 000000018006e148     LIBCMT:throw_bad_alloc.obj
 0003:00001178       ??_R0?AVbad_exception@std@@@8 000000018006e178     libvcruntime:frame.obj
 0003:000011a0       __imp_?Value@External@v8@@QEBAPEAXXZ 000000018006e1a0     node:node.exe
 0003:000011a8       __imp_?Set@Object@v8@@QEAA_NIV?$Local@VValue@v8@@@2@@Z 000000018006e1a8     node:node.exe
 0003:000011b0       __imp_?New@External@v8@@SA?AV?$Local@VExternal@v8@@@2@PEAVIsolate@2@PEAX@Z 000000018006e1b0     node:node.exe
 0003:000011b8       __imp_?GetCurrentContext@Isolate@v8@@QEAA?AV?$Local@VContext@v8@@@2@XZ 000000018006e1b8     node:node.exe
 0003:000011c0       __imp_?GetCurrent@Isolate@v8@@SAPEAV12@XZ 000000018006e1c0     node:node.exe
 0003:000011c8       __imp_?CreateHandle@HandleScope@v8@@KAPEAPEAVObject@internal@2@PEAVIsolate@42@PEAV342@@Z 000000018006e1c8     node:node.exe
 0003:000011d0       __imp_?CreateHandle@HandleScope@v8@@CAPEAPEAVObject@internal@2@PEAVHeapObject@42@PEAV342@@Z 000000018006e1d0     node:node.exe
 0003:000011d8       __imp_??1HandleScope@v8@@QEAA@XZ 000000018006e1d8     node:node.exe
 0003:000011e0       __imp_??0HandleScope@v8@@QEAA@PEAVIsolate@1@@Z 000000018006e1e0     node:node.exe
 0003:000011e8       __imp_?GetFunction@FunctionTemplate@v8@@QEAA?AV?$MaybeLocal@VFunction@v8@@@2@V?$Local@VContext@v8@@@2@@Z 000000018006e1e8     node:node.exe
 0003:000011f0       __imp_?New@FunctionTemplate@v8@@SA?AV?$Local@VFunctionTemplate@v8@@@2@PEAVIsolate@2@P6AXAEBV?$FunctionCallbackInfo@VValue@v8@@@2@@ZV?$Local@VValue@v8@@@2@V?$Local@VSignature@v8@@@2@HW4ConstructorBehavior@2@W4SideEffectType@2@@Z 000000018006e1f0     node:node.exe
 0003:000011f8       __imp_?ToLocalEmpty@V8@v8@@CAXXZ 000000018006e1f8     node:node.exe
 0003:00001200       __imp_?Escape@EscapableHandleScope@v8@@AEAAPEAPEAVObject@internal@2@PEAPEAV342@@Z 000000018006e200     node:node.exe
 0003:00001208       __imp_??0EscapableHandleScope@v8@@QEAA@PEAVIsolate@1@@Z 000000018006e208     node:node.exe
 0003:00001210       __imp_?NewFromUtf8@String@v8@@SA?AV?$MaybeLocal@VString@v8@@@2@PEAVIsolate@2@PEBDW4NewStringType@2@H@Z 000000018006e210     node:node.exe
 0003:00001218       __imp_?SlowGetInternalField@Object@v8@@AEAA?AV?$Local@VValue@v8@@@2@H@Z 000000018006e218     node:node.exe
 0003:00001220       __imp_?SetInternalField@Object@v8@@QEAAXHV?$Local@VValue@v8@@@2@@Z 000000018006e220     node:node.exe
 0003:00001228       __imp_?Set@Object@v8@@QEAA?AV?$Maybe@_N@2@V?$Local@VContext@v8@@@2@V?$Local@VValue@v8@@@2@1@Z 000000018006e228     node:node.exe
 0003:00001230       __imp_?SetInternalFieldCount@ObjectTemplate@v8@@QEAAXH@Z 000000018006e230     node:node.exe
 0003:00001238       __imp_?NewInstance@ObjectTemplate@v8@@QEAA?AV?$MaybeLocal@VObject@v8@@@2@V?$Local@VContext@v8@@@2@@Z 000000018006e238     node:node.exe
 0003:00001240       __imp_?New@ObjectTemplate@v8@@SA?AV?$Local@VObjectTemplate@v8@@@2@PEAVIsolate@2@V?$Local@VFunctionTemplate@v8@@@2@@Z 000000018006e240     node:node.exe
 0003:00001248       __imp_node_module_register 000000018006e248     node:node.exe
 0003:00001250       __imp_??1EscapableHandleScope@v8@@QEAA@XZ 000000018006e250     node:node.exe
 0003:00001258       __imp_?New@Array@v8@@SA?AV?$Local@VArray@v8@@@2@PEAVIsolate@2@H@Z 000000018006e258     node:node.exe
 0003:00001260       __imp_?Int32Value@Value@v8@@QEBA?AV?$Maybe@H@2@V?$Local@VContext@v8@@@2@@Z 000000018006e260     node:node.exe
 0003:00001268       __imp_?ToString@Value@v8@@QEBA?AV?$MaybeLocal@VString@v8@@@2@V?$Local@VContext@v8@@@2@@Z 000000018006e268     node:node.exe
 0003:00001270       __imp_?ToBoolean@Value@v8@@QEBA?AV?$MaybeLocal@VBoolean@v8@@@2@V?$Local@VContext@v8@@@2@@Z 000000018006e270     node:node.exe
 0003:00001278       __imp_?WriteUtf8@String@v8@@QEBAHPEADHPEAHH@Z 000000018006e278     node:node.exe
 0003:00001280       __imp_?Length@String@v8@@QEBAHXZ 000000018006e280     node:node.exe
 0003:00001288       __imp_?New@Number@v8@@SA?AV?$Local@VNumber@v8@@@2@PEAVIsolate@2@N@Z 000000018006e288     node:node.exe
 0003:00001290       __imp_?New@Object@v8@@SA?AV?$Local@VObject@v8@@@2@PEAVIsolate@2@@Z 000000018006e290     node:node.exe
 0003:00001298       __imp_?Set@Object@v8@@QEAA_NV?$Local@VValue@v8@@@2@0@Z 000000018006e298     node:node.exe
 0003:000012a0       \177node_NULL_THUNK_DATA_DLA 000000018006e2a0     node:node.exe
 0003:000012b0       __hmod__node_exe           000000018006e2b0     node:node.exe
 0003:00001410       ?_Id_cnt@id@locale@std@@0HA 000000018006e410     libcpmt:locale0.obj
 0003:00001418       ?_Clocptr@_Locimp@locale@std@@0PEAV123@EA 000000018006e418     libcpmt:locale0.obj
 0003:00001420       ?id@?$ctype@_W@std@@2V0locale@2@A 000000018006e420     libcpmt:locale0.obj
 0003:00001428       ?id@?$ctype@D@std@@2V0locale@2@A 000000018006e428     libcpmt:locale0.obj
 0003:00001430       ?id@?$codecvt@GDU_Mbstatet@@@std@@2V0locale@2@A 000000018006e430     libcpmt:locale0.obj
 0003:00001438       ?id@?$ctype@G@std@@2V0locale@2@A 000000018006e438     libcpmt:locale0.obj
 0003:00001450       ?id@?$codecvt@_WDU_Mbstatet@@@std@@2V0locale@2@A 000000018006e450     libcpmt:locale0.obj
 0003:00001490       ?cerr@std@@3V?$basic_ostream@DU?$char_traits@D@std@@@1@A 000000018006e490     libcpmt:cerr.obj
 0003:000015a0       ?_Index@ios_base@std@@0HA  000000018006e5a0     libcpmt:ios.obj
 0003:00001610       ?_Raise_handler@std@@3P6AXAEBVexception@stdext@@@ZEA 000000018006e610     libcpmt:raisehan.obj
 0003:00001620       __encodedKERNEL32Functions 000000018006e620     libcpmt:winapisupp.obj
 0003:00001760       ?id@?$num_get@DV?$istreambuf_iterator@DU?$char_traits@D@std@@@std@@@std@@2V0locale@2@A 000000018006e760     libcpmt:locale.obj
 0003:00001770       ?_Ptr_cin@std@@3PEAV?$basic_istream@DU?$char_traits@D@std@@@1@EA 000000018006e770     libcpmt:iosptrs.obj
 0003:00001778       ?_Ptr_cout@std@@3PEAV?$basic_ostream@DU?$char_traits@D@std@@@1@EA 000000018006e778     libcpmt:iosptrs.obj
 0003:00001780       ?_Ptr_cerr@std@@3PEAV?$basic_ostream@DU?$char_traits@D@std@@@1@EA 000000018006e780     libcpmt:iosptrs.obj
 0003:00001788       ?_Ptr_clog@std@@3PEAV?$basic_ostream@DU?$char_traits@D@std@@@1@EA 000000018006e788     libcpmt:iosptrs.obj
 0003:00001790       ?_Ptr_wcin@std@@3PEAV?$basic_istream@_WU?$char_traits@_W@std@@@1@EA 000000018006e790     libcpmt:iosptrs.obj
 0003:00001798       ?_Ptr_wcout@std@@3PEAV?$basic_ostream@_WU?$char_traits@_W@std@@@1@EA 000000018006e798     libcpmt:iosptrs.obj
 0003:000017a0       ?_Ptr_wcerr@std@@3PEAV?$basic_ostream@_WU?$char_traits@_W@std@@@1@EA 000000018006e7a0     libcpmt:iosptrs.obj
 0003:000017a8       ?_Ptr_wclog@std@@3PEAV?$basic_ostream@_WU?$char_traits@_W@std@@@1@EA 000000018006e7a8     libcpmt:iosptrs.obj
 0003:00001810       ?id@?$time_put@_WV?$ostreambuf_iterator@_WU?$char_traits@_W@std@@@std@@@std@@2V0locale@2@A 000000018006e810     libcpmt:wlocale.obj
 0003:00001818       ?id@?$num_get@_WV?$istreambuf_iterator@_WU?$char_traits@_W@std@@@std@@@std@@2V0locale@2@A 000000018006e818     libcpmt:wlocale.obj
 0003:00001820       ?id@?$num_put@_WV?$ostreambuf_iterator@_WU?$char_traits@_W@std@@@std@@@std@@2V0locale@2@A 000000018006e820     libcpmt:wlocale.obj
 0003:00001828       ?id@?$numpunct@_W@std@@2V0locale@2@A 000000018006e828     libcpmt:wlocale.obj
 0003:00001830       ?id@?$collate@_W@std@@2V0locale@2@A 000000018006e830     libcpmt:wlocale.obj
 0003:00001838       ?id@?$messages@_W@std@@2V0locale@2@A 000000018006e838     libcpmt:wlocale.obj
 0003:00001840       ?id@?$money_get@_WV?$istreambuf_iterator@_WU?$char_traits@_W@std@@@std@@@std@@2V0locale@2@A 000000018006e840     libcpmt:wlocale.obj
 0003:00001848       ?id@?$money_put@_WV?$ostreambuf_iterator@_WU?$char_traits@_W@std@@@std@@@std@@2V0locale@2@A 000000018006e848     libcpmt:wlocale.obj
 0003:00001850       ?id@?$moneypunct@_W$0A@@std@@2V0locale@2@A 000000018006e850     libcpmt:wlocale.obj
 0003:00001858       ?id@?$moneypunct@_W$00@std@@2V0locale@2@A 000000018006e858     libcpmt:wlocale.obj
 0003:00001860       ?id@?$time_get@_WV?$istreambuf_iterator@_WU?$char_traits@_W@std@@@std@@@std@@2V0locale@2@A 000000018006e860     libcpmt:wlocale.obj
 0003:00001868       ?id@?$num_get@GV?$istreambuf_iterator@GU?$char_traits@G@std@@@std@@@std@@2V0locale@2@A 000000018006e868     libcpmt:wlocale.obj
 0003:00001870       ?id@?$num_put@GV?$ostreambuf_iterator@GU?$char_traits@G@std@@@std@@@std@@2V0locale@2@A 000000018006e870     libcpmt:wlocale.obj
 0003:00001878       ?id@?$numpunct@G@std@@2V0locale@2@A 000000018006e878     libcpmt:wlocale.obj
 0003:00001880       ?id@?$collate@G@std@@2V0locale@2@A 000000018006e880     libcpmt:wlocale.obj
 0003:00001888       ?id@?$messages@G@std@@2V0locale@2@A 000000018006e888     libcpmt:wlocale.obj
 0003:00001890       ?id@?$money_get@GV?$istreambuf_iterator@GU?$char_traits@G@std@@@std@@@std@@2V0locale@2@A 000000018006e890     libcpmt:wlocale.obj
 0003:00001898       ?id@?$money_put@GV?$ostreambuf_iterator@GU?$char_traits@G@std@@@std@@@std@@2V0locale@2@A 000000018006e898     libcpmt:wlocale.obj
 0003:000018a0       ?id@?$moneypunct@G$0A@@std@@2V0locale@2@A 000000018006e8a0     libcpmt:wlocale.obj
 0003:000018a8       ?id@?$moneypunct@G$00@std@@2V0locale@2@A 000000018006e8a8     libcpmt:wlocale.obj
 0003:000018b0       ?id@?$time_get@GV?$istreambuf_iterator@GU?$char_traits@G@std@@@std@@@std@@2V0locale@2@A 000000018006e8b0     libcpmt:wlocale.obj
 0003:000018b8       ?id@?$time_put@GV?$ostreambuf_iterator@GU?$char_traits@G@std@@@std@@@std@@2V0locale@2@A 000000018006e8b8     libcpmt:wlocale.obj
 0003:000018c0       ?id@?$collate@D@std@@2V0locale@2@A 000000018006e8c0     libcpmt:xlocale.obj
 0003:000018c8       ?id@?$messages@D@std@@2V0locale@2@A 000000018006e8c8     libcpmt:xlocale.obj
 0003:000018d0       ?id@?$money_get@DV?$istreambuf_iterator@DU?$char_traits@D@std@@@std@@@std@@2V0locale@2@A 000000018006e8d0     libcpmt:xlocale.obj
 0003:000018d8       ?id@?$money_put@DV?$ostreambuf_iterator@DU?$char_traits@D@std@@@std@@@std@@2V0locale@2@A 000000018006e8d8     libcpmt:xlocale.obj
 0003:000018e0       ?id@?$moneypunct@D$0A@@std@@2V0locale@2@A 000000018006e8e0     libcpmt:xlocale.obj
 0003:000018e8       ?id@?$moneypunct@D$00@std@@2V0locale@2@A 000000018006e8e8     libcpmt:xlocale.obj
 0003:000018f0       ?id@?$time_get@DV?$istreambuf_iterator@DU?$char_traits@D@std@@@std@@@std@@2V0locale@2@A 000000018006e8f0     libcpmt:xlocale.obj
 0003:000018f8       ?id@?$time_put@DV?$ostreambuf_iterator@DU?$char_traits@D@std@@@std@@@std@@2V0locale@2@A 000000018006e8f8     libcpmt:xlocale.obj
 0003:00001900       __scrt_current_native_startup_state 000000018006e900     LIBCMT:utility.obj
 0003:00001908       __scrt_native_startup_lock 000000018006e908     LIBCMT:utility.obj
 0003:00001ec0       __favor                    000000018006eec0     LIBCMT:cpu_disp.obj
 0003:00001ec4       __scrt_debugger_hook_flag  000000018006eec4     LIBCMT:utility_desktop.obj
 0003:00001ed0       ?__type_info_root_node@@3U__type_info_node@@A 000000018006eed0     LIBCMT:tncleanup.obj
 0003:00001ee0       ?_OptionsStorage@?1??__local_stdio_scanf_options@@9@4_KA 000000018006eee0     LIBCMT:default_local_stdio_options.obj
 0003:00001ee8       ?__WinRTOutOfMemoryExceptionCallback@@3P6APEAXXZEA 000000018006eee8     libvcruntime:ehhelpers.obj
 0003:00001f80       __pPurecall                000000018006ef80     libvcruntime:purevirt_data.obj
 0003:00001ff8       ?pArgList@UnDecorator@@0PEAVReplicator@@EA 000000018006eff8     libvcruntime:undname.obj
 0003:00002000       ?pZNameList@UnDecorator@@0PEAVReplicator@@EA 000000018006f000     libvcruntime:undname.obj
 0003:00002008       ?pTemplateArgList@UnDecorator@@0PEAVReplicator@@EA 000000018006f008     libvcruntime:undname.obj
 0003:00002010       ?gName@UnDecorator@@0PEBDEB 000000018006f010     libvcruntime:undname.obj
 0003:00002018       ?name@UnDecorator@@0PEBDEB 000000018006f018     libvcruntime:undname.obj
 0003:00002020       ?disableFlags@UnDecorator@@0KA 000000018006f020     libvcruntime:undname.obj
 0003:00002024       ?fExplicitTemplateParams@UnDecorator@@0_NA 000000018006f024     libvcruntime:undname.obj
 0003:00002025       ?fGetTemplateArgumentList@UnDecorator@@0_NA 000000018006f025     libvcruntime:undname.obj
 0003:00002028       ?m_pGetParameter@UnDecorator@@0P6APEADJ@ZEA 000000018006f028     libvcruntime:undname.obj
 0003:00002030       ?m_CHPENameOffset@UnDecorator@@0KA 000000018006f030     libvcruntime:undname.obj
 0003:00002034       ?m_recursionLevel@UnDecorator@@0KA 000000018006f034     libvcruntime:undname.obj
 0003:00002068       _nstream                   000000018006f068     libucrt:_file.obj
 0003:00002070       __piob                     000000018006f070     libucrt:_file.obj
 0003:00002078       _cflush                    000000018006f078     libucrt:_file.obj
 0003:0000207c       __acrt_lconv_static_null   000000018006f07c     libucrt:localeconv.obj
 0003:00002080       __acrt_lconv_static_W_null 000000018006f080     libucrt:localeconv.obj
 0003:000022e0       ?c_exit_complete@?1???R<lambda_6e4b09c48022b2350581041d5f6b0c4c>@@QEBA@XZ@4_NA 000000018006f2e0     libucrt:exit.obj
 0003:000023f8       _environ_table             000000018006f3f8     libucrt:environment_initialization.obj
 0003:00002400       _wenviron_table            000000018006f400     libucrt:environment_initialization.obj
 0003:00002408       __dcrt_initial_wide_environment 000000018006f408     libucrt:environment_initialization.obj
 0003:00002410       __dcrt_initial_narrow_environment 000000018006f410     libucrt:environment_initialization.obj
 0003:00002418       __acrt_atexit_table        000000018006f418     libucrt:onexit.obj
 0003:00002430       __acrt_at_quick_exit_table 000000018006f430     libucrt:onexit.obj
 0003:00002470       __pioinfo                  000000018006f470     libucrt:ioinit.obj
 0003:00002870       _nhandle                   000000018006f870     libucrt:ioinit.obj
 0003:00002874       __acrt_locale_changed_data 000000018006f874     libucrt:wsetlocale.obj
 0003:00002878       __acrt_current_locale_data 000000018006f878     libucrt:nlsdata.obj
 0003:00002890       __acrt_stdout_buffer       000000018006f890     libucrt:_sftbuf.obj
 0003:00002898       __acrt_stderr_buffer       000000018006f898     libucrt:_sftbuf.obj
 0003:00002a58       ?_timezone@@3V?$dual_state_global@J@__crt_state_management@@A 000000018006fa58     libucrt:timeset.obj
 0003:00002a5c       ?_daylight@@3V?$dual_state_global@H@__crt_state_management@@A 000000018006fa5c     libucrt:timeset.obj
 0003:00002a60       ?_dstbias@@3V?$dual_state_global@J@__crt_state_management@@A 000000018006fa60     libucrt:timeset.obj
 0003:00002b48       __fma3_is_available        000000018006fb48     libucrt:fma3_available.obj
 0003:00002b4c       __use_fma3_lib             000000018006fb4c     libucrt:fma3_available.obj
 0003:00002b58       _mbctype                   000000018006fb58     libucrt:mbctype.obj
 0003:00002b60       _mbcasemap                 000000018006fb60     libucrt:mbctype.obj
 0003:00002b68       __acrt_current_multibyte_data 000000018006fb68     libucrt:mbctype.obj
 0003:00002b78       _pgmptr                    000000018006fb78     libucrt:argv_data.obj
 0003:00002b80       __argc                     000000018006fb80     libucrt:argv_data.obj
 0003:00002b88       __argv                     000000018006fb88     libucrt:argv_data.obj
 0003:00002b90       __wargv                    000000018006fb90     libucrt:argv_data.obj
 0003:00002b98       _acmdln                    000000018006fb98     libucrt:argv_data.obj
 0003:00002ba0       _wcmdln                    000000018006fba0     libucrt:argv_data.obj
 0003:00002ba8       __acrt_heap                000000018006fba8     libucrt:heap_handle.obj
 0003:00002bbc       _commode                   000000018006fbbc     libucrt:ncommode.obj
 0003:00002bd0       _umaskval                  000000018006fbd0     libucrt:umask.obj
 0003:00002bd4       _fmode                     000000018006fbd4     libucrt:txtmode.obj
 0003:00002bd8       ?DloadKernel32@@3PEAUHINSTANCE__@@EA 000000018006fbd8     DelayImp:delayhlp.obj
 0003:00002be0       ?DloadAcquireSRWLockExclusive@@3P6AXPEA_K@ZEA 000000018006fbe0     DelayImp:delayhlp.obj
 0003:00002be8       ?DloadReleaseSRWLockExclusive@@3P6AXPEA_K@ZEA 000000018006fbe8     DelayImp:delayhlp.obj
 0003:00002bf0       ?DloadSrwLock@@3_KA        000000018006fbf0     DelayImp:delayhlp.obj
 0003:00002bf8       ?DloadSectionLockCount@@3KA 000000018006fbf8     DelayImp:delayhlp.obj
 0003:00002bfc       ?DloadSectionOldProtection@@3KA 000000018006fbfc     DelayImp:delayhlp.obj
 0003:00002c00       ?DloadSectionCommitPermanent@@3KA 000000018006fc00     DelayImp:delayhlp.obj
 0003:00002c08       ?global_extractor_handle@@3PEAVKeywordExtractor@cppjieba@@EA 000000018006fc08     nodejieba.obj
 0003:00002c10       ?global_textrank_extractor_handle@@3PEAVTextRankExtractor@cppjieba@@EA 000000018006fc10     nodejieba.obj
 0003:00002c18       ?global_jieba_handle@@3PEAVJieba@cppjieba@@EA 000000018006fc18     nodejieba.obj
 0003:00002c60       ?_Psave@?$_Facetptr@V?$codecvt@DDU_Mbstatet@@@std@@@std@@2PEBVfacet@locale@2@EB 000000018006fc60     nodejieba.obj
 0003:00002c68       ?_Psave@?$_Facetptr@V?$numpunct@D@std@@@std@@2PEBVfacet@locale@2@EB 000000018006fc68     nodejieba.obj
 0003:00002c70       ?_Psave@?$_Facetptr@V?$num_put@DV?$ostreambuf_iterator@DU?$char_traits@D@std@@@std@@@std@@@std@@2PEBVfacet@locale@2@EB 000000018006fc70     nodejieba.obj
 0003:00002c78       ?_Psave@?$_Facetptr@V?$ctype@D@std@@@std@@2PEBVfacet@locale@2@EB 000000018006fc78     nodejieba.obj
 0003:00002c80       ?_Flag@?1???$_Immortalize@V_Iostream_error_category@std@@@std@@YAAEAV_Iostream_error_category@1@XZ@4PEAXEA 000000018006fc80     nodejieba.obj
 0003:00002c88       ?id@?$num_put@DV?$ostreambuf_iterator@DU?$char_traits@D@std@@@std@@@std@@2V0locale@2@A 000000018006fc88     nodejieba.obj
 0003:00002c90       ?_Stinit@?1??_Init@?$basic_filebuf@DU?$char_traits@D@std@@@std@@IEAAXPEAU_iobuf@@W4_Initfl@23@@Z@4U_Mbstatet@@A 000000018006fc90     nodejieba.obj
 0003:00002c98       ?_Storage@?1???$_Immortalize@V_Iostream_error_category@std@@@std@@YAAEAV_Iostream_error_category@1@XZ@4T?$_Align_type@N$0BA@@1@A 000000018006fc98     nodejieba.obj
 0003:00002ca8       ?_OptionsStorage@?1??__local_stdio_printf_options@@9@4_KA 000000018006fca8     nodejieba.obj
 0003:00002cb0       ?id@?$numpunct@D@std@@2V0locale@2@A 000000018006fcb0     nodejieba.obj
 0003:00002cb8       ?id@?$codecvt@DDU_Mbstatet@@@std@@2V0locale@2@A 000000018006fcb8     nodejieba.obj
 0003:00002cc0       __dyn_tls_init_callback    000000018006fcc0     <common>
 0003:00002cc8       __scrt_ucrt_dll_is_in_use  000000018006fcc8     <common>

 entry point at        0001:000226fc

 Static symbols

 0000:fff89000       .debug$S                   0000000180000000     kernel32:KERNEL32.dll
 0000:fff89000       .debug$S                   0000000180000000     node:node.exe
 0000:fff89000       .debug$S                   0000000180000000     node:node.exe
 0000:fff89000       .debug$S                   0000000180000000     node:node.exe
 0000:fff89000       .debug$S                   0000000180000000     node:node.exe
 0000:fff89000       .debug$S                   0000000180000000     node:node.exe
 0000:fff89000       .debug$S                   0000000180000000     node:node.exe
 0000:fff89000       .debug$S                   0000000180000000     node:node.exe
 0000:fff89000       .debug$S                   0000000180000000     node:node.exe
 0000:fff89000       .debug$S                   0000000180000000     node:node.exe
 0000:fff89000       .debug$S                   0000000180000000     node:node.exe
 0000:fff89000       .debug$S                   0000000180000000     node:node.exe
 0000:fff89000       .debug$S                   0000000180000000     node:node.exe
 0000:fff89000       .debug$S                   0000000180000000     node:node.exe
 0000:fff89000       .debug$S                   0000000180000000     node:node.exe
 0000:fff89000       .debug$S                   0000000180000000     node:node.exe
 0000:fff89000       .debug$S                   0000000180000000     node:node.exe
 0000:fff89000       .debug$S                   0000000180000000     node:node.exe
 0000:fff89000       .debug$S                   0000000180000000     node:node.exe
 0000:fff89000       .debug$S                   0000000180000000     node:node.exe
 0000:fff89000       .debug$S                   0000000180000000     node:node.exe
 0000:fff89000       .debug$S                   0000000180000000     node:node.exe
 0000:fff89000       .debug$S                   0000000180000000     node:node.exe
 0000:fff89000       .debug$S                   0000000180000000     node:node.exe
 0000:fff89000       .debug$S                   0000000180000000     node:node.exe
 0000:fff89000       .debug$S                   0000000180000000     node:node.exe
 0000:fff89000       .debug$S                   0000000180000000     node:node.exe
 0000:fff89000       .debug$S                   0000000180000000     node:node.exe
 0000:fff89000       .debug$S                   0000000180000000     node:node.exe
 0000:fff89000       .debug$S                   0000000180000000     node:node.exe
 0000:fff89000       .debug$S                   0000000180000000     node:node.exe
 0000:fff89000       .debug$S                   0000000180000000     node:node.exe
 0000:fff89000       .debug$S                   0000000180000000     node:node.exe
 0000:fff89000       .debug$S                   0000000180000000     node:node.exe
 0000:fff89000       .debug$S                   0000000180000000     node:node.exe
 0000:fff89000       .debug$S                   0000000180000000     node:node.exe
 0000:fff89000       .debug$S                   0000000180000000     node:node.exe
 0000:fff89000       .debug$S                   0000000180000000     kernel32:KERNEL32.dll
 0000:fff89000       .debug$S                   0000000180000000     kernel32:KERNEL32.dll
 0000:fff89000       .debug$S                   0000000180000000     kernel32:KERNEL32.dll
 0000:fff89000       .debug$S                   0000000180000000     kernel32:KERNEL32.dll
 0000:fff89000       .debug$S                   0000000180000000     kernel32:KERNEL32.dll
 0000:fff89000       .debug$S                   0000000180000000     kernel32:KERNEL32.dll
 0000:fff89000       .debug$S                   0000000180000000     kernel32:KERNEL32.dll
 0000:fff89000       .debug$S                   0000000180000000     kernel32:KERNEL32.dll
 0000:fff89000       .debug$S                   0000000180000000     kernel32:KERNEL32.dll
 0000:fff89000       .debug$S                   0000000180000000     kernel32:KERNEL32.dll
 0000:fff89000       .debug$S                   0000000180000000     kernel32:KERNEL32.dll
 0000:fff89000       .debug$S                   0000000180000000     kernel32:KERNEL32.dll
 0000:fff89000       .debug$S                   0000000180000000     kernel32:KERNEL32.dll
 0000:fff89000       .debug$S                   0000000180000000     kernel32:KERNEL32.dll
 0000:fff89000       .debug$S                   0000000180000000     kernel32:KERNEL32.dll
 0000:fff89000       .debug$S                   0000000180000000     kernel32:KERNEL32.dll
 0000:fff89000       .debug$S                   0000000180000000     kernel32:KERNEL32.dll
 0000:fff89000       .debug$S                   0000000180000000     kernel32:KERNEL32.dll
 0000:fff89000       .debug$S                   0000000180000000     kernel32:KERNEL32.dll
 0000:fff89000       .debug$S                   0000000180000000     kernel32:KERNEL32.dll
 0000:fff89000       .debug$S                   0000000180000000     kernel32:KERNEL32.dll
 0000:fff89000       .debug$S                   0000000180000000     kernel32:KERNEL32.dll
 0000:fff89000       .debug$S                   0000000180000000     kernel32:KERNEL32.dll
 0000:fff89000       .debug$S                   0000000180000000     kernel32:KERNEL32.dll
 0000:fff89000       .debug$S                   0000000180000000     kernel32:KERNEL32.dll
 0000:fff89000       .debug$S                   0000000180000000     kernel32:KERNEL32.dll
 0000:fff89000       .debug$S                   0000000180000000     kernel32:KERNEL32.dll
 0000:fff89000       .debug$S                   0000000180000000     kernel32:KERNEL32.dll
 0000:fff89000       .debug$S                   0000000180000000     kernel32:KERNEL32.dll
 0000:fff89000       .debug$S                   0000000180000000     kernel32:KERNEL32.dll
 0000:fff89000       .debug$S                   0000000180000000     kernel32:KERNEL32.dll
 0000:fff89000       .debug$S                   0000000180000000     kernel32:KERNEL32.dll
 0000:fff89000       .debug$S                   0000000180000000     kernel32:KERNEL32.dll
 0000:fff89000       .debug$S                   0000000180000000     kernel32:KERNEL32.dll
 0000:fff89000       .debug$S                   0000000180000000     kernel32:KERNEL32.dll
 0000:fff89000       .debug$S                   0000000180000000     kernel32:KERNEL32.dll
 0000:fff89000       .debug$S                   0000000180000000     kernel32:KERNEL32.dll
 0000:fff89000       .debug$S                   0000000180000000     kernel32:KERNEL32.dll
 0000:fff89000       .debug$S                   0000000180000000     kernel32:KERNEL32.dll
 0000:fff89000       .debug$S                   0000000180000000     kernel32:KERNEL32.dll
 0000:fff89000       .debug$S                   0000000180000000     kernel32:KERNEL32.dll
 0000:fff89000       .debug$S                   0000000180000000     kernel32:KERNEL32.dll
 0000:fff89000       .debug$S                   0000000180000000     kernel32:KERNEL32.dll
 0000:fff89000       .debug$S                   0000000180000000     kernel32:KERNEL32.dll
 0000:fff89000       .debug$S                   0000000180000000     kernel32:KERNEL32.dll
 0000:fff89000       .debug$S                   0000000180000000     kernel32:KERNEL32.dll
 0000:fff89000       .debug$S                   0000000180000000     kernel32:KERNEL32.dll
 0000:fff89000       .debug$S                   0000000180000000     kernel32:KERNEL32.dll
 0000:fff89000       .debug$S                   0000000180000000     kernel32:KERNEL32.dll
 0000:fff89000       .debug$S                   0000000180000000     kernel32:KERNEL32.dll
 0000:fff89000       .debug$S                   0000000180000000     kernel32:KERNEL32.dll
 0000:fff89000       .debug$S                   0000000180000000     kernel32:KERNEL32.dll
 0000:fff89000       .debug$S                   0000000180000000     kernel32:KERNEL32.dll
 0000:fff89000       .debug$S                   0000000180000000     kernel32:KERNEL32.dll
 0000:fff89000       .debug$S                   0000000180000000     kernel32:KERNEL32.dll
 0000:fff89000       .debug$S                   0000000180000000     kernel32:KERNEL32.dll
 0000:fff89000       .debug$S                   0000000180000000     kernel32:KERNEL32.dll
 0000:fff89000       .debug$S                   0000000180000000     kernel32:KERNEL32.dll
 0000:fff89000       .debug$S                   0000000180000000     kernel32:KERNEL32.dll
 0000:fff89000       .debug$S                   0000000180000000     kernel32:KERNEL32.dll
 0000:fff89000       .debug$S                   0000000180000000     kernel32:KERNEL32.dll
 0000:fff89000       .debug$S                   0000000180000000     kernel32:KERNEL32.dll
 0000:fff89000       .debug$S                   0000000180000000     kernel32:KERNEL32.dll
 0000:fff89000       .debug$S                   0000000180000000     kernel32:KERNEL32.dll
 0000:fff89000       .debug$S                   0000000180000000     kernel32:KERNEL32.dll
 0000:fff89000       .debug$S                   0000000180000000     kernel32:KERNEL32.dll
 0000:fff89000       .debug$S                   0000000180000000     kernel32:KERNEL32.dll
 0000:fff89000       .debug$S                   0000000180000000     kernel32:KERNEL32.dll
 0000:fff89000       .debug$S                   0000000180000000     kernel32:KERNEL32.dll
 0000:fff89000       .debug$S                   0000000180000000     kernel32:KERNEL32.dll
 0000:fff89000       .debug$S                   0000000180000000     kernel32:KERNEL32.dll
 0000:fff89000       .debug$S                   0000000180000000     kernel32:KERNEL32.dll
 0000:fff89000       .debug$S                   0000000180000000     kernel32:KERNEL32.dll
 0000:fff89000       .debug$S                   0000000180000000     kernel32:KERNEL32.dll
 0000:fff89000       .debug$S                   0000000180000000     kernel32:KERNEL32.dll
 0000:fff89000       .debug$S                   0000000180000000     kernel32:KERNEL32.dll
 0000:fff89000       .debug$S                   0000000180000000     kernel32:KERNEL32.dll
 0000:fff89000       .debug$S                   0000000180000000     kernel32:KERNEL32.dll
 0000:fff89000       .debug$S                   0000000180000000     kernel32:KERNEL32.dll
 0000:fff89000       .debug$S                   0000000180000000     kernel32:KERNEL32.dll
 0000:fff89000       .debug$S                   0000000180000000     kernel32:KERNEL32.dll
 0000:fff89000       .debug$S                   0000000180000000     kernel32:KERNEL32.dll
 0000:fff89000       .debug$S                   0000000180000000     kernel32:KERNEL32.dll
 0000:fff89000       .debug$S                   0000000180000000     kernel32:KERNEL32.dll
 0000:fff89000       .debug$S                   0000000180000000     kernel32:KERNEL32.dll
 0000:fff89000       .debug$S                   0000000180000000     kernel32:KERNEL32.dll
 0000:fff89000       .debug$S                   0000000180000000     kernel32:KERNEL32.dll
 0000:fff89000       .debug$S                   0000000180000000     kernel32:KERNEL32.dll
 0000:fff89000       .debug$S                   0000000180000000     kernel32:KERNEL32.dll
 0000:fff89000       .debug$S                   0000000180000000     kernel32:KERNEL32.dll
 0000:fff89000       .debug$S                   0000000180000000     kernel32:KERNEL32.dll
 0000:fff89000       .debug$S                   0000000180000000     kernel32:KERNEL32.dll
 0000:fff89000       .debug$S                   0000000180000000     kernel32:KERNEL32.dll
 0000:fff89000       .debug$S                   0000000180000000     kernel32:KERNEL32.dll
 0000:fff89000       .debug$S                   0000000180000000     kernel32:KERNEL32.dll
 0000:fff89000       .debug$S                   0000000180000000     nodejieba.exp
 0001:00000000       ??__ETFIDF_DEFAULT_ALLOWED_POS@cppjieba@@YAXXZ 0000000180001000 f   nodejieba.obj
 0001:00000050       ??__ETEXTRANK_DEFAULT_ALLOWED_POS@cppjieba@@YAXXZ 0000000180001050 f   nodejieba.obj
 0001:00000094       ??__Einitlocks@std@@YAXXZ  0000000180001094 f   libcpmt:xlock.obj
 0001:000000b4       ??__E_Fac_tidy_reg@std@@YAXXZ 00000001800010b4 f   libcpmt:locale0.obj
 0001:000000c0       ??__Eclassic_locale@std@@YAXXZ 00000001800010c0 f   libcpmt:locale0.obj
 0001:000000cc       ??__Ecerr@std@@YAXXZ       00000001800010cc f   libcpmt:cerr.obj
 0001:000000fc       ??__Eferr@std@@YAXXZ       00000001800010fc f   libcpmt:cerr.obj
 0001:0000014c       ??__Einit_cerr@std@@YAXXZ  000000018000114c f   libcpmt:cerr.obj
 0001:00000184       ??__Einitlocks@@YAXXZ      0000000180001184 f   libcpmt:cerr.obj
 0001:000001a4       ??__Einit_atexit@@YAXXZ    00000001800011a4 f   libcpmt:iosptrs.obj
 0001:000001b0       ??__Einitlocks@std@@YAXXZ  00000001800011b0 f   libcpmt:iosptrs.obj
 0001:000001d0       ?FunctionCallbackWrapper@imp@Nan@@YAXAEBV?$FunctionCallbackInfo@VValue@v8@@@v8@@@Z 00000001800011d0 f   index.obj
 0001:00000e10       _register_nodejieba        0000000180001e10 f   index.obj
 0001:00012c30       no_op_initialize           0000000180013c30 f i libucrt:wsetlocale.obj
 0001:00013180       uninitialize_c             0000000180014180 f i libucrt:initialization.obj
 0001:00013180       initialize_environment     0000000180014180 f i libucrt:initialization.obj
 0001:00013180       uninitialize_global_state_isolation 0000000180014180 f i libucrt:initialization.obj
 0001:00013180       initialize_global_state_isolation 0000000180014180 f i libucrt:initialization.obj
 0001:00013180       report_memory_leaks        0000000180014180 f i libucrt:initialization.obj
 0001:000203d0       ?load_exe_hook@@YAP6A_JXZIPEAUDelayLoadInfo@@@Z 00000001800213d0 f   win_delay_load_hook.obj
 0001:00020bd8       tidy_global                0000000180021bd8 f   libcpmt:locale0.obj
 0001:000214e0       ?initialize_pointers@@YAHXZ 00000001800224e0 f   libcpmt:winapisupp.obj
 0001:00021f70       $$000000                   0000000180022f70     LIBCMT:amdsecgs.obj
 0001:000223cc       ?dllmain_crt_dispatch@@YAHQEAUHINSTANCE__@@KQEAX@Z 00000001800233cc f   LIBCMT:dll_dllmain.obj
 0001:0002241c       ?dllmain_crt_process_attach@@YAHQEAUHINSTANCE__@@QEAX@Z 000000018002341c f   LIBCMT:dll_dllmain.obj
 0001:00022538       ?dllmain_crt_process_detach@@YAH_N@Z 0000000180023538 f   LIBCMT:dll_dllmain.obj
 0001:000225c8       ?dllmain_dispatch@@YAHQEAUHINSTANCE__@@KQEAX@Z 00000001800235c8 f   LIBCMT:dll_dllmain.obj
 0001:00022870       $$000000                   0000000180023870     LIBCMT:chkstk.obj
 0001:00022a8c       capture_current_context    0000000180023a8c f   LIBCMT:gs_report.obj
 0001:00022afc       capture_previous_context   0000000180023afc f   LIBCMT:gs_report.obj
 0001:00023940       $$000000                   0000000180024940     libvcruntime:memcpy.obj
 0001:000239f7       MoveSmall                  00000001800249f7     libvcruntime:memcpy.obj
 0001:00023db0       $$000000                   0000000180024db0     libvcruntime:memset.obj
 0001:00023eac       MsetTab                    0000000180024eac     libvcruntime:memset.obj
 0001:00023f70       $$000000                   0000000180024f70     libvcruntime:memchr.obj
 0001:00023ff0       $$000000                   0000000180024ff0     libvcruntime:memcmp.obj
 0001:00024690       ??$BuildCatchObjectHelperInternal@V__FrameHandler3@@@@YAHPEAUEHExceptionRecord@@PEAXPEBU_s_HandlerType@@PEBU_s_CatchableType@@@Z 0000000180025690 f   libvcruntime:frame.obj
 0001:00024890       ??$BuildCatchObjectInternal@V__FrameHandler3@@@@YAXPEAUEHExceptionRecord@@PEAXPEBU_s_HandlerType@@PEBU_s_CatchableType@@@Z 0000000180025890 f   libvcruntime:frame.obj
 0001:00024950       ??$CatchIt@V__FrameHandler3@@@@YAXPEAUEHExceptionRecord@@PEA_KPEAU_CONTEXT@@PEAU_xDISPATCHER_CONTEXT@@PEBU_s_FuncInfo@@PEBU_s_HandlerType@@PEBU_s_CatchableType@@PEBU_s_TryBlockMapEntry@@H1EE@Z 0000000180025950 f   libvcruntime:frame.obj
 0001:00024a20       ??$FindHandler@V__FrameHandler3@@@@YAXPEAUEHExceptionRecord@@PEA_KPEAU_CONTEXT@@PEAU_xDISPATCHER_CONTEXT@@PEBU_s_FuncInfo@@EH1@Z 0000000180025a20 f   libvcruntime:frame.obj
 0001:00024e84       ??$FindHandlerForForeignException@V__FrameHandler3@@@@YAXPEAUEHExceptionRecord@@PEA_KPEAU_CONTEXT@@PEAU_xDISPATCHER_CONTEXT@@PEBU_s_FuncInfo@@HH1@Z 0000000180025e84 f   libvcruntime:frame.obj
 0001:0002568c       ?ExFilterRethrow@@YAHPEAU_EXCEPTION_POINTERS@@PEAUEHExceptionRecord@@PEAH@Z 000000018002668c f   libvcruntime:frame.obj
 0001:00025940       ?IsInExceptionSpec@@YAEPEAUEHExceptionRecord@@PEBU_s_ESTypeList@@@Z 0000000180026940 f   libvcruntime:frame.obj
 0001:00025a18       ?Is_bad_exception_allowed@@YAEPEBU_s_ESTypeList@@@Z 0000000180026a18 f   libvcruntime:frame.obj
 0001:00025b58       ?try_get_function@@YAPEAXW4function_id@?A0xbfd18cd1@@QEBDQEBW4module_id@2@2@Z 0000000180026b58 f   libvcruntime:winapi_downlevel.obj
 0001:00025f30       $$000000                   0000000180026f30     libvcruntime:notify.obj
 0001:00025fb0       $$000000                   0000000180026fb0     libvcruntime:handlers.obj
 0001:000264a0       ??$?RV<lambda_842d9ff0dc9ef11c61343bbaebe7f885>@@AEAV<lambda_c5860995281e5c4ce005b3de8f5874ee>@@V<lambda_d90129c13df834fdcbf8d2b88dafcf2d>@@@?$__crt_seh_guarded_call@X@@QEAAX$$QEAV<lambda_842d9ff0dc9ef11c61343bbaebe7f885>@@AEAV<lambda_c5860995281e5c4ce005b3de8f5874ee>@@$$QEAV<lambda_d90129c13df834fdcbf8d2b88dafcf2d>@@@Z 00000001800274a0 f   libucrt:fflush.obj
 0001:0002653c       ??$?RV<lambda_886d6c58226a84441f68b9f2b8217b83>@@AEAV<lambda_ab61a845afdef5b7c387490eaf3616ee>@@V<lambda_f7f22ab5edc0698d5f6905b0d3f44752>@@@?$__crt_seh_guarded_call@X@@QEAAX$$QEAV<lambda_886d6c58226a84441f68b9f2b8217b83>@@AEAV<lambda_ab61a845afdef5b7c387490eaf3616ee>@@$$QEAV<lambda_f7f22ab5edc0698d5f6905b0d3f44752>@@@Z 000000018002753c f   libucrt:fflush.obj
 0001:0002661c       ??$?RV<lambda_c376a267cfb53b6959b3b692ec76b120>@@AEAV<lambda_9a32fed5bf61b6b509b2d3f6003082a1>@@V<lambda_572fbb9fa0ab338edf41edfd4b5fcc8d>@@@?$__crt_seh_guarded_call@H@@QEAAH$$QEAV<lambda_c376a267cfb53b6959b3b692ec76b120>@@AEAV<lambda_9a32fed5bf61b6b509b2d3f6003082a1>@@$$QEAV<lambda_572fbb9fa0ab338edf41edfd4b5fcc8d>@@@Z 000000018002761c f   libucrt:fflush.obj
 0001:0002665c       ?common_flush_all@@YAH_N@Z 000000018002765c f   libucrt:fflush.obj
 0001:00026d98       fallbackMethod             0000000180027d98 f   libucrt:strcspn.obj
 0001:00027148       $LN78                      0000000180028148     libucrt:strcspn.obj
 0001:00027184       $LN77                      0000000180028184     libucrt:strcspn.obj
 0001:000271c4       $LN76                      00000001800281c4     libucrt:strcspn.obj
 0001:00027204       ??$?RV<lambda_0d412022a4b28cc8a401ea49574e8ae6>@@AEAV<lambda_a775ed57af18ba8e4d5dc780aa9068fe>@@V<lambda_975a71a6baa488a08f4e15f6b0339b9e>@@@?$__crt_seh_guarded_call@H@@QEAAH$$QEAV<lambda_0d412022a4b28cc8a401ea49574e8ae6>@@AEAV<lambda_a775ed57af18ba8e4d5dc780aa9068fe>@@$$QEAV<lambda_975a71a6baa488a08f4e15f6b0339b9e>@@@Z 0000000180028204 f   libucrt:output.obj
 0001:00027244       ??$common_vsprintf@Vformat_validation_base@__crt_stdio_output@@D@@YAH_KQEAD0QEBDQEAU__crt_locale_pointers@@1@Z 0000000180028244 f   libucrt:output.obj
 0001:00027410       ??$common_vsprintf@Vstandard_base@__crt_stdio_output@@_W@@YAH_KQEA_W0QEB_WQEAU__crt_locale_pointers@@QEAD@Z 0000000180028410 f   libucrt:output.obj
 0001:00027b6c       ??R<lambda_a775ed57af18ba8e4d5dc780aa9068fe>@@QEBAHXZ 0000000180028b6c f   libucrt:output.obj
 0001:0002a8e0       ??$?RV<lambda_bdbcead8b570fa3d5ec6d9679862a6e5>@@AEAV<lambda_96f4279ff90247a4c5c5d9824f56f8c1>@@V<lambda_4606be27f17b5e5579e09050fab91818>@@@?$__crt_seh_guarded_call@_K@@QEAA_K$$QEAV<lambda_bdbcead8b570fa3d5ec6d9679862a6e5>@@AEAV<lambda_96f4279ff90247a4c5c5d9824f56f8c1>@@$$QEAV<lambda_4606be27f17b5e5579e09050fab91818>@@@Z 000000018002b8e0 f   libucrt:fwrite.obj
 0001:0002a920       ??R<lambda_96f4279ff90247a4c5c5d9824f56f8c1>@@QEBA_KXZ 000000018002b920 f   libucrt:fwrite.obj
 0001:0002ac00       ??$?RV<lambda_84ec643ea9557e2f7dc01bb0e9624395>@@AEAV<lambda_ca71763b3c0644891230e4f79ea54fa6>@@V<lambda_439a761618c59b0600e24586724d733b>@@@?$__crt_seh_guarded_call@H@@QEAAH$$QEAV<lambda_84ec643ea9557e2f7dc01bb0e9624395>@@AEAV<lambda_ca71763b3c0644891230e4f79ea54fa6>@@$$QEAV<lambda_439a761618c59b0600e24586724d733b>@@@Z 000000018002bc00 f   libucrt:setvbuf.obj
 0001:0002ac40       ??R<lambda_ca71763b3c0644891230e4f79ea54fa6>@@QEBAHXZ 000000018002bc40 f   libucrt:setvbuf.obj
 0001:0002adbc       ??$common_timespec_get@U_timespec64@@@@YAHQEAU_timespec64@@H@Z 000000018002bdbc f   libucrt:time.obj
 0001:0002ae94       ??$common_localtime_s@_J@@YAHQEAUtm@@QEB_J@Z 000000018002be94 f   libucrt:localtime.obj
 0001:0002bea8       ??$common_atof_l@D@@YANQEBDQEAU__crt_locale_pointers@@@Z 000000018002cea8 f   libucrt:atof.obj
 0001:0002f244       memcpy_s                   0000000180030244 f   libucrt:atof.obj
 0001:0002f244       memcpy_s                   0000000180030244 f   libucrt:cfout.obj
 0001:0002f8ac       ?common_fseek@@YAHV__crt_stdio_stream@@_JH@Z 00000001800308ac f   libucrt:fseek.obj
 0001:0002f918       ?common_fseek_binary_mode_read_only_fast_track_nolock@@YA_NV__crt_stdio_stream@@_JH@Z 0000000180030918 f   libucrt:fseek.obj
 0001:0002f9fc       ?common_fseek_nolock@@YAHV__crt_stdio_stream@@_JH@Z 00000001800309fc f   libucrt:fseek.obj
 0001:0002fac4       ??$common_assert_to_message_box@_W@@YAXQEB_W0IQEAX@Z 0000000180030ac4 f   libucrt:assert.obj
 0001:0002fb88       ??$common_assert_to_message_box_build_string@_W@@YAXQEA_W_KQEB_W2IQEAX@Z 0000000180030b88 f   libucrt:assert.obj
 0001:0003008c       ??$common_assert_to_stderr@_W@@YAXQEB_W0I@Z 000000018003108c f   libucrt:assert.obj
 0001:000301fc       ?get_assert_format@@YAPEB_W_W@Z 00000001800311fc f   libucrt:assert.obj
 0001:00030558       ??$?RV<lambda_9bd929c17696992ce54f1d748594fc62>@@AEAV<lambda_082c17da81b0962e08c0587ee0fac50c>@@V<lambda_9c08ac857f4975304d44e9f601d9b878>@@@?$__crt_seh_guarded_call@PEAD@@QEAAPEAD$$QEAV<lambda_9bd929c17696992ce54f1d748594fc62>@@AEAV<lambda_082c17da81b0962e08c0587ee0fac50c>@@$$QEAV<lambda_9c08ac857f4975304d44e9f601d9b878>@@@Z 0000000180031558 f   libucrt:setlocale.obj
 0001:00030598       ??R<lambda_082c17da81b0962e08c0587ee0fac50c>@@QEBAPEADXZ 0000000180031598 f   libucrt:setlocale.obj
 0001:00030884       ??$common_fsopen@D@@YAPEAU_iobuf@@QEBD0H@Z 0000000180031884 f   libucrt:fopen.obj
 0001:000311c0       $$000000                   00000001800321c0     libucrt:pow.obj
 0001:00032860       $$000000                   0000000180033860     libucrt:powf.obj
 0001:000337a0       ?compute_iso_week_internal@@YAHHHH@Z 00000001800347a0 f   libucrt:wcsftime.obj
 0001:00033894       ?expand_time@@YA_NPEAU__crt_locale_pointers@@_WPEBUtm@@PEAPEA_WPEA_KPEBU__crt_lc_time_data@@_N@Z 0000000180034894 f   libucrt:wcsftime.obj
 0001:000347c4       ?store_number@@YAXHHQEAPEA_WQEA_K_W@Z 00000001800357c4 f   libucrt:wcsftime.obj
 0001:00034904       ?store_winword@@YA_NQEAU__crt_locale_pointers@@HQEBUtm@@QEAPEA_WQEA_KQEBU__crt_lc_time_data@@@Z 0000000180035904 f   libucrt:wcsftime.obj
 0001:00034fd0       ?internal_isupper_l@@YA_NHQEAU__crt_locale_pointers@@@Z 0000000180035fd0 f   libucrt:tolower_toupper.obj
 0001:00035730       ??$?RV<lambda_d80eeec6fff315bfe5c115232f3240e3>@@AEAV<lambda_6e4b09c48022b2350581041d5f6b0c4c>@@V<lambda_2358e3775559c9db80273638284d5e45>@@@?$__crt_seh_guarded_call@X@@QEAAX$$QEAV<lambda_d80eeec6fff315bfe5c115232f3240e3>@@AEAV<lambda_6e4b09c48022b2350581041d5f6b0c4c>@@$$QEAV<lambda_2358e3775559c9db80273638284d5e45>@@@Z 0000000180036730 f   libucrt:exit.obj
 0001:00035768       ??R<lambda_6e4b09c48022b2350581041d5f6b0c4c>@@QEBA@XZ 0000000180036768 f   libucrt:exit.obj
 0001:0003582c       ?atexit_exception_filter@@YAHK@Z 000000018003682c f   libucrt:exit.obj
 0001:00035838       ?common_exit@@YAXHW4_crt_exit_cleanup_mode@@W4_crt_exit_return_mode@@@Z 0000000180036838 f   libucrt:exit.obj
 0001:000358f4       ?exit_or_terminate_process@@YAXI@Z 00000001800368f4 f   libucrt:exit.obj
 0001:00035940       ?try_cor_exit_process@@YAXI@Z 0000000180036940 f   libucrt:exit.obj
 0001:000359c8       ??$parse_command_line@D@@YAXPEADPEAPEAD0PEA_K2@Z 00000001800369c8 f   libucrt:argv_parsing.obj
 0001:00035d74       ??$common_initialize_environment_nolock@D@@YAHXZ 0000000180036d74 f   libucrt:environment_initialization.obj
 0001:00035de0       ??$create_environment@D@@YAQEAPEADQEAD@Z 0000000180036de0 f   libucrt:environment_initialization.obj
 0001:00035ee8       ??$free_environment@D@@YAXQEAPEAD@Z 0000000180036ee8 f   libucrt:environment_initialization.obj
 0001:00035ee8       ??$free_environment@_W@@YAXQEAPEA_W@Z 0000000180036ee8 f   libucrt:environment_initialization.obj
 0001:00035f2c       ??$initialize_environment_by_cloning_nolock@D@@YAHXZ 0000000180036f2c f   libucrt:environment_initialization.obj
 0001:00036000       ??$uninitialize_environment_internal@D@@YAXAEAPEAPEAD@Z 0000000180037000 f   libucrt:environment_initialization.obj
 0001:0003601c       ??$uninitialize_environment_internal@_W@@YAXAEAPEAPEA_W@Z 000000018003701c f   libucrt:environment_initialization.obj
 0001:000360b4       ??$?RV<lambda_638799b9deba96c50f710eeac98168cd>@@AEAV<lambda_22ebabd17bc4fa466a2aca6d8deb888d>@@V<lambda_a6f7d7db0129f75315ebf26d50c089f1>@@@?$__crt_seh_guarded_call@H@@QEAAH$$QEAV<lambda_638799b9deba96c50f710eeac98168cd>@@AEAV<lambda_22ebabd17bc4fa466a2aca6d8deb888d>@@$$QEAV<lambda_a6f7d7db0129f75315ebf26d50c089f1>@@@Z 00000001800370b4 f   libucrt:onexit.obj
 0001:000360f0       ??$?RV<lambda_7777bce6b2f8c936911f934f8298dc43>@@AEAV<lambda_f03950bc5685219e0bcd2087efbe011e>@@V<lambda_3883c3dff614d5e0c5f61bb1ac94921c>@@@?$__crt_seh_guarded_call@H@@QEAAH$$QEAV<lambda_7777bce6b2f8c936911f934f8298dc43>@@AEAV<lambda_f03950bc5685219e0bcd2087efbe011e>@@$$QEAV<lambda_3883c3dff614d5e0c5f61bb1ac94921c>@@@Z 00000001800370f0 f   libucrt:onexit.obj
 0001:0003612c       ??R<lambda_22ebabd17bc4fa466a2aca6d8deb888d>@@QEBAHXZ 000000018003712c f   libucrt:onexit.obj
 0001:000362dc       ??R<lambda_f03950bc5685219e0bcd2087efbe011e>@@QEBAHXZ 00000001800372dc f   libucrt:onexit.obj
 0001:000364b0       initialize_global_variables 00000001800374b0 f   libucrt:initialization.obj
 0001:000364c4       initialize_c               00000001800374c4 f   libucrt:initialization.obj
 0001:000364e8       uninitialize_environment   00000001800374e8 f   libucrt:initialization.obj
 0001:000364f8       initialize_pointers        00000001800374f8 f   libucrt:initialization.obj
 0001:00036538       uninitialize_vcruntime     0000000180037538 f   libucrt:initialization.obj
 0001:00036540       uninitialize_allocated_memory 0000000180037540 f   libucrt:initialization.obj
 0001:00036580       uninitialize_allocated_io_buffers 0000000180037580 f   libucrt:initialization.obj
 0001:00036790       $$000000                   0000000180037790     libucrt:strncmp.obj
 0001:00036820       ??$?RV<lambda_450d765d439847d4c735a33c368b5fc0>@@AEAV<lambda_44731a7d0e6d81c3e6aa82d741081786>@@V<lambda_601a2a7da3b7a96e9554ac7215c4b07c>@@@?$__crt_seh_guarded_call@P6AXH@Z@@QEAAP6AXH@Z$$QEAV<lambda_450d765d439847d4c735a33c368b5fc0>@@AEAV<lambda_44731a7d0e6d81c3e6aa82d741081786>@@$$QEAV<lambda_601a2a7da3b7a96e9554ac7215c4b07c>@@@Z 0000000180037820 f   libucrt:signal.obj
 0001:00036b4c       ??$write_buffer_nolock@D@@YA_NDV__crt_stdio_stream@@@Z 0000000180037b4c f   libucrt:_flsbuf.obj
 0001:00036c30       ??$write_buffer_nolock@_W@@YA_N_WV__crt_stdio_stream@@@Z 0000000180037c30 f   libucrt:_flsbuf.obj
 0001:00036d18       ?stream_is_at_end_of_file_nolock@@YA_NV__crt_stdio_stream@@@Z 0000000180037d18 f   libucrt:_flsbuf.obj
 0001:00036f68       ?initialize_inherited_file_handles_nolock@@YAXXZ 0000000180037f68 f   libucrt:ioinit.obj
 0001:00037058       ?initialize_stdio_handles_nolock@@YAXXZ 0000000180038058 f   libucrt:ioinit.obj
 0001:00037258       ??$?RV<lambda_0ae27a3a962d80f24befdcbee591983d>@@AEAV<lambda_8d0ee55de4b1038c4002e0adecdf1839>@@V<lambda_dc504788e8f1664fe9b84e20bfb512f2>@@@?$__crt_seh_guarded_call@X@@QEAAX$$QEAV<lambda_0ae27a3a962d80f24befdcbee591983d>@@AEAV<lambda_8d0ee55de4b1038c4002e0adecdf1839>@@$$QEAV<lambda_dc504788e8f1664fe9b84e20bfb512f2>@@@Z 0000000180038258 f   libucrt:per_thread_data.obj
 0001:00037298       ??$?RV<lambda_2d41944a1d46af3157314b8a01080d33>@@AEAV<lambda_8f455de75cd7d7f24b4096f044d8b9e6>@@V<lambda_aa500f224e6afead328df44964fe2772>@@@?$__crt_seh_guarded_call@X@@QEAAX$$QEAV<lambda_2d41944a1d46af3157314b8a01080d33>@@AEAV<lambda_8f455de75cd7d7f24b4096f044d8b9e6>@@$$QEAV<lambda_aa500f224e6afead328df44964fe2772>@@@Z 0000000180038298 f   libucrt:per_thread_data.obj
 0001:000372d8       ??$?RV<lambda_aa87e3671a710a21b5dc78c0bdf72e11>@@AEAV<lambda_92619d2358a28f41a33ba319515a20b9>@@V<lambda_6992ecaafeb10aed2b74cb1fae11a551>@@@?$__crt_seh_guarded_call@X@@QEAAX$$QEAV<lambda_aa87e3671a710a21b5dc78c0bdf72e11>@@AEAV<lambda_92619d2358a28f41a33ba319515a20b9>@@$$QEAV<lambda_6992ecaafeb10aed2b74cb1fae11a551>@@@Z 00000001800382d8 f   libucrt:per_thread_data.obj
 0001:00037320       ??$?RV<lambda_f2e299630e499de9f9a165e60fcd3db5>@@AEAV<lambda_2ae9d31cdba2644fcbeaf08da7c24588>@@V<lambda_40d01ff24d0e7b3814fdbdcee8eab3c7>@@@?$__crt_seh_guarded_call@X@@QEAAX$$QEAV<lambda_f2e299630e499de9f9a165e60fcd3db5>@@AEAV<lambda_2ae9d31cdba2644fcbeaf08da7c24588>@@$$QEAV<lambda_40d01ff24d0e7b3814fdbdcee8eab3c7>@@@Z 0000000180038320 f   libucrt:per_thread_data.obj
 0001:00037380       ?construct_ptd_array@@YAXQEAU__acrt_ptd@@@Z 0000000180038380 f   libucrt:per_thread_data.obj
 0001:00037450       ?destroy_fls@@YAXPEAX@Z    0000000180038450 f   libucrt:per_thread_data.obj
 0001:00037470       ?destroy_ptd_array@@YAXQEAU__acrt_ptd@@@Z 0000000180038470 f   libucrt:per_thread_data.obj
 0001:00037568       ?replace_current_thread_locale_nolock@@YAXQEAU__acrt_ptd@@QEAU__crt_locale_data@@@Z 0000000180038568 f   libucrt:per_thread_data.obj
 0001:000378bc       ??$?RV<lambda_a37b2b86f63e897a80ea819b0eb08c01>@@AEAV<lambda_38ce7e780aa69e748d6df282ebc68efe>@@V<lambda_99fb1378e971ab6e7edea83e3a7a83a2>@@@?$__crt_seh_guarded_call@H@@QEAAH$$QEAV<lambda_a37b2b86f63e897a80ea819b0eb08c01>@@AEAV<lambda_38ce7e780aa69e748d6df282ebc68efe>@@$$QEAV<lambda_99fb1378e971ab6e7edea83e3a7a83a2>@@@Z 00000001800388bc f   libucrt:commit.obj
 0001:000379dc       ?write_double_translated_ansi_nolock@@YA?AUwrite_result@?A0x17268360@@HQEBDI@Z 00000001800389dc f   libucrt:write.obj
 0001:00037eb8       ?write_text_ansi_nolock@@YA?AUwrite_result@?A0x17268360@@HQEBDI@Z 0000000180038eb8 f   libucrt:write.obj
 0001:00037fbc       ?write_text_utf16le_nolock@@YA?AUwrite_result@?A0x17268360@@HQEBDI@Z 0000000180038fbc f   libucrt:write.obj
 0001:000380d8       ?write_text_utf8_nolock@@YA?AUwrite_result@?A0x17268360@@HQEBDI@Z 00000001800390d8 f   libucrt:write.obj
 0001:00038650       ??$?RV<lambda_751a882b2c74d4b022dec766aa51a29a>@@AEAV<lambda_628dfdc04ba53c8bfc02c9951375f3f5>@@V<lambda_f6c7be5f7998530c34de24c7437d6b54>@@@?$__crt_seh_guarded_call@H@@QEAAH$$QEAV<lambda_751a882b2c74d4b022dec766aa51a29a>@@AEAV<lambda_628dfdc04ba53c8bfc02c9951375f3f5>@@$$QEAV<lambda_f6c7be5f7998530c34de24c7437d6b54>@@@Z 0000000180039650 f   libucrt:close.obj
 0001:0003889c       ?find_or_allocate_unused_stream_nolock@@YA?AV__crt_stdio_stream@@XZ 000000018003989c f   libucrt:stream.obj
 0001:00038b84       ??$?RV<lambda_1d892b297fdedeee07ed8124eeb2f2fa>@@AEAV<lambda_ffc046909424fd52df0ac47e64813305>@@V<lambda_01a7098693036236037e7cdb9bca3d73>@@@?$__crt_seh_guarded_call@X@@QEAAX$$QEAV<lambda_1d892b297fdedeee07ed8124eeb2f2fa>@@AEAV<lambda_ffc046909424fd52df0ac47e64813305>@@$$QEAV<lambda_01a7098693036236037e7cdb9bca3d73>@@@Z 0000000180039b84 f   libucrt:wsetlocale.obj
 0001:00038cc0       ??$?RV<lambda_410d79af7f07d98d83a3f525b3859a53>@@AEAV<lambda_3e16ef9562a7dcce91392c22ab16ea36>@@V<lambda_38119f0e861e05405d8a144b9b982f0a>@@@?$__crt_seh_guarded_call@X@@QEAAX$$QEAV<lambda_410d79af7f07d98d83a3f525b3859a53>@@AEAV<lambda_3e16ef9562a7dcce91392c22ab16ea36>@@$$QEAV<lambda_38119f0e861e05405d8a144b9b982f0a>@@@Z 0000000180039cc0 f   libucrt:wsetlocale.obj
 0001:00038d30       ??$?RV<lambda_7f2adfce497ff2baa965cd4f576ecfd1>@@AEAV<lambda_2a444430fde8c29194d880d93eed5e8f>@@AEAV<lambda_8dff2cf36a5417162780cd64fa2883ef>@@@?$__crt_seh_guarded_call@X@@QEAAX$$QEAV<lambda_7f2adfce497ff2baa965cd4f576ecfd1>@@AEAV<lambda_2a444430fde8c29194d880d93eed5e8f>@@AEAV<lambda_8dff2cf36a5417162780cd64fa2883ef>@@@Z 0000000180039d30 f   libucrt:wsetlocale.obj
 0001:00038d5c       ??R<lambda_2a444430fde8c29194d880d93eed5e8f>@@QEBA@XZ 0000000180039d5c f   libucrt:wsetlocale.obj
 0001:000390cc       _copytlocinfo_nolock       000000018003a0cc f   libucrt:wsetlocale.obj
 0001:0003967c       _wsetlocale_get_all        000000018003a67c f   libucrt:wsetlocale.obj
 0001:00039868       _wsetlocale_nolock         000000018003a868 f   libucrt:wsetlocale.obj
 0001:00039afc       _wsetlocale_set_cat        000000018003aafc f   libucrt:wsetlocale.obj
 0001:0003a1e0       ?fp_format_a@@YAHQEBNPEAD_KQEAD2H_NIQEAU__crt_locale_pointers@@@Z 000000018003b1e0 f   libucrt:cvt.obj
 0001:0003a550       ?fp_format_e@@YAHQEBNQEAD_K12H_NIQEAU__crt_locale_pointers@@@Z 000000018003b550 f   libucrt:cvt.obj
 0001:0003a62c       ?fp_format_e_internal@@YAHQEAD_KH_NIQEAU_strflt@@2QEAU__crt_locale_pointers@@@Z 000000018003b62c f   libucrt:cvt.obj
 0001:0003a800       ?fp_format_f_internal@@YAHQEAD_KHQEAU_strflt@@_NQEAU__crt_locale_pointers@@@Z 000000018003b800 f   libucrt:cvt.obj
 0001:0003a944       ?fp_format_g@@YAHQEBNQEAD_K12H_NIQEAU__crt_locale_pointers@@@Z 000000018003b944 f   libucrt:cvt.obj
 0001:0003aa78       ?fp_format_nan_or_infinity@@YAHW4__acrt_fp_class@@_NPEAD_K1@Z 000000018003ba78 f   libucrt:cvt.obj
 0001:0003b248       ?<lambda_invoker_cdecl>@<lambda_795c6bd18aed400428efeb9a5f0e1479>@@CAHPEA_W@Z 000000018003c248 f   libucrt:winapi_thunks.obj
 0001:0003b270       ??$?RV<lambda_bd00b5aa228bd7e7e5b2b5db5fd2933b>@@AEAV<lambda_777d11615145f89ee95b9466d285deeb>@@V<lambda_6e5e48fbd24f9f8f81b203eb3d877683>@@@?$__crt_seh_guarded_call@H@@QEAAH$$QEAV<lambda_bd00b5aa228bd7e7e5b2b5db5fd2933b>@@AEAV<lambda_777d11615145f89ee95b9466d285deeb>@@$$QEAV<lambda_6e5e48fbd24f9f8f81b203eb3d877683>@@@Z 000000018003c270 f   libucrt:winapi_thunks.obj
 0001:0003b2ec       ?try_get_function@@YAPEAXW4function_id@?A0x391cf84c@@QEBDQEBW4module_id@2@2@Z 000000018003c2ec f   libucrt:winapi_thunks.obj
 0001:0003c258       ??$common_ftell@_J@@YA_JV__crt_stdio_stream@@@Z 000000018003d258 f   libucrt:ftell.obj
 0001:0003c2ac       ??$common_ftell_nolock@_J@@YA_JV__crt_stdio_stream@@@Z 000000018003d2ac f   libucrt:ftell.obj
 0001:0003c3dc       ?common_ftell_read_mode_nolock@@YA_JV__crt_stdio_stream@@_J1@Z 000000018003d3dc f   libucrt:ftell.obj
 0001:0003c528       ?common_ftell_translated_utf8_nolock@@YA_JV__crt_stdio_stream@@_J@Z 000000018003d528 f   libucrt:ftell.obj
 0001:0003c6a4       ?count_newline_bytes@@YA_JQEBD0W4__crt_lowio_text_mode@@@Z 000000018003d6a4 f   libucrt:ftell.obj
 0001:0003c82c       ??$common_gmtime_s@_J@@YAHQEAUtm@@QEB_J@Z 000000018003d82c f   libucrt:gmtime.obj
 0001:0003c9c0       ?compute_year@@YAHAEA_JAEA_N@Z 000000018003d9c0 f   libucrt:gmtime.obj
 0001:0003cb04       ?_isindst_nolock@@YAHQEAUtm@@@Z 000000018003db04 f   libucrt:tzset.obj
 0001:0003cdf8       ?cvtdate@@YAXW4transition_type@?A0x7639d0b4@@W4date_type@2@HHHHHHHHH@Z 000000018003ddf8 f   libucrt:tzset.obj
 0001:0003cff0       ?tzset_from_environment_nolock@@YAXPEAD@Z 000000018003dff0 f   libucrt:tzset.obj
 0001:0003d1f8       ?tzset_from_system_nolock@@YAXXZ 000000018003e1f8 f   libucrt:tzset.obj
 0001:0003d3a0       ?tzset_nolock@@YAXXZ       000000018003e3a0 f   libucrt:tzset.obj
 0001:0003e1b0       ??$translate_text_mode_nolock@D@@YAHHQEAD_K@Z 000000018003f1b0 f   libucrt:read.obj
 0001:0003e37c       ??$translate_text_mode_nolock@_W@@YAHHQEA_W_K@Z 000000018003f37c f   libucrt:read.obj
 0001:0003e5e8       ?translate_ansi_or_utf8_nolock@@YAHHQEAD_KQEA_W1@Z 000000018003f5e8 f   libucrt:read.obj
 0001:0003ecf8       ??$common_lseek@_J@@YA_JH_JH@Z 000000018003fcf8 f   libucrt:lseek.obj
 0001:0003ede8       ??$common_lseek_nolock@_J@@YA_JH_JH@Z 000000018003fde8 f   libucrt:lseek.obj
 0001:0003ee9c       ??$common_xtox@K_W@@YAHKQEA_W_KI_N@Z 000000018003fe9c f   libucrt:xtoa.obj
 0001:0003ef70       ??$common_xtox_s@K_W@@YAHKQEA_W_KI_N@Z 000000018003ff70 f   libucrt:xtoa.obj
 0001:0003f380       ?_mbstowcs_l_helper@@YA_KPEA_WPEBD_KPEAU__crt_locale_pointers@@@Z 0000000180040380 f   libucrt:mbstowcs.obj
 0001:0003f6d8       ?_wcstombs_l_helper@@YA_KPEADPEB_W_KPEAU__crt_locale_pointers@@@Z 00000001800406d8 f   libucrt:wcstombs.obj
 0001:0003fe8c       ?InternalGetLocaleInfoA@@YAHQEAU__crt_locale_pointers@@QEB_WKQEADH@Z 0000000180040e8c f   libucrt:getlocaleinfoa.obj
 0001:00040360       ?__acrt_LCMapStringA_stat@@YAHPEAU__crt_locale_pointers@@PEB_WKPEBDHPEADHHH@Z 0000000180041360 f   libucrt:lcmapstringa.obj
 0001:00040d90       ?<lambda_invoker_cdecl>@<lambda_c2303d2482d7c3675ea2e24c4cfb6115>@@CAHPEBX0@Z 0000000180041d90 f   libucrt:argv_wildcards.obj
 0001:00040f30       ??$common_expand_argv_wildcards@D@@YAHQEAPEADQEAPEAPEAD@Z 0000000180041f30 f   libucrt:argv_wildcards.obj
 0001:0004113c       ??$copy_and_add_argument_to_buffer@D@@YAHQEBD0_KAEAV?$argument_list@D@?A0x5f5c8891@@@Z 000000018004213c f   libucrt:argv_wildcards.obj
 0001:000412c4       ??$expand_argument_wildcards@D@@YAHQEAD0AEAV?$argument_list@D@?A0x5f5c8891@@@Z 00000001800422c4 f   libucrt:argv_wildcards.obj
 0001:000415dc       ??$?RV<lambda_efdfa57d1f175319df784efa44bb7b81>@@AEAV<lambda_5f0a4c1567f8adc6734073e5d1e1b35c>@@V<lambda_2e8a7d3640ea6ccb4c2413664c2db6fd>@@@?$__crt_seh_guarded_call@X@@QEAAX$$QEAV<lambda_efdfa57d1f175319df784efa44bb7b81>@@AEAV<lambda_5f0a4c1567f8adc6734073e5d1e1b35c>@@$$QEAV<lambda_2e8a7d3640ea6ccb4c2413664c2db6fd>@@@Z 00000001800425dc f   libucrt:mbctype.obj
 0001:00041798       ?getSystemCP@@YAHH@Z       0000000180042798 f   libucrt:mbctype.obj
 0001:00041818       ?setSBCS@@YAXPEAU__crt_multibyte_data@@@Z 0000000180042818 f   libucrt:mbctype.obj
 0001:000418a8       ?setSBUpLow@@YAXPEAU__crt_multibyte_data@@@Z 00000001800428a8 f   libucrt:mbctype.obj
 0001:00041a8c       ?setmbcp_internal@@YAHH_NQEAU__acrt_ptd@@QEAPEAU__crt_multibyte_data@@@Z 0000000180042a8c f   libucrt:mbctype.obj
 0001:00041c50       ?update_thread_multibyte_data_internal@@YAPEAU__crt_multibyte_data@@QEAU__acrt_ptd@@QEAPEAU1@@Z 0000000180042c50 f   libucrt:mbctype.obj
 0001:00042040       ?x_ismbbtype_l@@YAHPEAU__crt_locale_pointers@@IHH@Z 0000000180043040 f   libucrt:ismbbyte.obj
 0001:000421f8       ??$common_set_variable_in_environment_nolock@D@@YAHQEADH@Z 00000001800431f8 f   libucrt:setenv.obj
 0001:00042518       ??$copy_environment@D@@YAPEAPEADQEAPEAD@Z 0000000180043518 f   libucrt:setenv.obj
 0001:00043cf8       ?free_crt_array_internal@@YAXQEAPEBX_K@Z 0000000180044cf8 f   libucrt:inittime.obj
 0001:00043d50       ?initialize_lc_time@@YA_NQEAU__crt_lc_time_data@@QEAU__crt_locale_data@@@Z 0000000180044d50 f   libucrt:inittime.obj
 0001:0004438c       GetLocaleNameFromDefault   000000018004538c f   libucrt:get_qualified_locale.obj
 0001:00044434       GetLocaleNameFromLangCountry 0000000180045434 f   libucrt:get_qualified_locale.obj
 0001:00044504       GetLocaleNameFromLanguage  0000000180045504 f   libucrt:get_qualified_locale.obj
 0001:0004459c       LangCountryEnumProcEx      000000018004559c f   libucrt:get_qualified_locale.obj
 0001:00044888       LanguageEnumProcEx         0000000180045888 f   libucrt:get_qualified_locale.obj
 0001:00044974       ProcessCodePage            0000000180045974 f   libucrt:get_qualified_locale.obj
 0001:00044a40       TestDefaultCountry         0000000180045a40 f   libucrt:get_qualified_locale.obj
 0001:00044aa4       TranslateName              0000000180045aa4 f   libucrt:get_qualified_locale.obj
 0001:00044da4       CountryEnumProc            0000000180045da4 f   libucrt:getqloc_downlevel.obj
 0001:00044e8c       GetLcidFromLangCountry     0000000180045e8c f   libucrt:getqloc_downlevel.obj
 0001:00044f5c       GetLcidFromLanguage        0000000180045f5c f   libucrt:getqloc_downlevel.obj
 0001:00044ff4       LangCountryEnumProc        0000000180045ff4 f   libucrt:getqloc_downlevel.obj
 0001:00045240       LanguageEnumProc           0000000180046240 f   libucrt:getqloc_downlevel.obj
 0001:00045348       LcidFromHexString          0000000180046348 f   libucrt:getqloc_downlevel.obj
 0001:00045398       ProcessCodePage            0000000180046398 f   libucrt:getqloc_downlevel.obj
 0001:00045448       TestDefaultLanguage        0000000180046448 f   libucrt:getqloc_downlevel.obj
 0001:000454f4       TranslateName              00000001800464f4 f   libucrt:getqloc_downlevel.obj
 0001:00046bcc       ?GetTableIndexFromLocaleName@@YAHPEB_W@Z 0000000180047bcc f   libucrt:lcidtoname_downlevel.obj
 0001:00046ddc       ??$common_getenv_nolock@D@@YAPEADQEBD@Z 0000000180047ddc f   libucrt:getenv.obj
 0001:00046e68       ??$common_getenv_s@D@@YAHQEA_KQEAD_KQEBD@Z 0000000180047e68 f   libucrt:getenv.obj
 0001:00047050       $$000000                   0000000180048050     libucrt:fpsr.obj
 0001:00047848       ??$common_sopen_dispatch@D@@YAHQEBDHHHQEAHH@Z 0000000180048848 f   libucrt:open.obj
 0001:0004790c       ?configure_text_mode@@YAHHUfile_options@?A0xa9d50aae@@HAEAW4__crt_lowio_text_mode@@@Z 000000018004890c f   libucrt:open.obj
 0001:00047ba0       ?decode_options@@YA?AUfile_options@?A0xa9d50aae@@HHH@Z 0000000180048ba0 f   libucrt:open.obj
 0001:00047dac       ?truncate_ctrl_z_if_present@@YAHH@Z 0000000180048dac f   libucrt:open.obj
 0001:000483a4       _call_matherr              00000001800493a4 f   libucrt:libm_error.obj
 0001:0004840c       _exception_enabled         000000018004940c f   libucrt:libm_error.obj
 0001:00048be0       fallbackMethod             0000000180049be0 f   libucrt:strpbrk.obj
 0001:00048fa4       $LN78                      0000000180049fa4     libucrt:strpbrk.obj
 0001:00048fe0       $LN77                      0000000180049fe0     libucrt:strpbrk.obj
 0001:00049020       $LN76                      000000018004a020     libucrt:strpbrk.obj
 0001:000490fc       ?initialize_multibyte@@YAHXZ 000000018004a0fc f   libucrt:multibyte_initializer.obj
 0001:000498d0       $$000000                   000000018004a8d0     libucrt:log10.obj
 0001:0004a228       ?InternalCompareStringA@@YAHPEAU__crt_locale_pointers@@PEB_WKPEBDH2HH@Z 000000018004b228 f   libucrt:comparestringa.obj
 0001:0004a6d0       _log_special_common        000000018004b6d0 f   libucrt:log_special.obj
 0001:0004b140       $$000000                   000000018004c140     libucrt:log.obj
 0001:0004b670       $$000000                   000000018004c670     LIBCMT:guard_dispatch.obj
 0001:0004b690       ?dtor$0@?0??init@@YAXV?$Local@VObject@v8@@@v8@@@Z@4HA 000000018004c690 f   index.obj
 0001:0004b69e       ?dtor$2@?0??init@@YAXV?$Local@VObject@v8@@@v8@@@Z@4HA 000000018004c69e f   index.obj
 0001:0004b6ac       ?dtor$3@?0??init@@YAXV?$Local@VObject@v8@@@v8@@@Z@4HA 000000018004c6ac f   index.obj
 0001:0004b6ba       ?dtor$5@?0??init@@YAXV?$Local@VObject@v8@@@v8@@@Z@4HA 000000018004c6ba f   index.obj
 0001:0004b6c8       ?dtor$6@?0??init@@YAXV?$Local@VObject@v8@@@v8@@@Z@4HA 000000018004c6c8 f   index.obj
 0001:0004b6d6       ?dtor$8@?0??init@@YAXV?$Local@VObject@v8@@@v8@@@Z@4HA 000000018004c6d6 f   index.obj
 0001:0004b6e4       ?dtor$9@?0??init@@YAXV?$Local@VObject@v8@@@v8@@@Z@4HA 000000018004c6e4 f   index.obj
 0001:0004b6f2       ?dtor$11@?0??init@@YAXV?$Local@VObject@v8@@@v8@@@Z@4HA 000000018004c6f2 f   index.obj
 0001:0004b700       ?dtor$12@?0??init@@YAXV?$Local@VObject@v8@@@v8@@@Z@4HA 000000018004c700 f   index.obj
 0001:0004b70e       ?dtor$14@?0??init@@YAXV?$Local@VObject@v8@@@v8@@@Z@4HA 000000018004c70e f   index.obj
 0001:0004b71c       ?dtor$15@?0??init@@YAXV?$Local@VObject@v8@@@v8@@@Z@4HA 000000018004c71c f   index.obj
 0001:0004b72a       ?dtor$17@?0??init@@YAXV?$Local@VObject@v8@@@v8@@@Z@4HA 000000018004c72a f   index.obj
 0001:0004b738       ?dtor$18@?0??init@@YAXV?$Local@VObject@v8@@@v8@@@Z@4HA 000000018004c738 f   index.obj
 0001:0004b746       ?dtor$20@?0??init@@YAXV?$Local@VObject@v8@@@v8@@@Z@4HA 000000018004c746 f   index.obj
 0001:0004b754       ?dtor$21@?0??init@@YAXV?$Local@VObject@v8@@@v8@@@Z@4HA 000000018004c754 f   index.obj
 0001:0004b762       ?dtor$23@?0??init@@YAXV?$Local@VObject@v8@@@v8@@@Z@4HA 000000018004c762 f   index.obj
 0001:0004b770       ?dtor$24@?0??init@@YAXV?$Local@VObject@v8@@@v8@@@Z@4HA 000000018004c770 f   index.obj
 0001:0004b77e       ?dtor$26@?0??init@@YAXV?$Local@VObject@v8@@@v8@@@Z@4HA 000000018004c77e f   index.obj
 0001:0004b78c       ?dtor$27@?0??init@@YAXV?$Local@VObject@v8@@@v8@@@Z@4HA 000000018004c78c f   index.obj
 0001:0004b79a       ?dtor$29@?0??init@@YAXV?$Local@VObject@v8@@@v8@@@Z@4HA 000000018004c79a f   index.obj
 0001:0004b7a8       ?dtor$30@?0??init@@YAXV?$Local@VObject@v8@@@v8@@@Z@4HA 000000018004c7a8 f   index.obj
 0001:0004b7b6       ?dtor$32@?0??init@@YAXV?$Local@VObject@v8@@@v8@@@Z@4HA 000000018004c7b6 f   index.obj
 0001:0004b7c4       ?dtor$33@?0??init@@YAXV?$Local@VObject@v8@@@v8@@@Z@4HA 000000018004c7c4 f   index.obj
 0001:0004b7d2       ?dtor$35@?0??init@@YAXV?$Local@VObject@v8@@@v8@@@Z@4HA 000000018004c7d2 f   index.obj
 0001:0004b7e0       ?dtor$0@?0???$New@VFunctionTemplate@v8@@@Nan@@YA?AV?$Local@VFunctionTemplate@v8@@@v8@@P6AXAEBV?$FunctionCallbackInfo@VValue@v8@@@0@@ZV?$Local@VValue@v8@@@2@@Z@4HA 000000018004c7e0 f   index.obj
 0001:0004b7ee       ?dtor$1@?0???$New@VFunctionTemplate@v8@@@Nan@@YA?AV?$Local@VFunctionTemplate@v8@@@v8@@P6AXAEBV?$FunctionCallbackInfo@VValue@v8@@@0@@ZV?$Local@VValue@v8@@@2@@Z@4HA 000000018004c7ee f   index.obj
 0001:0004b800       ?dtor$0@?0???0_Locinfo@std@@QEAA@PEBD@Z@4HA 000000018004c800 f   nodejieba.obj
 0001:0004b80c       ?dtor$1@?0???0_Locinfo@std@@QEAA@PEBD@Z@4HA 000000018004c80c f   nodejieba.obj
 0001:0004b81c       ?dtor$2@?0???0_Locinfo@std@@QEAA@PEBD@Z@4HA 000000018004c81c f   nodejieba.obj
 0001:0004b82c       ?dtor$3@?0???0_Locinfo@std@@QEAA@PEBD@Z@4HA 000000018004c82c f   nodejieba.obj
 0001:0004b83c       ?dtor$4@?0???0_Locinfo@std@@QEAA@PEBD@Z@4HA 000000018004c83c f   nodejieba.obj
 0001:0004b84c       ?dtor$5@?0???0_Locinfo@std@@QEAA@PEBD@Z@4HA 000000018004c84c f   nodejieba.obj
 0001:0004b85c       ?dtor$6@?0???0_Locinfo@std@@QEAA@PEBD@Z@4HA 000000018004c85c f   nodejieba.obj
 0001:0004b86c       ?dtor$7@?0???0_Locinfo@std@@QEAA@PEBD@Z@4HA 000000018004c86c f   nodejieba.obj
 0001:0004b880       ?dtor$3@?0???0_System_error@std@@IEAA@Verror_code@1@AEBV?$basic_string@DU?$char_traits@D@std@@V?$allocator@D@2@@1@@Z@4HA 000000018004c880 f   nodejieba.obj
 0001:0004b88c       ?dtor$4@?0???0_System_error@std@@IEAA@Verror_code@1@AEBV?$basic_string@DU?$char_traits@D@std@@V?$allocator@D@2@@1@@Z@4HA 000000018004c88c f   nodejieba.obj
 0001:0004b8a0       ?dtor$1@?0???0failure@ios_base@std@@QEAA@PEBDAEBVerror_code@2@@Z@4HA 000000018004c8a0 f   nodejieba.obj
 0001:0004b8a0       ?dtor$0@?0??Split@limonp@@YAXAEBV?$basic_string@DU?$char_traits@D@std@@V?$allocator@D@2@@std@@AEAV?$vector@V?$basic_string@DU?$char_traits@D@std@@V?$allocator@D@2@@std@@V?$allocator@V?$basic_string@DU?$char_traits@D@std@@V?$allocator@D@2@@std@@@2@@3@0_K@Z@4HA 000000018004c8a0 f   nodejieba.obj
 0001:0004b8b0       ?dtor$0@?0???0Utf8String@Nan@@QEAA@V?$Local@VValue@v8@@@v8@@@Z@4HA 000000018004c8b0 f   nodejieba.obj
 0001:0004b8c0       ?dtor$1@?0???0Logger@limonp@@QEAA@_KPEBDH@Z@4HA 000000018004c8c0 f   nodejieba.obj
 0001:0004b8ed       ?dtor$2@?0???0Logger@limonp@@QEAA@_KPEBDH@Z@4HA 000000018004c8ed f   nodejieba.obj
 0001:0004b8fd       ?dtor$0@?0???0Logger@limonp@@QEAA@_KPEBDH@Z@4HA 000000018004c8fd f   nodejieba.obj
 0001:0004b910       ?dtor$0@?0??Split@limonp@@YA?AV?$vector@V?$basic_string@DU?$char_traits@D@std@@V?$allocator@D@2@@std@@V?$allocator@V?$basic_string@DU?$char_traits@D@std@@V?$allocator@D@2@@std@@@2@@std@@AEBV?$basic_string@DU?$char_traits@D@std@@V?$allocator@D@2@@3@0_K@Z@4HA 000000018004c910 f   nodejieba.obj
 0001:0004b940       ?dtor$1@?0??GetWordsFromWordRanges@cppjieba@@YAXAEBV?$basic_string@DU?$char_traits@D@std@@V?$allocator@D@2@@std@@AEBV?$vector@UWordRange@cppjieba@@V?$allocator@UWordRange@cppjieba@@@std@@@3@AEAV?$vector@UWord@cppjieba@@V?$allocator@UWord@cppjieba@@@std@@@3@@Z@4HA 000000018004c940 f   nodejieba.obj
 0001:0004b94c       ?dtor$0@?0??GetWordsFromWordRanges@cppjieba@@YAXAEBV?$basic_string@DU?$char_traits@D@std@@V?$allocator@D@2@@std@@AEBV?$vector@UWordRange@cppjieba@@V?$allocator@UWordRange@cppjieba@@@std@@@3@AEAV?$vector@UWord@cppjieba@@V?$allocator@UWord@cppjieba@@@std@@@3@@Z@4HA 000000018004c94c f   nodejieba.obj
 0001:0004b960       ?dtor$0@?0??InsertNode@Trie@cppjieba@@QEAAXAEBV?$LocalVector@I@limonp@@PEBUDictUnit@2@@Z@4HA 000000018004c960 f   nodejieba.obj
 0001:0004b980       ?dtor$3@?0??InsertNode@Trie@cppjieba@@QEAAXAEBV?$LocalVector@I@limonp@@PEBUDictUnit@2@@Z@4HA 000000018004c980 f   nodejieba.obj
 0001:0004b990       ?dtor$4@?0??InsertNode@Trie@cppjieba@@QEAAXAEBV?$LocalVector@I@limonp@@PEBUDictUnit@2@@Z@4HA 000000018004c990 f   nodejieba.obj
 0001:0004b9a0       ?dtor$0@?0??InsertUserWord@DictTrie@cppjieba@@QEAA_NAEBV?$basic_string@DU?$char_traits@D@std@@V?$allocator@D@2@@std@@0@Z@4HA 000000018004c9a0 f   nodejieba.obj
 0001:0004b9ac       ?dtor$2@?0??InsertUserWord@DictTrie@cppjieba@@QEAA_NAEBV?$basic_string@DU?$char_traits@D@std@@V?$allocator@D@2@@std@@0@Z@4HA 000000018004c9ac f   nodejieba.obj
 0001:0004b9c0       ?dtor$0@?0??InserUserDictNode@DictTrie@cppjieba@@QEAAXAEBV?$basic_string@DU?$char_traits@D@std@@V?$allocator@D@2@@std@@@Z@4HA 000000018004c9c0 f   nodejieba.obj
 0001:0004b9cc       ?dtor$1@?0??InserUserDictNode@DictTrie@cppjieba@@QEAAXAEBV?$basic_string@DU?$char_traits@D@std@@V?$allocator@D@2@@std@@@Z@4HA 000000018004c9cc f   nodejieba.obj
 0001:0004b9d8       ?dtor$2@?0??InserUserDictNode@DictTrie@cppjieba@@QEAAXAEBV?$basic_string@DU?$char_traits@D@std@@V?$allocator@D@2@@std@@@Z@4HA 000000018004c9d8 f   nodejieba.obj
 0001:0004b9e4       ?dtor$3@?0??InserUserDictNode@DictTrie@cppjieba@@QEAAXAEBV?$basic_string@DU?$char_traits@D@std@@V?$allocator@D@2@@std@@@Z@4HA 000000018004c9e4 f   nodejieba.obj
 0001:0004b9f0       ?dtor$13@?0??InserUserDictNode@DictTrie@cppjieba@@QEAAXAEBV?$basic_string@DU?$char_traits@D@std@@V?$allocator@D@2@@std@@@Z@4HA 000000018004c9f0 f   nodejieba.obj
 0001:0004ba00       ?dtor$0@?0??LoadUserDict@DictTrie@cppjieba@@QEAAXAEBV?$basic_string@DU?$char_traits@D@std@@V?$allocator@D@2@@std@@@Z@4HA 000000018004ca00 f   nodejieba.obj
 0001:0004ba0c       ?dtor$5@?0??LoadUserDict@DictTrie@cppjieba@@QEAAXAEBV?$basic_string@DU?$char_traits@D@std@@V?$allocator@D@2@@std@@@Z@4HA 000000018004ca0c f   nodejieba.obj
 0001:0004ba32       ?dtor$2@?0??LoadUserDict@DictTrie@cppjieba@@QEAAXAEBV?$basic_string@DU?$char_traits@D@std@@V?$allocator@D@2@@std@@@Z@4HA 000000018004ca32 f   nodejieba.obj
 0001:0004ba3e       ?dtor$3@?0??LoadUserDict@DictTrie@cppjieba@@QEAAXAEBV?$basic_string@DU?$char_traits@D@std@@V?$allocator@D@2@@std@@@Z@4HA 000000018004ca3e f   nodejieba.obj
 0001:0004ba4a       ?dtor$4@?0??LoadUserDict@DictTrie@cppjieba@@QEAAXAEBV?$basic_string@DU?$char_traits@D@std@@V?$allocator@D@2@@std@@@Z@4HA 000000018004ca4a f   nodejieba.obj
 0001:0004ba60       ?dtor$0@?0??CreateTrie@DictTrie@cppjieba@@AEAAXAEBV?$vector@UDictUnit@cppjieba@@V?$allocator@UDictUnit@cppjieba@@@std@@@std@@@Z@4HA 000000018004ca60 f   nodejieba.obj
 0001:0004ba6c       ?dtor$1@?0??CreateTrie@DictTrie@cppjieba@@AEAAXAEBV?$vector@UDictUnit@cppjieba@@V?$allocator@UDictUnit@cppjieba@@@std@@@std@@@Z@4HA 000000018004ca6c f   nodejieba.obj
 0001:0004ba78       ?dtor$2@?0??CreateTrie@DictTrie@cppjieba@@AEAAXAEBV?$vector@UDictUnit@cppjieba@@V?$allocator@UDictUnit@cppjieba@@@std@@@std@@@Z@4HA 000000018004ca78 f   nodejieba.obj
 0001:0004baa0       ?dtor$0@?0??MakeNodeInfo@DictTrie@cppjieba@@AEAA_NAEAUDictUnit@2@AEBV?$basic_string@DU?$char_traits@D@std@@V?$allocator@D@2@@std@@N1@Z@4HA 000000018004caa0 f   nodejieba.obj
 0001:0004bab0       ?dtor$0@?0??LoadDict@DictTrie@cppjieba@@AEAAXAEBV?$basic_string@DU?$char_traits@D@std@@V?$allocator@D@2@@std@@@Z@4HA 000000018004cab0 f   nodejieba.obj
 0001:0004babc       ?dtor$1@?0??LoadDict@DictTrie@cppjieba@@AEAAXAEBV?$basic_string@DU?$char_traits@D@std@@V?$allocator@D@2@@std@@@Z@4HA 000000018004cabc f   nodejieba.obj
 0001:0004bac8       ?dtor$2@?0??LoadDict@DictTrie@cppjieba@@AEAAXAEBV?$basic_string@DU?$char_traits@D@std@@V?$allocator@D@2@@std@@@Z@4HA 000000018004cac8 f   nodejieba.obj
 0001:0004bad4       ?dtor$3@?0??LoadDict@DictTrie@cppjieba@@AEAAXAEBV?$basic_string@DU?$char_traits@D@std@@V?$allocator@D@2@@std@@@Z@4HA 000000018004cad4 f   nodejieba.obj
 0001:0004bae0       ?dtor$4@?0??LoadDict@DictTrie@cppjieba@@AEAAXAEBV?$basic_string@DU?$char_traits@D@std@@V?$allocator@D@2@@std@@@Z@4HA 000000018004cae0 f   nodejieba.obj
 0001:0004baec       ?dtor$5@?0??LoadDict@DictTrie@cppjieba@@AEAAXAEBV?$basic_string@DU?$char_traits@D@std@@V?$allocator@D@2@@std@@@Z@4HA 000000018004caec f   nodejieba.obj
 0001:0004baf8       ?dtor$6@?0??LoadDict@DictTrie@cppjieba@@AEAAXAEBV?$basic_string@DU?$char_traits@D@std@@V?$allocator@D@2@@std@@@Z@4HA 000000018004caf8 f   nodejieba.obj
 0001:0004bb04       ?dtor$13@?0??LoadDict@DictTrie@cppjieba@@AEAAXAEBV?$basic_string@DU?$char_traits@D@std@@V?$allocator@D@2@@std@@@Z@4HA 000000018004cb04 f   nodejieba.obj
 0001:0004bb10       ?dtor$0@?0??SetStaticWordWeights@DictTrie@cppjieba@@AEAAXW4UserWordWeightOption@12@@Z@4HA 000000018004cb10 f   nodejieba.obj
 0001:0004bb1c       ?dtor$1@?0??SetStaticWordWeights@DictTrie@cppjieba@@AEAAXW4UserWordWeightOption@12@@Z@4HA 000000018004cb1c f   nodejieba.obj
 0001:0004bb30       ?dtor$0@?0???0SegmentBase@cppjieba@@QEAA@XZ@4HA 000000018004cb30 f   nodejieba.obj
 0001:0004bb40       ?dtor$1@?0???0SegmentBase@cppjieba@@QEAA@XZ@4HA 000000018004cb40 f   nodejieba.obj
 0001:0004bb4c       ?dtor$2@?0???0SegmentBase@cppjieba@@QEAA@XZ@4HA 000000018004cb4c f   nodejieba.obj
 0001:0004bb60       ?dtor$0@?0??ResetSeparators@SegmentBase@cppjieba@@QEAA_NAEBV?$basic_string@DU?$char_traits@D@std@@V?$allocator@D@2@@std@@@Z@4HA 000000018004cb60 f   nodejieba.obj
 0001:0004bb6c       ?dtor$1@?0??ResetSeparators@SegmentBase@cppjieba@@QEAA_NAEBV?$basic_string@DU?$char_traits@D@std@@V?$allocator@D@2@@std@@@Z@4HA 000000018004cb6c f   nodejieba.obj
 0001:0004bb78       ?dtor$2@?0??ResetSeparators@SegmentBase@cppjieba@@QEAA_NAEBV?$basic_string@DU?$char_traits@D@std@@V?$allocator@D@2@@std@@@Z@4HA 000000018004cb78 f   nodejieba.obj
 0001:0004bb84       ?dtor$3@?0??ResetSeparators@SegmentBase@cppjieba@@QEAA_NAEBV?$basic_string@DU?$char_traits@D@std@@V?$allocator@D@2@@std@@@Z@4HA 000000018004cb84 f   nodejieba.obj
 0001:0004bb90       ?dtor$0@?0??Cut@FullSegment@cppjieba@@UEBAXAEBV?$basic_string@DU?$char_traits@D@std@@V?$allocator@D@2@@std@@AEAV?$vector@V?$basic_string@DU?$char_traits@D@std@@V?$allocator@D@2@@std@@V?$allocator@V?$basic_string@DU?$char_traits@D@std@@V?$allocator@D@2@@std@@@2@@4@@Z@4HA 000000018004cb90 f   nodejieba.obj
 0001:0004bb90       ?dtor$0@?0??Cut@QuerySegment@cppjieba@@QEBAXAEBV?$basic_string@DU?$char_traits@D@std@@V?$allocator@D@2@@std@@AEAV?$vector@V?$basic_string@DU?$char_traits@D@std@@V?$allocator@D@2@@std@@V?$allocator@V?$basic_string@DU?$char_traits@D@std@@V?$allocator@D@2@@std@@@2@@4@_N@Z@4HA 000000018004cb90 f   nodejieba.obj
 0001:0004bb90       ?dtor$0@?0??Cut@HMMSegment@cppjieba@@UEBAXAEBV?$basic_string@DU?$char_traits@D@std@@V?$allocator@D@2@@std@@AEAV?$vector@V?$basic_string@DU?$char_traits@D@std@@V?$allocator@D@2@@std@@V?$allocator@V?$basic_string@DU?$char_traits@D@std@@V?$allocator@D@2@@std@@@2@@4@@Z@4HA 000000018004cb90 f   nodejieba.obj
 0001:0004bb90       ?dtor$0@?0??Cut@MPSegment@cppjieba@@QEBAXAEBV?$basic_string@DU?$char_traits@D@std@@V?$allocator@D@2@@std@@AEAV?$vector@V?$basic_string@DU?$char_traits@D@std@@V?$allocator@D@2@@std@@V?$allocator@V?$basic_string@DU?$char_traits@D@std@@V?$allocator@D@2@@std@@@2@@4@_K@Z@4HA 000000018004cb90 f   nodejieba.obj
 0001:0004bb90       ?dtor$0@?0??Cut@MixSegment@cppjieba@@QEBAXAEBV?$basic_string@DU?$char_traits@D@std@@V?$allocator@D@2@@std@@AEAV?$vector@V?$basic_string@DU?$char_traits@D@std@@V?$allocator@D@2@@std@@V?$allocator@V?$basic_string@DU?$char_traits@D@std@@V?$allocator@D@2@@std@@@2@@4@_N@Z@4HA 000000018004cb90 f   nodejieba.obj
 0001:0004bba0       ?dtor$2@?0??Cut@FullSegment@cppjieba@@QEBAXAEBV?$basic_string@DU?$char_traits@D@std@@V?$allocator@D@2@@std@@AEAV?$vector@UWord@cppjieba@@V?$allocator@UWord@cppjieba@@@std@@@4@@Z@4HA 000000018004cba0 f   nodejieba.obj
 0001:0004bba0       ?dtor$2@?0??Cut@HMMSegment@cppjieba@@QEBAXAEBV?$basic_string@DU?$char_traits@D@std@@V?$allocator@D@2@@std@@AEAV?$vector@UWord@cppjieba@@V?$allocator@UWord@cppjieba@@@std@@@4@@Z@4HA 000000018004cba0 f   nodejieba.obj
 0001:0004bbb0       ?dtor$3@?0??Cut@FullSegment@cppjieba@@QEBAXAEBV?$basic_string@DU?$char_traits@D@std@@V?$allocator@D@2@@std@@AEAV?$vector@UWord@cppjieba@@V?$allocator@UWord@cppjieba@@@std@@@4@@Z@4HA 000000018004cbb0 f   nodejieba.obj
 0001:0004bbb0       ?dtor$3@?0??Cut@HMMSegment@cppjieba@@QEBAXAEBV?$basic_string@DU?$char_traits@D@std@@V?$allocator@D@2@@std@@AEAV?$vector@UWord@cppjieba@@V?$allocator@UWord@cppjieba@@@std@@@4@@Z@4HA 000000018004cbb0 f   nodejieba.obj
 0001:0004bbbc       ?dtor$0@?0??Cut@HMMSegment@cppjieba@@QEBAXAEBV?$basic_string@DU?$char_traits@D@std@@V?$allocator@D@2@@std@@AEAV?$vector@UWord@cppjieba@@V?$allocator@UWord@cppjieba@@@std@@@4@@Z@4HA 000000018004cbbc f   nodejieba.obj
 0001:0004bbbc       ?dtor$0@?0??Cut@FullSegment@cppjieba@@QEBAXAEBV?$basic_string@DU?$char_traits@D@std@@V?$allocator@D@2@@std@@AEAV?$vector@UWord@cppjieba@@V?$allocator@UWord@cppjieba@@@std@@@4@@Z@4HA 000000018004cbbc f   nodejieba.obj
 0001:0004bbc8       ?dtor$1@?0??Cut@HMMSegment@cppjieba@@QEBAXAEBV?$basic_string@DU?$char_traits@D@std@@V?$allocator@D@2@@std@@AEAV?$vector@UWord@cppjieba@@V?$allocator@UWord@cppjieba@@@std@@@4@@Z@4HA 000000018004cbc8 f   nodejieba.obj
 0001:0004bbc8       ?dtor$1@?0??Cut@FullSegment@cppjieba@@QEBAXAEBV?$basic_string@DU?$char_traits@D@std@@V?$allocator@D@2@@std@@AEAV?$vector@UWord@cppjieba@@V?$allocator@UWord@cppjieba@@@std@@@4@@Z@4HA 000000018004cbc8 f   nodejieba.obj
